(dp1
S'y'
(dp2
S'length'
p3
I512
sS'unique'
p4
I00
sS'sortable'
p5
I3
sS'sql'
p6
S'DOUBLE'
p7
sS'notnull'
p8
I00
sS'type'
p9
S'float'
p10
ssS'x'
(dp11
g3
I512
sg4
I00
sg5
I2
sg6
S'DOUBLE'
p12
sg8
I00
sg9
g10
ssS'id'
p13
(dp14
g3
I512
sg4
I00
sg5
I1
sg6
S'INTEGER PRIMARY KEY AUTOINCREMENT'
p15
sg8
I00
sg9
S'id'
p16
ss.