(dp1
S'output'
p2
S"<class 'sqlite3.OperationalError'> no such column: nombre_format"
p3
sS'layer'
p4
S'D:\\web2py\\applications\\antecedentesplataforma\\controllers/imprimir.py'
p5
sS'code'
p6
S'\nfrom reportlab.pdfgen import canvas\n\ndef sin_antecedentes():\n\tide_padron=request.args[1]\t#traigo el argumento del id del padron\n\tide_soli=request.args[0] \t#traigo el argumento del id de la solicitud\n\tdni=request.args[2] \t\t#traigo el dni de la persona\n\tDNI=str(dni)\n\tpa=db(db.padron.id==ide_padron).select().first()\n\tape=pa.Apellido\n\tnom=pa.Nombre\n\tclase=pa.Clase\n\tclase=str(clase)\n\tdni=pa.DocumentoNro\n\tpasa=pa.Pasaporte\n\tnacion=pa.IdPais#saco el id del pais\n\tpaises=db(db.paises.id==nacion).select().first()# hago un set para sacar el pais\n\tpais=paises.pais\n\tclave={"A.G.":"1",\'2\':"C.I.",\'3\':"D.C.P",\'4\':"D.E",\'5\':"R.C",\'6\':"S.P.",\'0\':None}\n\tvil={"S":"SOLTERO/A","C":"CASADO/A","D":"DIVORSIADO/A","V":"VIUDO/A"}\t\n\tcivil=pa.EstadoCivil\t\n\te_civil=vil[civil]#reemplazo en el diccionario vil\n\t#civiles=e_civil[e_civil]\n\tprof=pa.Profesion\n\tdirec=pa.Direccion\n\ttipo=pa.IdProntuarioTipo\n\ttipo=str(tipo)\t\n\tnpront=pa.ProntuarioNro\n\tnpront=str(npront)\n\tqtipo=clave[tipo]\t\n\tsol=db(db.solicitud.id==ide_soli).select().first()\n\tcapital=sol.capitalinterior\n\tintervino=sol.intervino\n\tfecha=sol.fecha_solicitada\t\n\tuser=sol.usuario\n\ttiene=sol.t_antecedentes\n\tante=sol.antecedentes\n\tfrom reportlab.platypus import *\n\tfrom reportlab.lib.styles import getSampleStyleSheet\n\tfrom reportlab.rl_config import defaultPageSize\n\tfrom reportlab.lib.units import inch, mm\n\tfrom reportlab.lib.enums import TA_LEFT, TA_RIGHT, TA_CENTER, TA_JUSTIFY\n\tfrom reportlab.lib import colors\n\tfrom uuid import uuid4\n\tfrom cgi import escape\n\timport os\t\n    \tarchivotmp=os.path.join(request.folder,\'private\',str(uuid4()))\t\n\tdoc = SimpleDocTemplate(archivotmp)\n\tx = 50\n\ty = - 50\n\tdoc.line(x, y, x + 200, y)\n\t\t\n    \ttexto = nom+"                            "+"                            "+ape\n    \tstyles = getSampleStyleSheet()\t\n   \t\n    \tstory = []    \t\n    \tstory.append(Paragraph(escape(texto),styles["Normal"]))\n    \tstory.append(Spacer(0,-\t2))\n    \ttexto = clase+"             "+DNI\n    \tstory.append(Paragraph(escape(texto),styles["Normal"]))\n    \tstory.append(Spacer(0,2))\n    \t\n    \t\n    \ttexto = pais\n    \tstory.append(Paragraph(escape(texto),styles["Normal"]))\n    \tstory.append(Spacer(5,5))\n    \ttexto = e_civil\n    \tstory.append(Paragraph(escape(texto),styles["Normal"]))\n    \tstory.append(Spacer(5,5))\n    \ttexto = prof\n    \tstory.append(Paragraph(escape(texto),styles["Normal"]))\n    \tstory.append(Spacer(5,5))\n    \ttexto = direc\n    \tstory.append(Paragraph(escape(texto),styles["Normal"]))\n    \tstory.append(Spacer(5,5))\n    \ttexto = qtipo+" "+npront\n    \tstory.append(Paragraph(escape(texto),styles["Normal"]))\n    \tstory.append(Spacer(50000,1.5*inch))\n    \ttexto = qtipo\n    \tstory.append(Paragraph(escape(texto),styles["Normal"]))\n    \tstory.append(Spacer(1,1.2*inch))\t\n\n    \tdoc.build(story)\n\n    \t\n    \tdata = open(archivotmp,"rb").read()\n    \tos.unlink(archivotmp)\n    \tresponse.headers[\'Content-Type\']=\'application/pdf\'\n\treturn data\n    \t\n\t\n\n\t\n\t\ndef con_antecedentes():\n\n    response.title = "Listado Inscriptos (General)"\n    \n    registros = db(db.auth_user.id>0).select(\'nombre_format\',\'email\',\'fecnac\')\n#    table = SQLTABLE(registros)\n    chart = None\n    \n    rows = [THEAD(TR(TH("Nombre",_width="50%"), TH("email",_width="30%"), TH(\'fecnac\', _width="20%")))]\n    for registro in registros:\n#        rows.append(TR(TD(registro.nombre_format.decode("utf8").encode("latin1")),TD(registro.email),TD(registro.fecnac)))\n        rows.append(TR(TD(registro.nombre_format),TD(registro.email),TD(registro.fecnac)))\n\n    table = TABLE(*rows, _border="0", _align="center", _width="90%",_style="font-size:80%;")\n\n    if request.extension=="pdf":\n        from gluon.contrib.pyfpdf import FPDF, HTMLMixin\n\n        # create a custom class with the required functionalities \n        class MyFPDF(FPDF, HTMLMixin):\n            def header(self): \n                "hook to draw custom page header (logo and title)"\n                #logo=os.path.join(request.env.web2py_path,"gluon","contrib","pyfpdf","tutorial","logo_pb.png")\n                #logo = os.path(request.folder,\'/static/imagenes/logo_banner_2.png\')\n                logo=os.path.join(request.folder,"static","imagenes","avatarDefecto.jpg")\n                \n                self.image(logo,10,8,33)\n                self.set_font(\'Arial\',\'B\',15)\n                self.cell(65) # padding\n                self.cell(60,10,response.title,1,0,\'C\')\n                self.ln(20)\n                \n            def footer(self):\n                "hook to draw custom page footer (printing page numbers)"\n                self.set_y(-15)\n                self.set_font(\'Arial\',\'I\',8)\n                txt = \'Page %s of %s\' % (self.page_no(), self.alias_nb_pages())\n                self.cell(0,10,txt,0,0,\'C\')\n                    \n        pdf=MyFPDF()\n        \n        titulo1 = H1(\'este es el listado\')\n        \n        # create a page and serialize/render HTML objects\n        pdf.add_page()\n        pdf.write_html(str(XML(titulo1, sanitize=False)))        \n        pdf.write_html(str(XML(table, sanitize=False)))\n\n#        pdf.write_html(str(XML(CENTER(chart), sanitize=False)))\n        # prepare PDF to download:\n        response.headers[\'Content-Type\']=\'application/pdf\'\n        return pdf.output(dest=\'S\')\n    else:\n        # normal html view:\n\treturn dict(chart=chart, table=table)\n\n\t\n \n \n\n\t\n\n    \n\t\n\n\n\n\t\n\t\n\n\n\n\n\n\n\n\n\n\n\n\n\n\n\t\n\nresponse._vars=response._caller(con_antecedentes)\n'
p7
sS'snapshot'
p8
(dp9
S'exception'
p10
(dp11
S'__module__'
p12
S"'sqlite3'"
p13
sS'__getslice__'
p14
S"<method-wrapper '__getslice__' of OperationalError object>"
p15
sS'__str__'
p16
S"<method-wrapper '__str__' of OperationalError object>"
p17
sS'__reduce__'
p18
S'<built-in method __reduce__ of OperationalError object>'
p19
sS'__dict__'
p20
S'{}'
p21
sS'__sizeof__'
p22
S'<built-in method __sizeof__ of OperationalError object>'
p23
sS'__weakref__'
p24
S'None'
p25
sS'__init__'
p26
S"<method-wrapper '__init__' of OperationalError object>"
p27
sS'__setattr__'
p28
S"<method-wrapper '__setattr__' of OperationalError object>"
p29
sS'__reduce_ex__'
p30
S'<built-in method __reduce_ex__ of OperationalError object>'
p31
sS'__new__'
p32
S'<built-in method __new__ of type object>'
p33
sS'__format__'
p34
S'<built-in method __format__ of OperationalError object>'
p35
sS'__class__'
p36
S"<class 'sqlite3.OperationalError'>"
p37
sS'__doc__'
p38
S'None'
p39
sS'__getitem__'
p40
S"<method-wrapper '__getitem__' of OperationalError object>"
p41
sS'__setstate__'
p42
S'<built-in method __setstate__ of OperationalError object>'
p43
sS'__getattribute__'
p44
S"<method-wrapper '__getattribute__' of OperationalError object>"
p45
sS'args'
p46
S"('no such column: nombre_format',)"
p47
sS'__subclasshook__'
p48
S'<built-in method __subclasshook__ of type object>'
p49
sS'__unicode__'
p50
S'<built-in method __unicode__ of OperationalError object>'
p51
sS'__delattr__'
p52
S"<method-wrapper '__delattr__' of OperationalError object>"
p53
sS'__repr__'
p54
S"<method-wrapper '__repr__' of OperationalError object>"
p55
sS'__hash__'
p56
S"<method-wrapper '__hash__' of OperationalError object>"
p57
ssS'evalue'
p58
S'no such column: nombre_format'
p59
sS'request'
p60
cgluon.html
XML_unpickle
p61
(S's\xd3Y\x00\x00<div><table><tr><td style="font-weight:bold;vertical-align:top;">ajax</td><td style="vertical-align:top;">:</td><td><div>False</div></td></tr><tr><td style="font-weight:bold;vertical-align:top;">application</td><td style="vertical-align:top;">:</td><td><div>antecedentesplataforma</div></td></tr><tr><td style="font-weight:bold;vertical-align:top;">args</td><td style="vertical-align:top;">:</td><td><div><table><tr><td><div>1</div></td></tr><tr><td><div>150519</div></td></tr><tr><td><div>29917029</div></td></tr></table></div></td></tr><tr><td style="font-weight:bold;vertical-align:top;">cid</td><td style="vertical-align:top;">:</td><td><div>None</div></td></tr><tr><td style="font-weight:bold;vertical-align:top;">client</td><td style="vertical-align:top;">:</td><td><div>127.0.0.1</div></td></tr><tr><td style="font-weight:bold;vertical-align:top;">controller</td><td style="vertical-align:top;">:</td><td><div>imprimir</div></td></tr><tr><td style="font-weight:bold;vertical-align:top;">cookies</td><td style="vertical-align:top;">:</td><td><div><table><tr><td style="font-weight:bold;vertical-align:top;">session_id_admin</td><td style="vertical-align:top;">:</td><td><div>127.0.0.1-8c2f3232-c77d-40c3-b132-cad18bed0c4c<table><tr><td style="font-weight:bold;vertical-align:top;">comment</td><td style="vertical-align:top;">:</td><td><div></div></td></tr><tr><td style="font-weight:bold;vertical-align:top;">domain</td><td style="vertical-align:top;">:</td><td><div></div></td></tr><tr><td style="font-weight:bold;vertical-align:top;">expires</td><td style="vertical-align:top;">:</td><td><div></div></td></tr><tr><td style="font-weight:bold;vertical-align:top;">httponly</td><td style="vertical-align:top;">:</td><td><div></div></td></tr><tr><td style="font-weight:bold;vertical-align:top;">max-age</td><td style="vertical-align:top;">:</td><td><div></div></td></tr><tr><td style="font-weight:bold;vertical-align:top;">path</td><td style="vertical-align:top;">:</td><td><div></div></td></tr><tr><td style="font-weight:bold;vertical-align:top;">secure</td><td style="vertical-align:top;">:</td><td><div></div></td></tr><tr><td style="font-weight:bold;vertical-align:top;">version</td><td style="vertical-align:top;">:</td><td><div></div></td></tr></table></div></td></tr><tr><td style="font-weight:bold;vertical-align:top;">session_id_antecedentesplataforma</td><td style="vertical-align:top;">:</td><td><div>127.0.0.1-0b865203-7955-4e4c-874e-c849b49280be<table><tr><td style="font-weight:bold;vertical-align:top;">comment</td><td style="vertical-align:top;">:</td><td><div></div></td></tr><tr><td style="font-weight:bold;vertical-align:top;">domain</td><td style="vertical-align:top;">:</td><td><div></div></td></tr><tr><td style="font-weight:bold;vertical-align:top;">expires</td><td style="vertical-align:top;">:</td><td><div></div></td></tr><tr><td style="font-weight:bold;vertical-align:top;">httponly</td><td style="vertical-align:top;">:</td><td><div></div></td></tr><tr><td style="font-weight:bold;vertical-align:top;">max-age</td><td style="vertical-align:top;">:</td><td><div></div></td></tr><tr><td style="font-weight:bold;vertical-align:top;">path</td><td style="vertical-align:top;">:</td><td><div></div></td></tr><tr><td style="font-weight:bold;vertical-align:top;">secure</td><td style="vertical-align:top;">:</td><td><div></div></td></tr><tr><td style="font-weight:bold;vertical-align:top;">version</td><td style="vertical-align:top;">:</td><td><div></div></td></tr></table></div></td></tr></table></div></td></tr><tr><td style="font-weight:bold;vertical-align:top;">env</td><td style="vertical-align:top;">:</td><td><div><table><tr><td style="font-weight:bold;vertical-align:top;">HTTP_ACCEPT</td><td style="vertical-align:top;">:</td><td><div>text/html,application/xhtml+xml,application/xml;q=0.9,image/webp,image/apng,*/*;q=0.8,application/signed-exchange;v=b3</div></td></tr><tr><td style="font-weight:bold;vertical-align:top;">HTTP_ACCEPT_ENCODING</td><td style="vertical-align:top;">:</td><td><div>gzip, deflate, br</div></td></tr><tr><td style="font-weight:bold;vertical-align:top;">HTTP_ACCEPT_LANGUAGE</td><td style="vertical-align:top;">:</td><td><div>es-ES,es;q=0.9,en;q=0.8</div></td></tr><tr><td style="font-weight:bold;vertical-align:top;">HTTP_CACHE_CONTROL</td><td style="vertical-align:top;">:</td><td><div>max-age=0</div></td></tr><tr><td style="font-weight:bold;vertical-align:top;">HTTP_CONNECTION</td><td style="vertical-align:top;">:</td><td><div>keep-alive</div></td></tr><tr><td style="font-weight:bold;vertical-align:top;">HTTP_COOKIE</td><td style="vertical-align:top;">:</td><td><div>session_id_admin=127.0.0.1-8c2f3232-c77d-40c3-b132-cad18bed0c4c; session_id_antecedentesplataforma=127.0.0.1-0b865203-7955-4e4c-874e-c849b49280be</div></td></tr><tr><td style="font-weight:bold;vertical-align:top;">HTTP_HOST</td><td style="vertical-align:top;">:</td><td><div>127.0.0.1:8000</div></td></tr><tr><td style="font-weight:bold;vertical-align:top;">HTTP_REFERER</td><td style="vertical-align:top;">:</td><td><div>http://127.0.0.1:8000/antecedentesplataforma/confeccion/pre_imprimir/1/150519/29917029</div></td></tr><tr><td style="font-weight:bold;vertical-align:top;">HTTP_UPGRADE_INSECURE_REQUESTS</td><td style="vertical-align:top;">:</td><td><div>1</div></td></tr><tr><td style="font-weight:bold;vertical-align:top;">HTTP_USER_AGENT</td><td style="vertical-align:top;">:</td><td><div>Mozilla/5.0 (Windows NT 6.1) AppleWebKit/537.36 (KHTML, like Gecko) Chrome/74.0.3729.131 Safari/537.36</div></td></tr><tr><td style="font-weight:bold;vertical-align:top;">PATH_INFO</td><td style="vertical-align:top;">:</td><td><div>/antecedentesplataforma/imprimir/con_antecedentes/1/150519/29917029</div></td></tr><tr><td style="font-weight:bold;vertical-align:top;">QUERY_STRING</td><td style="vertical-align:top;">:</td><td><div></div></td></tr><tr><td style="font-weight:bold;vertical-align:top;">REMOTE_ADDR</td><td style="vertical-align:top;">:</td><td><div>127.0.0.1</div></td></tr><tr><td style="font-weight:bold;vertical-align:top;">REMOTE_PORT</td><td style="vertical-align:top;">:</td><td><div>13688</div></td></tr><tr><td style="font-weight:bold;vertical-align:top;">REQUEST_METHOD</td><td style="vertical-align:top;">:</td><td><div>GET</div></td></tr><tr><td style="font-weight:bold;vertical-align:top;">SCRIPT_NAME</td><td style="vertical-align:top;">:</td><td><div></div></td></tr><tr><td style="font-weight:bold;vertical-align:top;">SERVER_NAME</td><td style="vertical-align:top;">:</td><td><div>HaTaK3-PC</div></td></tr><tr><td style="font-weight:bold;vertical-align:top;">SERVER_PORT</td><td style="vertical-align:top;">:</td><td><div>8000</div></td></tr><tr><td style="font-weight:bold;vertical-align:top;">SERVER_PROTOCOL</td><td style="vertical-align:top;">:</td><td><div>HTTP/1.1</div></td></tr><tr><td style="font-weight:bold;vertical-align:top;">SERVER_SOFTWARE</td><td style="vertical-align:top;">:</td><td><div>Rocket 1.2.6</div></td></tr><tr><td style="font-weight:bold;vertical-align:top;">app_folders</td><td style="vertical-align:top;">:</td><td><div>set([&#x27;D:\\\\web2py\\\\applications\\\\admin\\\\&#x27;, &#x27;D:\\\\web2py\\\\applications\\\\welcome\\\\&#x27;, &#x27;D:\\\\web2py\\\\applications\\\\antecedentesplataforma\\\\&#x27;])</div></td></tr><tr><td style="font-weight:bold;vertical-align:top;">applications_parent</td><td style="vertical-align:top;">:</td><td><div>D:\\web2py</div></td></tr><tr><td style="font-weight:bold;vertical-align:top;">cmd_args</td><td style="vertical-align:top;">:</td><td><div><table></table></div></td></tr><tr><td style="font-weight:bold;vertical-align:top;">cmd_options</td><td style="vertical-align:top;">:</td><td><div>&lt;Values at 0x27bcd50: {&#x27;verbose&#x27;: False, &#x27;ip&#x27;: &#x27;127.0.0.1&#x27;, &#x27;debuglevel&#x27;: 30, &#x27;with_scheduler&#x27;: False, &#x27;shutdown_timeout&#x27;: 5, &#x27;taskbar&#x27;: False, &#x27;with_coverage&#x27;: False, &#x27;pid_filename&#x27;: &#x27;httpserver.pid&#x27;, &#x27;maxthreads&#x27;: None, &#x27;softcron&#x27;: False, &#x27;server_name&#x27;: &#x27;HaTaK3-PC&#x27;, &#x27;bpython&#x27;: False, &#x27;nogui&#x27;: False, &#x27;port&#x27;: 8000, &#x27;print_errors&#x27;: False, &#x27;extcron&#x27;: False, &#x27;runcron&#x27;: False, &#x27;run_system_tests&#x27;: False, &#x27;test&#x27;: None, &#x27;folder&#x27;: &#x27;D:\\\\web2py&#x27;, &#x27;config&#x27;: &#x27;&#x27;, &#x27;minthreads&#x27;: None, &#x27;shell&#x27;: None, &#x27;run&#x27;: &#x27;&#x27;, &#x27;log_filename&#x27;: &#x27;httpserver.log&#x27;, &#x27;profiler_dir&#x27;: None, &#x27;args&#x27;: [&#x27;&#x27;], &#x27;socket_timeout&#x27;: 5, &#x27;ssl_ca_certificate&#x27;: None, &#x27;scheduler&#x27;: None, &#x27;interfaces&#x27;: None, &#x27;ssl_private_key&#x27;: &#x27;&#x27;, &#x27;gae&#x27;: None, &#x27;password&#x27;: &#x27;******&#x27;, &#x27;request_queue_size&#x27;: 5, &#x27;ssl_certificate&#x27;: &#x27;&#x27;, &#x27;cronjob&#x27;: False, &#x27;numthreads&#x27;: None, &#x27;quiet&#x27;: False, &#x27;import_models&#x27;: False, &#x27;timeout&#x27;: 10, &#x27;plain&#x27;: False, &#x27;nobanner&#x27;: False}&gt;</div></td></tr><tr><td style="font-weight:bold;vertical-align:top;">db_sessions</td><td style="vertical-align:top;">:</td><td><div>set([])</div></td></tr><tr><td style="font-weight:bold;vertical-align:top;">debugging</td><td style="vertical-align:top;">:</td><td><div>False</div></td></tr><tr><td style="font-weight:bold;vertical-align:top;">gluon_parent</td><td style="vertical-align:top;">:</td><td><div>D:\\web2py</div></td></tr><tr><td style="font-weight:bold;vertical-align:top;">http_accept</td><td style="vertical-align:top;">:</td><td><div>text/html,application/xhtml+xml,application/xml;q=0.9,image/webp,image/apng,*/*;q=0.8,application/signed-exchange;v=b3</div></td></tr><tr><td style="font-weight:bold;vertical-align:top;">http_accept_encoding</td><td style="vertical-align:top;">:</td><td><div>gzip, deflate, br</div></td></tr><tr><td style="font-weight:bold;vertical-align:top;">http_accept_language</td><td style="vertical-align:top;">:</td><td><div>es-ES,es;q=0.9,en;q=0.8</div></td></tr><tr><td style="font-weight:bold;vertical-align:top;">http_cache_control</td><td style="vertical-align:top;">:</td><td><div>max-age=0</div></td></tr><tr><td style="font-weight:bold;vertical-align:top;">http_connection</td><td style="vertical-align:top;">:</td><td><div>keep-alive</div></td></tr><tr><td style="font-weight:bold;vertical-align:top;">http_cookie</td><td style="vertical-align:top;">:</td><td><div>session_id_admin=127.0.0.1-8c2f3232-c77d-40c3-b132-cad18bed0c4c; session_id_antecedentesplataforma=127.0.0.1-0b865203-7955-4e4c-874e-c849b49280be</div></td></tr><tr><td style="font-weight:bold;vertical-align:top;">http_host</td><td style="vertical-align:top;">:</td><td><div>127.0.0.1:8000</div></td></tr><tr><td style="font-weight:bold;vertical-align:top;">http_referer</td><td style="vertical-align:top;">:</td><td><div>http://127.0.0.1:8000/antecedentesplataforma/confeccion/pre_imprimir/1/150519/29917029</div></td></tr><tr><td style="font-weight:bold;vertical-align:top;">http_upgrade_insecure_requests</td><td style="vertical-align:top;">:</td><td><div>1</div></td></tr><tr><td style="font-weight:bold;vertical-align:top;">http_user_agent</td><td style="vertical-align:top;">:</td><td><div>Mozilla/5.0 (Windows NT 6.1) AppleWebKit/537.36 (KHTML, like Gecko) Chrome/74.0.3729.131 Safari/537.36</div></td></tr><tr><td style="font-weight:bold;vertical-align:top;">is_jython</td><td style="vertical-align:top;">:</td><td><div>False</div></td></tr><tr><td style="font-weight:bold;vertical-align:top;">is_pypy</td><td style="vertical-align:top;">:</td><td><div>False</div></td></tr><tr><td style="font-weight:bold;vertical-align:top;">is_source</td><td style="vertical-align:top;">:</td><td><div>False</div></td></tr><tr><td style="font-weight:bold;vertical-align:top;">local_hosts</td><td style="vertical-align:top;">:</td><td><div><table><tr><td><div>HaTaK3-PC</div></td></tr><tr><td><div>::ffff:127.0.0.1</div></td></tr><tr><td><div>::1</div></td></tr><tr><td><div>fe80::65c7:8cfe:1866:2ddb%12</div></td></tr><tr><td><div>10.150.0.69</div></td></tr><tr><td><div>fe80::6de3:fa60:8d1c:59aa%11</div></td></tr><tr><td><div>127.0.0.1</div></td></tr><tr><td><div>192.168.56.1</div></td></tr></table></div></td></tr><tr><td style="font-weight:bold;vertical-align:top;">path_info</td><td style="vertical-align:top;">:</td><td><div>/antecedentesplataforma/imprimir/con_antecedentes/1/150519/29917029</div></td></tr><tr><td style="font-weight:bold;vertical-align:top;">query_string</td><td style="vertical-align:top;">:</td><td><div></div></td></tr><tr><td style="font-weight:bold;vertical-align:top;">remote_addr</td><td style="vertical-align:top;">:</td><td><div>127.0.0.1</div></td></tr><tr><td style="font-weight:bold;vertical-align:top;">remote_port</td><td style="vertical-align:top;">:</td><td><div>13688</div></td></tr><tr><td style="font-weight:bold;vertical-align:top;">request_method</td><td style="vertical-align:top;">:</td><td><div>GET</div></td></tr><tr><td style="font-weight:bold;vertical-align:top;">request_uri</td><td style="vertical-align:top;">:</td><td><div>/antecedentesplataforma/imprimir/con_antecedentes/1/150519/29917029</div></td></tr><tr><td style="font-weight:bold;vertical-align:top;">script_name</td><td style="vertical-align:top;">:</td><td><div></div></td></tr><tr><td style="font-weight:bold;vertical-align:top;">server_name</td><td style="vertical-align:top;">:</td><td><div>HaTaK3-PC</div></td></tr><tr><td style="font-weight:bold;vertical-align:top;">server_port</td><td style="vertical-align:top;">:</td><td><div>8000</div></td></tr><tr><td style="font-weight:bold;vertical-align:top;">server_protocol</td><td style="vertical-align:top;">:</td><td><div>HTTP/1.1</div></td></tr><tr><td style="font-weight:bold;vertical-align:top;">server_software</td><td style="vertical-align:top;">:</td><td><div>Rocket 1.2.6</div></td></tr><tr><td style="font-weight:bold;vertical-align:top;">web2py_path</td><td style="vertical-align:top;">:</td><td><div>D:\\web2py</div></td></tr><tr><td style="font-weight:bold;vertical-align:top;">web2py_version</td><td style="vertical-align:top;">:</td><td><div>2.14.6-stable+timestamp.2016.05.10.00.21.47</div></td></tr><tr><td style="font-weight:bold;vertical-align:top;">wsgi.errors</td><td style="vertical-align:top;">:</td><td><div>&lt;open file &#x27;&lt;stderr&gt;&#x27;, mode &#x27;w&#x27; at 0x0122D0D0&gt;</div></td></tr><tr><td style="font-weight:bold;vertical-align:top;">wsgi.file_wrapper</td><td style="vertical-align:top;">:</td><td><div>&lt;class wsgiref.util.FileWrapper at 0x0271D4C8&gt;</div></td></tr><tr><td style="font-weight:bold;vertical-align:top;">wsgi.input</td><td style="vertical-align:top;">:</td><td><div>&lt;socket._fileobject object at 0x03ED9E30&gt;</div></td></tr><tr><td style="font-weight:bold;vertical-align:top;">wsgi.multiprocess</td><td style="vertical-align:top;">:</td><td><div>False</div></td></tr><tr><td style="font-weight:bold;vertical-align:top;">wsgi.multithread</td><td style="vertical-align:top;">:</td><td><div>True</div></td></tr><tr><td style="font-weight:bold;vertical-align:top;">wsgi.run_once</td><td style="vertical-align:top;">:</td><td><div>False</div></td></tr><tr><td style="font-weight:bold;vertical-align:top;">wsgi.url_scheme</td><td style="vertical-align:top;">:</td><td><div>http</div></td></tr><tr><td style="font-weight:bold;vertical-align:top;">wsgi.version</td><td style="vertical-align:top;">:</td><td><div><table><tr><td><div>1</div></td></tr><tr><td><div>0</div></td></tr></table></div></td></tr><tr><td style="font-weight:bold;vertical-align:top;">wsgi_errors</td><td style="vertical-align:top;">:</td><td><div>&lt;open file &#x27;&lt;stderr&gt;&#x27;, mode &#x27;w&#x27; at 0x0122D0D0&gt;</div></td></tr><tr><td style="font-weight:bold;vertical-align:top;">wsgi_file_wrapper</td><td style="vertical-align:top;">:</td><td><div>&lt;class wsgiref.util.FileWrapper at 0x0271D4C8&gt;</div></td></tr><tr><td style="font-weight:bold;vertical-align:top;">wsgi_input</td><td style="vertical-align:top;">:</td><td><div>&lt;socket._fileobject object at 0x03ED9E30&gt;</div></td></tr><tr><td style="font-weight:bold;vertical-align:top;">wsgi_multiprocess</td><td style="vertical-align:top;">:</td><td><div>False</div></td></tr><tr><td style="font-weight:bold;vertical-align:top;">wsgi_multithread</td><td style="vertical-align:top;">:</td><td><div>True</div></td></tr><tr><td style="font-weight:bold;vertical-align:top;">wsgi_run_once</td><td style="vertical-align:top;">:</td><td><div>False</div></td></tr><tr><td style="font-weight:bold;vertical-align:top;">wsgi_url_scheme</td><td style="vertical-align:top;">:</td><td><div>http</div></td></tr><tr><td style="font-weight:bold;vertical-align:top;">wsgi_version</td><td style="vertical-align:top;">:</td><td><div><table><tr><td><div>1</div></td></tr><tr><td><div>0</div></td></tr></table></div></td></tr></table></div></td></tr><tr><td style="font-weight:bold;vertical-align:top;">extension</td><td style="vertical-align:top;">:</td><td><div>html</div></td></tr><tr><td style="font-weight:bold;vertical-align:top;">folder</td><td style="vertical-align:top;">:</td><td><div>D:\\web2py\\applications\\antecedentesplataforma\\</div></td></tr><tr><td style="font-weight:bold;vertical-align:top;">function</td><td style="vertical-align:top;">:</td><td><div>con_antecedentes</div></td></tr><tr><td style="font-weight:bold;vertical-align:top;">global_settings</td><td style="vertical-align:top;">:</td><td><div><table><tr><td style="font-weight:bold;vertical-align:top;">app_folders</td><td style="vertical-align:top;">:</td><td><div>set([&#x27;D:\\\\web2py\\\\applications\\\\admin\\\\&#x27;, &#x27;D:\\\\web2py\\\\applications\\\\welcome\\\\&#x27;, &#x27;D:\\\\web2py\\\\applications\\\\antecedentesplataforma\\\\&#x27;])</div></td></tr><tr><td style="font-weight:bold;vertical-align:top;">applications_parent</td><td style="vertical-align:top;">:</td><td><div>D:\\web2py</div></td></tr><tr><td style="font-weight:bold;vertical-align:top;">cmd_args</td><td style="vertical-align:top;">:</td><td><div><table></table></div></td></tr><tr><td style="font-weight:bold;vertical-align:top;">cmd_options</td><td style="vertical-align:top;">:</td><td><div>&lt;Values at 0x27bcd50: {&#x27;verbose&#x27;: False, &#x27;ip&#x27;: &#x27;127.0.0.1&#x27;, &#x27;debuglevel&#x27;: 30, &#x27;with_scheduler&#x27;: False, &#x27;shutdown_timeout&#x27;: 5, &#x27;taskbar&#x27;: False, &#x27;with_coverage&#x27;: False, &#x27;pid_filename&#x27;: &#x27;httpserver.pid&#x27;, &#x27;maxthreads&#x27;: None, &#x27;softcron&#x27;: False, &#x27;server_name&#x27;: &#x27;HaTaK3-PC&#x27;, &#x27;bpython&#x27;: False, &#x27;nogui&#x27;: False, &#x27;port&#x27;: 8000, &#x27;print_errors&#x27;: False, &#x27;extcron&#x27;: False, &#x27;runcron&#x27;: False, &#x27;run_system_tests&#x27;: False, &#x27;test&#x27;: None, &#x27;folder&#x27;: &#x27;D:\\\\web2py&#x27;, &#x27;config&#x27;: &#x27;&#x27;, &#x27;minthreads&#x27;: None, &#x27;shell&#x27;: None, &#x27;run&#x27;: &#x27;&#x27;, &#x27;log_filename&#x27;: &#x27;httpserver.log&#x27;, &#x27;profiler_dir&#x27;: None, &#x27;args&#x27;: [&#x27;&#x27;], &#x27;socket_timeout&#x27;: 5, &#x27;ssl_ca_certificate&#x27;: None, &#x27;scheduler&#x27;: None, &#x27;interfaces&#x27;: None, &#x27;ssl_private_key&#x27;: &#x27;&#x27;, &#x27;gae&#x27;: None, &#x27;password&#x27;: &#x27;******&#x27;, &#x27;request_queue_size&#x27;: 5, &#x27;ssl_certificate&#x27;: &#x27;&#x27;, &#x27;cronjob&#x27;: False, &#x27;numthreads&#x27;: None, &#x27;quiet&#x27;: False, &#x27;import_models&#x27;: False, &#x27;timeout&#x27;: 10, &#x27;plain&#x27;: False, &#x27;nobanner&#x27;: False}&gt;</div></td></tr><tr><td style="font-weight:bold;vertical-align:top;">db_sessions</td><td style="vertical-align:top;">:</td><td><div>set([])</div></td></tr><tr><td style="font-weight:bold;vertical-align:top;">debugging</td><td style="vertical-align:top;">:</td><td><div>False</div></td></tr><tr><td style="font-weight:bold;vertical-align:top;">gluon_parent</td><td style="vertical-align:top;">:</td><td><div>D:\\web2py</div></td></tr><tr><td style="font-weight:bold;vertical-align:top;">is_jython</td><td style="vertical-align:top;">:</td><td><div>False</div></td></tr><tr><td style="font-weight:bold;vertical-align:top;">is_pypy</td><td style="vertical-align:top;">:</td><td><div>False</div></td></tr><tr><td style="font-weight:bold;vertical-align:top;">is_source</td><td style="vertical-align:top;">:</td><td><div>False</div></td></tr><tr><td style="font-weight:bold;vertical-align:top;">local_hosts</td><td style="vertical-align:top;">:</td><td><div><table><tr><td><div>HaTaK3-PC</div></td></tr><tr><td><div>::ffff:127.0.0.1</div></td></tr><tr><td><div>::1</div></td></tr><tr><td><div>fe80::65c7:8cfe:1866:2ddb%12</div></td></tr><tr><td><div>10.150.0.69</div></td></tr><tr><td><div>fe80::6de3:fa60:8d1c:59aa%11</div></td></tr><tr><td><div>127.0.0.1</div></td></tr><tr><td><div>192.168.56.1</div></td></tr></table></div></td></tr><tr><td style="font-weight:bold;vertical-align:top;">web2py_version</td><td style="vertical-align:top;">:</td><td><div>2.14.6-stable+timestamp.2016.05.10.00.21.47</div></td></tr></table></div></td></tr><tr><td style="font-weight:bold;vertical-align:top;">is_https</td><td style="vertical-align:top;">:</td><td><div>False</div></td></tr><tr><td style="font-weight:bold;vertical-align:top;">is_local</td><td style="vertical-align:top;">:</td><td><div>True</div></td></tr><tr><td style="font-weight:bold;vertical-align:top;">is_restful</td><td style="vertical-align:top;">:</td><td><div>False</div></td></tr><tr><td style="font-weight:bold;vertical-align:top;">is_scheduler</td><td style="vertical-align:top;">:</td><td><div>False</div></td></tr><tr><td style="font-weight:bold;vertical-align:top;">is_shell</td><td style="vertical-align:top;">:</td><td><div>False</div></td></tr><tr><td style="font-weight:bold;vertical-align:top;">now</td><td style="vertical-align:top;">:</td><td><div>datetime.datetime(2019, 5, 8, 13, 23, 21, 975000)</div></td></tr><tr><td style="font-weight:bold;vertical-align:top;">raw_args</td><td style="vertical-align:top;">:</td><td><div>1/150519/29917029</div></td></tr><tr><td style="font-weight:bold;vertical-align:top;">raw_extension</td><td style="vertical-align:top;">:</td><td><div>None</div></td></tr><tr><td style="font-weight:bold;vertical-align:top;">url</td><td style="vertical-align:top;">:</td><td><div>/antecedentesplataforma/imprimir/con_antecedentes/1/150519/29917029</div></td></tr><tr><td style="font-weight:bold;vertical-align:top;">utcnow</td><td style="vertical-align:top;">:</td><td><div>datetime.datetime(2019, 5, 8, 16, 23, 21, 975000)</div></td></tr><tr><td style="font-weight:bold;vertical-align:top;">wsgi</td><td style="vertical-align:top;">:</td><td><div>&lt;gluon.main.LazyWSGI object at 0x03A806B0&gt;</div></td></tr></table></div>'
tRp62
sS'frames'
p63
(lp64
(dp65
S'file'
p66
S'D:\\web2py\\gluon\\restricted.py'
p67
sS'dump'
p68
(dp69
S'environment'
p70
S"{'A': <class 'gluon.html.A'>, 'ANY_OF': <class 'gluon.validators.ANY_OF'>, 'ASSIGNJS': <function ASSIGNJS>, 'AppConfig': <function AppConfig>, 'Auth': <class 'gluon.tools.Auth'>, 'B': <class 'gluon.html.B'>, 'BEAUTIFY': <class 'gluon.html.BEAUTIFY'>, 'BODY': <class 'gluon.html.BODY'>, 'BR': <class 'gluon.html.BR'>, 'BUTTON': <class 'gluon.html.BUTTON'>, ...}"
p71
sS'ccode'
p72
S'<code object <module> at 03D8D218, file "D:\\web2...entesplataforma\\controllers/imprimir.py", line 2>'
p73
ssS'lnum'
p74
I227
sS'lines'
p75
(dp76
I224
S'            ccode = code'
p77
sI225
S'        else:'
p78
sI226
S'            ccode = compile2(code, layer)'
p79
sI227
S'        exec ccode in environment'
p80
sI228
S'    except HTTP:'
p81
sI229
S'        raise'
p82
sI230
S'    except RestrictedError:'
p83
sI231
S'        # do not encapsulate (obfuscate) the original RestrictedError'
p84
sI222
S'    try:'
p85
sI223
S'        if isinstance(code, types.CodeType):'
p86
ssS'call'
p87
S"(code='\\nfrom reportlab.pdfgen import canvas\\n\\ndef sin_an...esponse._vars=response._caller(con_antecedentes)\\n', environment={'A': <class 'gluon.html.A'>, 'ANY_OF': <class 'gluon.validators.ANY_OF'>, 'ASSIGNJS': <function ASSIGNJS>, 'AppConfig': <function AppConfig>, 'Auth': <class 'gluon.tools.Auth'>, 'B': <class 'gluon.html.B'>, 'BEAUTIFY': <class 'gluon.html.BEAUTIFY'>, 'BODY': <class 'gluon.html.BODY'>, 'BR': <class 'gluon.html.BR'>, 'BUTTON': <class 'gluon.html.BUTTON'>, ...}, layer=r'D:\\web2py\\applications\\antecedentesplataforma\\controllers/imprimir.py')"
p88
sS'func'
p89
S'restricted'
p90
sa(dp91
g66
S'D:\\web2py\\applications\\antecedentesplataforma\\controllers\\imprimir.py'
p92
sg68
(dp93
sg74
I180
sg75
(dp94
I169
S''
sI170
S''
sI171
S''
sI172
S''
sI173
S''
sI174
S''
sI175
S''
sI176
S''
sI177
S''
sI178
S''
ssg87
S'()'
p95
sg89
S'<module>'
p96
sa(dp97
g66
S'D:\\web2py\\gluon\\globals.py'
p98
sg68
(dp99
S'self'
p100
S'undefined'
p101
sS'f'
S'<function con_antecedentes>'
p102
ssg74
I417
sg75
(dp103
I416
S'        self._vars = None'
p104
sI417
S'        self._caller = lambda f: f()'
p105
sI418
S'        self._view_environment = None'
p106
sI419
S'        self._custom_commit = None'
p107
sI420
S'        self._custom_rollback = None'
p108
sI421
S"        self.generic_patterns = ['*']"
p109
sI412
S"        self.flash = ''            # used by the default view layout"
p110
sI413
S'        self.meta = Storage()      # used by web2py_ajax.html'
p111
sI414
S'        self.menu = []             # used by the default view layout'
p112
sI415
S'        self.files = []            # used by web2py_ajax.html'
p113
ssg87
S'(f=<function con_antecedentes>)'
p114
sg89
S'<lambda>'
p115
sa(dp116
g66
S'D:\\web2py\\applications\\antecedentesplataforma\\controllers\\imprimir.py'
p117
sg68
(dp118
S'fecha'
p119
g101
sS'datetime'
p120
g101
ssg74
I99
sg75
(dp121
I96
S''
sI97
S'    response.title = "Listado Inscriptos (General)"'
p122
sI98
S''
sI99
S"    registros = db(db.auth_user.id>0).select('nombre_format','email','fecnac')"
p123
sI100
S'#    table = SQLTABLE(registros)'
p124
sI101
S'    chart = None'
p125
sI102
S''
sI103
S'    rows = [THEAD(TR(TH("Nombre",_width="50%"), TH("email",_width="30%"), TH(\'fecnac\', _width="20%")))]'
p126
sI94
S''
sI95
S'def con_antecedentes():'
p127
ssg87
S'()'
p128
sg89
S'con_antecedentes'
p129
sa(dp130
g66
S'D:\\web2py\\gluon\\packages\\dal\\pydal\\objects.py'
p131
sg68
(dp132
S'self.query'
p133
S'<Query (auth_user.id > 0)>'
p134
sS'adapter.select'
p135
S'<bound method SQLiteAdapter.select of <pydal.adapters.sqlite.SQLiteAdapter object>>'
p136
sS'fields'
p137
S'[<pydal.objects.Expression object>, <pydal.objects.Expression object>, <pydal.objects.Expression object>]'
p138
sS'adapter'
p139
S'<pydal.adapters.sqlite.SQLiteAdapter object>'
p140
sS'attributes'
p141
g21
sS'self'
p142
S'<Set (auth_user.id > 0)>'
p143
ssg74
I2020
sg75
(dp144
I2016
S"                                    attributes.get('left', None),"
p145
sI2017
S"                                    attributes.get('orderby', None),"
p146
sI2018
S"                                    attributes.get('groupby', None))"
p147
sI2019
S'        fields = adapter.expand_all(fields, tablenames)'
p148
sI2020
S'        return adapter.select(self.query, fields, attributes)'
p149
sI2021
S''
sI2022
S'    def iterselect(self, *fields, **attributes):'
p150
sI2023
S'        adapter = self.db._adapter'
p151
sI2024
S'        tablenames = adapter.tables(self.query,'
p152
sI2015
S"                                    attributes.get('join', None),"
p153
ssg87
S'(self=<Set (auth_user.id > 0)>, *fields=[<pydal.objects.Expression object>, <pydal.objects.Expression object>, <pydal.objects.Expression object>], **attributes={})'
p154
sg89
S'select'
p155
sa(dp156
g66
S'D:\\web2py\\gluon\\packages\\dal\\pydal\\adapters\\sqlite.py'
p157
sg68
(dp158
S'fields'
p159
S'[<pydal.objects.Expression object>, <pydal.objects.Expression object>, <pydal.objects.Expression object>]'
p160
sS'self'
p161
S'<pydal.adapters.sqlite.SQLiteAdapter object>'
p162
sS').select'
p163
S'<bound method SQLiteAdapter.select of <pydal.adapters.sqlite.SQLiteAdapter object>>'
p164
sS'attributes'
p165
g21
sS'global SQLiteAdapter'
p166
S"<class 'pydal.adapters.sqlite.SQLiteAdapter'>"
p167
sS'query'
p168
S'<Query (auth_user.id > 0)>'
p169
sS'builtinsuper'
p170
S"<type 'super'>"
p171
ssg74
I123
sg75
(dp172
I118
S'        Note that the entire database, rather than one record, is locked'
p173
sI119
S'        (it will be locked eventually anyway by the following UPDATE).'
p174
sI120
S'        """'
p175
sI121
S"        if attributes.get('for_update', False) and not 'cache' in attributes:"
p176
sI122
S"            self.execute('BEGIN IMMEDIATE TRANSACTION;')"
p177
sI123
S'        return super(SQLiteAdapter, self).select(query, fields, attributes)'
p178
sI124
S''
sI125
S''
sI126
S'SPATIALLIBS = {'
p179
sI127
S"    'Windows':'mod_spatialite.dll',"
p180
ssg87
S'(self=<pydal.adapters.sqlite.SQLiteAdapter object>, query=<Query (auth_user.id > 0)>, fields=[<pydal.objects.Expression object>, <pydal.objects.Expression object>, <pydal.objects.Expression object>], attributes={})'
p181
sg89
g155
sa(dp182
g66
S'D:\\web2py\\gluon\\packages\\dal\\pydal\\adapters\\base.py'
p183
sg68
(dp184
S'fields'
p185
S'[<pydal.objects.Expression object>, <pydal.objects.Expression object>, <pydal.objects.Expression object>]'
p186
sS'self'
p187
S'<pydal.adapters.sqlite.SQLiteAdapter object>'
p188
sS'attributes'
p189
g21
sS'self._select_aux'
p190
S'<bound method SQLiteAdapter._select_aux of <pydal.adapters.sqlite.SQLiteAdapter object>>'
p191
sS'sql'
p192
S"'SELECT  nombre_format, email, fecnac FROM auth_user WHERE (auth_user.id > 0);'"
p193
ssg74
I1296
sg75
(dp194
I1291
S'            return cache_model('
p195
sI1292
S'                key,'
p196
sI1293
S'                lambda self=self,args=args:self._select_aux(*args),'
p197
sI1294
S'                time_expire)'
p198
sI1295
S'        else:'
p199
sI1296
S'            return self._select_aux(sql,fields,attributes)'
p200
sI1297
S''
sI1298
S'    def iterselect(self, query, fields, attributes):'
p201
sI1299
S'        sql = self._select(query, fields, attributes)'
p202
sI1300
S"        cacheable = attributes.get('cacheable', False)"
p203
ssg87
S'(self=<pydal.adapters.sqlite.SQLiteAdapter object>, query=<Query (auth_user.id > 0)>, fields=[<pydal.objects.Expression object>, <pydal.objects.Expression object>, <pydal.objects.Expression object>], attributes={})'
p204
sg89
g155
sa(dp205
g66
S'D:\\web2py\\gluon\\packages\\dal\\pydal\\adapters\\base.py'
p206
sg68
(dp207
S'self'
p208
S'<pydal.adapters.sqlite.SQLiteAdapter object>'
p209
sS'self.execute'
p210
S'<bound method SQLiteAdapter.execute of <pydal.adapters.sqlite.SQLiteAdapter object>>'
p211
sS'sql'
p212
S"'SELECT  nombre_format, email, fecnac FROM auth_user WHERE (auth_user.id > 0);'"
p213
ssg74
I1253
sg75
(dp214
I1248
S''
sI1249
S'    def _select_aux(self, sql, fields, attributes):'
p215
sI1250
S'        args_get = attributes.get'
p216
sI1251
S"        cache = args_get('cache',None)"
p217
sI1252
S'        if not cache:'
p218
sI1253
S'            self.execute(sql)'
p219
sI1254
S'            rows = self._fetchall()'
p220
sI1255
S'        else:'
p221
sI1256
S'            if isinstance(cache, dict):'
p222
sI1257
S"                cache_model = cache['model']"
p223
ssg87
S"(self=<pydal.adapters.sqlite.SQLiteAdapter object>, sql='SELECT  nombre_format, email, fecnac FROM auth_user WHERE (auth_user.id > 0);', fields=[<pydal.objects.Expression object>, <pydal.objects.Expression object>, <pydal.objects.Expression object>], attributes={})"
p224
sg89
S'_select_aux'
p225
sa(dp226
g66
S'D:\\web2py\\gluon\\packages\\dal\\pydal\\adapters\\base.py'
p227
sg68
(dp228
S'a'
S"('SELECT  nombre_format, email, fecnac FROM auth_user WHERE (auth_user.id > 0);',)"
p229
sS'self'
p230
S'<pydal.adapters.sqlite.SQLiteAdapter object>'
p231
sS'b'
g21
sS'self.log_execute'
p232
S'<bound method SQLiteAdapter.log_execute of <pydal.adapters.sqlite.SQLiteAdapter object>>'
p233
ssg74
I1388
sg75
(dp234
I1383
S'        self.db._timings.append((command,time.time()-t0))'
p235
sI1384
S'        del self.db._timings[:-TIMINGSSIZE]'
p236
sI1385
S'        return ret'
p237
sI1386
S''
sI1387
S'    def execute(self, *a, **b):'
p238
sI1388
S'        return self.log_execute(*a, **b)'
p239
sI1389
S''
sI1390
S'    def execute_test_query(self):'
p240
sI1391
S'        return self.execute(self.test_query)'
p241
sI1392
S''
ssg87
S"(self=<pydal.adapters.sqlite.SQLiteAdapter object>, *a=('SELECT  nombre_format, email, fecnac FROM auth_user WHERE (auth_user.id > 0);',), **b={})"
p242
sg89
S'execute'
p243
sa(dp244
g66
S'D:\\web2py\\gluon\\packages\\dal\\pydal\\adapters\\base.py'
p245
sg68
(dp246
S'a'
S"('SELECT  nombre_format, email, fecnac FROM auth_user WHERE (auth_user.id > 0);',)"
p247
sS'b'
g21
sS'self'
p248
S'<pydal.adapters.sqlite.SQLiteAdapter object>'
p249
sS'ret'
p250
g101
sS'command'
p251
S"'SELECT  nombre_format, email, fecnac FROM auth_user WHERE (auth_user.id > 0);'"
p252
sS'self.get_cursor'
p253
S'<bound method SQLiteAdapter.get_cursor of <pydal.adapters.sqlite.SQLiteAdapter object>>'
p254
sS').execute'
p255
g101
ssg74
I1382
sg75
(dp256
I1377
S'            command = self.filter_sql_command(command)'
p257
sI1378
S'        if self.db._debug:'
p258
sI1379
S"            self.db.logger.debug('SQL: %s' % command)"
p259
sI1380
S'        self.db._lastsql = command'
p260
sI1381
S'        t0 = time.time()'
p261
sI1382
S'        ret = self.get_cursor().execute(command, *a[1:], **b)'
p262
sI1383
S'        self.db._timings.append((command,time.time()-t0))'
p263
sI1384
S'        del self.db._timings[:-TIMINGSSIZE]'
p264
sI1385
S'        return ret'
p265
sI1386
S''
ssg87
S"(self=<pydal.adapters.sqlite.SQLiteAdapter object>, *a=('SELECT  nombre_format, email, fecnac FROM auth_user WHERE (auth_user.id > 0);',), **b={})"
p266
sg89
S'log_execute'
p267
sasS'pyver'
p268
S'Python 2.7.9: D:\\web2py\\web2py.exe (prefix: )'
p269
sS'session'
p270
g61
(S's\xf7\n\x00\x00<div><table><tr><td style="font-weight:bold;vertical-align:top;">auth</td><td style="vertical-align:top;">:</td><td><div><table><tr><td style="font-weight:bold;vertical-align:top;">expiration</td><td style="vertical-align:top;">:</td><td><div>3600</div></td></tr><tr><td style="font-weight:bold;vertical-align:top;">hmac_key</td><td style="vertical-align:top;">:</td><td><div>f4d380bd-e2cd-4b3f-b7f6-838538e3c01a</div></td></tr><tr><td style="font-weight:bold;vertical-align:top;">last_visit</td><td style="vertical-align:top;">:</td><td><div>datetime.datetime(2019, 5, 8, 13, 23, 21, 975000)</div></td></tr><tr><td style="font-weight:bold;vertical-align:top;">remember_me</td><td style="vertical-align:top;">:</td><td><div>False</div></td></tr><tr><td style="font-weight:bold;vertical-align:top;">user</td><td style="vertical-align:top;">:</td><td><div><table><tr><td style="font-weight:bold;vertical-align:top;">dni</td><td style="vertical-align:top;">:</td><td><div>29917029</div></td></tr><tr><td style="font-weight:bold;vertical-align:top;">email</td><td style="vertical-align:top;">:</td><td><div>juan@ulivar.com</div></td></tr><tr><td style="font-weight:bold;vertical-align:top;">first_name</td><td style="vertical-align:top;">:</td><td><div>juan</div></td></tr><tr><td style="font-weight:bold;vertical-align:top;">id</td><td style="vertical-align:top;">:</td><td><div>1L</div></td></tr><tr><td style="font-weight:bold;vertical-align:top;">iniciales</td><td style="vertical-align:top;">:</td><td><div>J.U.</div></td></tr><tr><td style="font-weight:bold;vertical-align:top;">last_name</td><td style="vertical-align:top;">:</td><td><div>ulivar</div></td></tr><tr><td style="font-weight:bold;vertical-align:top;">oficina</td><td style="vertical-align:top;">:</td><td><div>Super</div></td></tr><tr><td style="font-weight:bold;vertical-align:top;">registration_id</td><td style="vertical-align:top;">:</td><td><div></div></td></tr><tr><td style="font-weight:bold;vertical-align:top;">registration_key</td><td style="vertical-align:top;">:</td><td><div></div></td></tr><tr><td style="font-weight:bold;vertical-align:top;">reset_password_key</td><td style="vertical-align:top;">:</td><td><div></div></td></tr><tr><td style="font-weight:bold;vertical-align:top;">username</td><td style="vertical-align:top;">:</td><td><div>uli</div></td></tr></table></div></td></tr><tr><td style="font-weight:bold;vertical-align:top;">user_groups</td><td style="vertical-align:top;">:</td><td><div><table><tr><td style="font-weight:bold;vertical-align:top;">1</td><td style="vertical-align:top;">:</td><td><div>Super</div></td></tr></table></div></td></tr></table></div></td></tr><tr><td style="font-weight:bold;vertical-align:top;">flash</td><td style="vertical-align:top;">:</td><td><div>None</div></td></tr></table></div>'
tRp271
sS'etype'
p272
S"<class 'sqlite3.OperationalError'>"
p273
sS'date'
p274
S'Wed May 08 13:23:22 2019'
p275
sS'response'
p276
g61
(S's\xe9@\x00\x00<div><table><tr><td style="font-weight:bold;vertical-align:top;">body</td><td style="vertical-align:top;">:</td><td><div>&lt;cStringIO.StringO object at 0x03705C00&gt;</div></td></tr><tr><td style="font-weight:bold;vertical-align:top;">cookies</td><td style="vertical-align:top;">:</td><td><div><table><tr><td style="font-weight:bold;vertical-align:top;">session_id_antecedentesplataforma</td><td style="vertical-align:top;">:</td><td><div>127.0.0.1-0b865203-7955-4e4c-874e-c849b49280be<table><tr><td style="font-weight:bold;vertical-align:top;">comment</td><td style="vertical-align:top;">:</td><td><div></div></td></tr><tr><td style="font-weight:bold;vertical-align:top;">domain</td><td style="vertical-align:top;">:</td><td><div></div></td></tr><tr><td style="font-weight:bold;vertical-align:top;">expires</td><td style="vertical-align:top;">:</td><td><div></div></td></tr><tr><td style="font-weight:bold;vertical-align:top;">httponly</td><td style="vertical-align:top;">:</td><td><div></div></td></tr><tr><td style="font-weight:bold;vertical-align:top;">max-age</td><td style="vertical-align:top;">:</td><td><div></div></td></tr><tr><td style="font-weight:bold;vertical-align:top;">path</td><td style="vertical-align:top;">:</td><td><div>/</div></td></tr><tr><td style="font-weight:bold;vertical-align:top;">secure</td><td style="vertical-align:top;">:</td><td><div></div></td></tr><tr><td style="font-weight:bold;vertical-align:top;">version</td><td style="vertical-align:top;">:</td><td><div></div></td></tr></table></div></td></tr></table></div></td></tr><tr><td style="font-weight:bold;vertical-align:top;">delimiters</td><td style="vertical-align:top;">:</td><td><div><table><tr><td><div>{{</div></td></tr><tr><td><div>}}</div></td></tr></table></div></td></tr><tr><td style="font-weight:bold;vertical-align:top;">files</td><td style="vertical-align:top;">:</td><td><div><table></table></div></td></tr><tr><td style="font-weight:bold;vertical-align:top;">flash</td><td style="vertical-align:top;">:</td><td><div></div></td></tr><tr><td style="font-weight:bold;vertical-align:top;">form_label_separator</td><td style="vertical-align:top;">:</td><td><div></div></td></tr><tr><td style="font-weight:bold;vertical-align:top;">formstyle</td><td style="vertical-align:top;">:</td><td><div>bootstrap3_inline</div></td></tr><tr><td style="font-weight:bold;vertical-align:top;">generic_patterns</td><td style="vertical-align:top;">:</td><td><div><table><tr><td><div>*</div></td></tr></table></div></td></tr><tr><td style="font-weight:bold;vertical-align:top;">google_analytics_id</td><td style="vertical-align:top;">:</td><td><div>None</div></td></tr><tr><td style="font-weight:bold;vertical-align:top;">headers</td><td style="vertical-align:top;">:</td><td><div><table><tr><td style="font-weight:bold;vertical-align:top;">X-Powered-By</td><td style="vertical-align:top;">:</td><td><div>web2py</div></td></tr></table></div></td></tr><tr><td style="font-weight:bold;vertical-align:top;">logo</td><td style="vertical-align:top;">:</td><td><div><a class="navbar-brand" href="http://www.web2py.com/" id="web2py-logo"><b>web<span>2</span>py</b>&trade;&nbsp;</a></div></td></tr><tr><td style="font-weight:bold;vertical-align:top;">menu</td><td style="vertical-align:top;">:</td><td><div><table><tr><td><div><table><tr><td><div>Inicio</div></td></tr><tr><td><div>False</div></td></tr><tr><td><div>/antecedentesplataforma/default/index</div></td></tr><tr><td><div><table></table></div></td></tr></table></div></td></tr><tr><td><div><table><tr><td><div>Mis Sitios</div></td></tr><tr><td><div>False</div></td></tr><tr><td><div>/admin/default/site</div></td></tr></table></div></td></tr><tr><td><div><table><tr><td><div>Esta Aplicaci\xc3\xb3n</div></td></tr><tr><td><div>False</div></td></tr><tr><td><div>#</div></td></tr><tr><td><div><table><tr><td><div><table><tr><td><div>Design</div></td></tr><tr><td><div>False</div></td></tr><tr><td><div>/admin/default/design/antecedentesplataforma</div></td></tr></table></div></td></tr><tr><td><div><li class="divider"></li></div></td></tr><tr><td><div><table><tr><td><div>Controlador</div></td></tr><tr><td><div>False</div></td></tr><tr><td><div>/admin/default/edit/antecedentesplataforma/controllers/imprimir.py</div></td></tr></table></div></td></tr><tr><td><div><table><tr><td><div>Vista</div></td></tr><tr><td><div>False</div></td></tr><tr><td><div>/admin/default/edit/antecedentesplataforma/views/imprimir/con_antecedentes.html</div></td></tr></table></div></td></tr><tr><td><div><table><tr><td><div>Modelo BDD</div></td></tr><tr><td><div>False</div></td></tr><tr><td><div>/admin/default/edit/antecedentesplataforma/models/db.py</div></td></tr></table></div></td></tr><tr><td><div><table><tr><td><div>Modelo "menu"</div></td></tr><tr><td><div>False</div></td></tr><tr><td><div>/admin/default/edit/antecedentesplataforma/models/menu.py</div></td></tr></table></div></td></tr><tr><td><div><table><tr><td><div>Config.ini</div></td></tr><tr><td><div>False</div></td></tr><tr><td><div>/admin/default/edit/antecedentesplataforma/private/appconfig.ini</div></td></tr></table></div></td></tr><tr><td><div><table><tr><td><div>Dise\xc3\xb1o de p\xc3\xa1gina</div></td></tr><tr><td><div>False</div></td></tr><tr><td><div>/admin/default/edit/antecedentesplataforma/views/layout.html</div></td></tr></table></div></td></tr><tr><td><div><table><tr><td><div>Hoja de estilo</div></td></tr><tr><td><div>False</div></td></tr><tr><td><div>/admin/default/edit/antecedentesplataforma/static/css/web2py-bootstrap3.css</div></td></tr></table></div></td></tr><tr><td><div><table><tr><td><div>Base de datos</div></td></tr><tr><td><div>False</div></td></tr><tr><td><div>/antecedentesplataforma/appadmin/index</div></td></tr></table></div></td></tr><tr><td><div><table><tr><td><div>Errores</div></td></tr><tr><td><div>False</div></td></tr><tr><td><div>/admin/default/errors/antecedentesplataforma</div></td></tr></table></div></td></tr><tr><td><div><table><tr><td><div>Acerca de</div></td></tr><tr><td><div>False</div></td></tr><tr><td><div>/admin/default/about/antecedentesplataforma</div></td></tr></table></div></td></tr></table></div></td></tr></table></div></td></tr><tr><td><div><table><tr><td><div>web2py.com</div></td></tr><tr><td><div>False</div></td></tr><tr><td><div>#</div></td></tr><tr><td><div><table><tr><td><div><table><tr><td><div>Descargas</div></td></tr><tr><td><div>False</div></td></tr><tr><td><div>http://www.web2py.com/examples/default/download</div></td></tr></table></div></td></tr><tr><td><div><table><tr><td><div>Soporte</div></td></tr><tr><td><div>False</div></td></tr><tr><td><div>http://www.web2py.com/examples/default/support</div></td></tr></table></div></td></tr><tr><td><div><table><tr><td><div>Demostraci\xc3\xb3n</div></td></tr><tr><td><div>False</div></td></tr><tr><td><div>http://web2py.com/demo_admin</div></td></tr></table></div></td></tr><tr><td><div><table><tr><td><div>Ejemplos R\xc3\xa1pidos</div></td></tr><tr><td><div>False</div></td></tr><tr><td><div>http://web2py.com/examples/default/examples</div></td></tr></table></div></td></tr><tr><td><div><table><tr><td><div>FAQ</div></td></tr><tr><td><div>False</div></td></tr><tr><td><div>http://web2py.com/AlterEgo</div></td></tr></table></div></td></tr><tr><td><div><table><tr><td><div>V\xc3\xaddeos</div></td></tr><tr><td><div>False</div></td></tr><tr><td><div>http://www.web2py.com/examples/default/videos/</div></td></tr></table></div></td></tr><tr><td><div><table><tr><td><div>Aplicaciones Libres</div></td></tr><tr><td><div>False</div></td></tr><tr><td><div>http://web2py.com/appliances</div></td></tr></table></div></td></tr><tr><td><div><table><tr><td><div>Plugins</div></td></tr><tr><td><div>False</div></td></tr><tr><td><div>http://web2py.com/plugins</div></td></tr></table></div></td></tr><tr><td><div><table><tr><td><div>Recetas</div></td></tr><tr><td><div>False</div></td></tr><tr><td><div>http://web2pyslices.com/</div></td></tr></table></div></td></tr></table></div></td></tr></table></div></td></tr><tr><td><div><table><tr><td><div>Documentaci\xc3\xb3n</div></td></tr><tr><td><div>False</div></td></tr><tr><td><div>#</div></td></tr><tr><td><div><table><tr><td><div><table><tr><td><div>Online book</div></td></tr><tr><td><div>False</div></td></tr><tr><td><div>http://www.web2py.com/book</div></td></tr></table></div></td></tr><tr><td><div><li class="divider"></li></div></td></tr><tr><td><div><table><tr><td><div>Prefacio</div></td></tr><tr><td><div>False</div></td></tr><tr><td><div>http://www.web2py.com/book/default/chapter/00</div></td></tr></table></div></td></tr><tr><td><div><table><tr><td><div>Introducci\xc3\xb3n</div></td></tr><tr><td><div>False</div></td></tr><tr><td><div>http://www.web2py.com/book/default/chapter/01</div></td></tr></table></div></td></tr><tr><td><div><table><tr><td><div>Python</div></td></tr><tr><td><div>False</div></td></tr><tr><td><div>http://www.web2py.com/book/default/chapter/02</div></td></tr></table></div></td></tr><tr><td><div><table><tr><td><div>Resumen</div></td></tr><tr><td><div>False</div></td></tr><tr><td><div>http://www.web2py.com/book/default/chapter/03</div></td></tr></table></div></td></tr><tr><td><div><table><tr><td><div>El N\xc3\xbacleo</div></td></tr><tr><td><div>False</div></td></tr><tr><td><div>http://www.web2py.com/book/default/chapter/04</div></td></tr></table></div></td></tr><tr><td><div><table><tr><td><div>Las Vistas</div></td></tr><tr><td><div>False</div></td></tr><tr><td><div>http://www.web2py.com/book/default/chapter/05</div></td></tr></table></div></td></tr><tr><td><div><table><tr><td><div>Base de datos</div></td></tr><tr><td><div>False</div></td></tr><tr><td><div>http://www.web2py.com/book/default/chapter/06</div></td></tr></table></div></td></tr><tr><td><div><table><tr><td><div>Formularios y validadores</div></td></tr><tr><td><div>False</div></td></tr><tr><td><div>http://www.web2py.com/book/default/chapter/07</div></td></tr></table></div></td></tr><tr><td><div><table><tr><td><div>Correo electr\xc3\xb3nico y SMS</div></td></tr><tr><td><div>False</div></td></tr><tr><td><div>http://www.web2py.com/book/default/chapter/08</div></td></tr></table></div></td></tr><tr><td><div><table><tr><td><div>Control de Acceso</div></td></tr><tr><td><div>False</div></td></tr><tr><td><div>http://www.web2py.com/book/default/chapter/09</div></td></tr></table></div></td></tr><tr><td><div><table><tr><td><div>Servicios</div></td></tr><tr><td><div>False</div></td></tr><tr><td><div>http://www.web2py.com/book/default/chapter/10</div></td></tr></table></div></td></tr><tr><td><div><table><tr><td><div>Recetas AJAX</div></td></tr><tr><td><div>False</div></td></tr><tr><td><div>http://www.web2py.com/book/default/chapter/11</div></td></tr></table></div></td></tr><tr><td><div><table><tr><td><div>Componentes y Plugins</div></td></tr><tr><td><div>False</div></td></tr><tr><td><div>http://www.web2py.com/book/default/chapter/12</div></td></tr></table></div></td></tr><tr><td><div><table><tr><td><div>Recetas de despliegue</div></td></tr><tr><td><div>False</div></td></tr><tr><td><div>http://www.web2py.com/book/default/chapter/13</div></td></tr></table></div></td></tr><tr><td><div><table><tr><td><div>Otras Recetas</div></td></tr><tr><td><div>False</div></td></tr><tr><td><div>http://www.web2py.com/book/default/chapter/14</div></td></tr></table></div></td></tr><tr><td><div><table><tr><td><div>Helping web2py</div></td></tr><tr><td><div>False</div></td></tr><tr><td><div>http://www.web2py.com/book/default/chapter/15</div></td></tr></table></div></td></tr><tr><td><div><table><tr><td><div>Buy web2py\'s book</div></td></tr><tr><td><div>False</div></td></tr><tr><td><div>http://stores.lulu.com/web2py</div></td></tr></table></div></td></tr></table></div></td></tr></table></div></td></tr><tr><td><div><table><tr><td><div>Comunidad</div></td></tr><tr><td><div>False</div></td></tr><tr><td><div>None</div></td></tr><tr><td><div><table><tr><td><div><table><tr><td><div>Grupos</div></td></tr><tr><td><div>False</div></td></tr><tr><td><div>http://www.web2py.com/examples/default/usergroups</div></td></tr></table></div></td></tr><tr><td><div><table><tr><td><div>Twitter</div></td></tr><tr><td><div>False</div></td></tr><tr><td><div>http://twitter.com/web2py</div></td></tr></table></div></td></tr><tr><td><div><table><tr><td><div>Chat en vivo</div></td></tr><tr><td><div>False</div></td></tr><tr><td><div>http://webchat.freenode.net/?channels=web2py</div></td></tr></table></div></td></tr></table></div></td></tr></table></div></td></tr></table></div></td></tr><tr><td style="font-weight:bold;vertical-align:top;">meta</td><td style="vertical-align:top;">:</td><td><div><table><tr><td style="font-weight:bold;vertical-align:top;">author</td><td style="vertical-align:top;">:</td><td><div>Your Name &lt;you@example.com&gt;</div></td></tr><tr><td style="font-weight:bold;vertical-align:top;">description</td><td style="vertical-align:top;">:</td><td><div>a cool new app</div></td></tr><tr><td style="font-weight:bold;vertical-align:top;">generator</td><td style="vertical-align:top;">:</td><td><div>Web2py Web Framework</div></td></tr><tr><td style="font-weight:bold;vertical-align:top;">keywords</td><td style="vertical-align:top;">:</td><td><div><table><tr><td><div>web2py</div></td></tr><tr><td><div>python</div></td></tr><tr><td><div>framework</div></td></tr></table></div></td></tr></table></div></td></tr><tr><td style="font-weight:bold;vertical-align:top;">models_to_run</td><td style="vertical-align:top;">:</td><td><div><table><tr><td><div>^\\w+\\.py$</div></td></tr><tr><td><div>^imprimir/\\w+\\.py$</div></td></tr><tr><td><div>^imprimir/con_antecedentes/\\w+\\.py$</div></td></tr></table></div></td></tr><tr><td style="font-weight:bold;vertical-align:top;">postprocessing</td><td style="vertical-align:top;">:</td><td><div><table></table></div></td></tr><tr><td style="font-weight:bold;vertical-align:top;">session_client</td><td style="vertical-align:top;">:</td><td><div>127.0.0.1</div></td></tr><tr><td style="font-weight:bold;vertical-align:top;">session_cookie_compression_level</td><td style="vertical-align:top;">:</td><td><div>None</div></td></tr><tr><td style="font-weight:bold;vertical-align:top;">session_cookie_expires</td><td style="vertical-align:top;">:</td><td><div>None</div></td></tr><tr><td style="font-weight:bold;vertical-align:top;">session_data_name</td><td style="vertical-align:top;">:</td><td><div>session_data_antecedentesplataforma</div></td></tr><tr><td style="font-weight:bold;vertical-align:top;">session_file</td><td style="vertical-align:top;">:</td><td><div>&lt;open file &#x27;D:\\\\web2py\\\\applications\\\\antecedentesplataforma\\\\sessions\\\\063\\\\1c8\\\\127.0.0.1-0b865203-7955-4e4c-874e-c849b49280be&#x27;, mode &#x27;rb+&#x27; at 0x036D3180&gt;</div></td></tr><tr><td style="font-weight:bold;vertical-align:top;">session_filename</td><td style="vertical-align:top;">:</td><td><div>D:\\web2py\\applications\\antecedentesplataforma\\sessions\\127.0.0.1-0b865203-7955-4e4c-874e-c849b49280be</div></td></tr><tr><td style="font-weight:bold;vertical-align:top;">session_hash</td><td style="vertical-align:top;">:</td><td><div>782e7be8d69f31597b4cfa3b9e894649</div></td></tr><tr><td style="font-weight:bold;vertical-align:top;">session_id</td><td style="vertical-align:top;">:</td><td><div>127.0.0.1-0b865203-7955-4e4c-874e-c849b49280be</div></td></tr><tr><td style="font-weight:bold;vertical-align:top;">session_id_name</td><td style="vertical-align:top;">:</td><td><div>session_id_antecedentesplataforma</div></td></tr><tr><td style="font-weight:bold;vertical-align:top;">session_locked</td><td style="vertical-align:top;">:</td><td><div>True</div></td></tr><tr><td style="font-weight:bold;vertical-align:top;">session_masterapp</td><td style="vertical-align:top;">:</td><td><div>antecedentesplataforma</div></td></tr><tr><td style="font-weight:bold;vertical-align:top;">session_new</td><td style="vertical-align:top;">:</td><td><div>False</div></td></tr><tr><td style="font-weight:bold;vertical-align:top;">session_storage_type</td><td style="vertical-align:top;">:</td><td><div>file</div></td></tr><tr><td style="font-weight:bold;vertical-align:top;">status</td><td style="vertical-align:top;">:</td><td><div>200</div></td></tr><tr><td style="font-weight:bold;vertical-align:top;">subtitle</td><td style="vertical-align:top;">:</td><td><div></div></td></tr><tr><td style="font-weight:bold;vertical-align:top;">title</td><td style="vertical-align:top;">:</td><td><div>Listado Inscriptos (General)</div></td></tr><tr><td style="font-weight:bold;vertical-align:top;">view</td><td style="vertical-align:top;">:</td><td><div>imprimir/con_antecedentes.html</div></td></tr></table></div>'
tRp277
sS'locals'
p278
(dp279
S'a'
S"('SELECT  nombre_format, email, fecnac FROM auth_user WHERE (auth_user.id > 0);',)"
p280
sS'self'
p281
S'<pydal.adapters.sqlite.SQLiteAdapter object>'
p282
sS'b'
g21
sS'command'
p283
S"'SELECT  nombre_format, email, fecnac FROM auth_user WHERE (auth_user.id > 0);'"
p284
sS't0'
p285
S'1557332602.068'
p286
sssS'traceback'
p287
S'Traceback (most recent call last):\n  File "D:\\web2py\\gluon\\restricted.py", line 227, in restricted\n    exec ccode in environment\n  File "D:\\web2py\\applications\\antecedentesplataforma\\controllers/imprimir.py", line 180, in <module>\n  File "D:\\web2py\\gluon\\globals.py", line 417, in <lambda>\n    self._caller = lambda f: f()\n  File "D:\\web2py\\applications\\antecedentesplataforma\\controllers/imprimir.py", line 99, in con_antecedentes\n    registros = db(db.auth_user.id>0).select(\'nombre_format\',\'email\',\'fecnac\')\n  File "D:\\web2py\\gluon\\packages\\dal\\pydal\\objects.py", line 2020, in select\n    return adapter.select(self.query, fields, attributes)\n  File "D:\\web2py\\gluon\\packages\\dal\\pydal\\adapters\\sqlite.py", line 123, in select\n    return super(SQLiteAdapter, self).select(query, fields, attributes)\n  File "D:\\web2py\\gluon\\packages\\dal\\pydal\\adapters\\base.py", line 1296, in select\n    return self._select_aux(sql,fields,attributes)\n  File "D:\\web2py\\gluon\\packages\\dal\\pydal\\adapters\\base.py", line 1253, in _select_aux\n    self.execute(sql)\n  File "D:\\web2py\\gluon\\packages\\dal\\pydal\\adapters\\base.py", line 1388, in execute\n    return self.log_execute(*a, **b)\n  File "D:\\web2py\\gluon\\packages\\dal\\pydal\\adapters\\base.py", line 1382, in log_execute\n    ret = self.get_cursor().execute(command, *a[1:], **b)\nOperationalError: no such column: nombre_format\n'
p288
s.