(dp1
S'output'
p2
S'Unable to open included view file: D:\\web2py\\applications\\antecedentesplataforma\\views\\layout1.html'
p3
sS'layer'
p4
S'ParserContainer'
p5
sS'code'
p6
S'{{extend \'layout1.html\'}}\r\n\r\n\r\n<style>\r\n\r\n  div.dataTables_wrapper div.dataTables_info {\r\n    padding-top: 50px;\r\n    white-space: nowrap;\r\n}\r\n\r\ndiv.dataTables_wrapper div.dataTables_paginate {\r\n    margin: 0;\r\n    white-space: nowrap;\r\n    text-align: right;\r\n    padding-top: 70px;\r\n\r\n\r\n}\r\n\r\n.pagination {\r\n    display: -ms-flexbox;\r\n    display: inline-flex;\r\n    padding-left: 0;\r\n    list-style: none;\r\n    border-radius: .25rem;\r\n}\r\n\r\n</style>\r\n\r\n\r\n\r\n\r\n\r\n\r\n\r\n\r\n{{block header}}\r\n    <h2>P\xc3\xa1gina de Inicio - Sistema de Expedientes</h2>\r\n    <ol class="breadcrumb">\r\n      <li class="breadcrumb-item">\r\n        <a href="{{=URL(c=\'default\',f=\'index\')}}">Home</a>\r\n      </li>\r\n      <li class="breadcrumb-item active">\r\n        <strong>Inicio</strong>\r\n      </li>\r\n    </ol>\r\n{{end}}\r\n\r\n\r\n\r\n\r\n                  \r\n\r\n\r\n<h3 class="animated fadeInUp">Panel de Administraci\xc3\xb3n</h3>\r\n<br>\r\n\r\n\r\n\r\n<div class="row animated fadeInRightBig">\r\n  <div class="col-lg-2">\r\n    <div class="widget style1 navy-bg">\r\n      <div class="row vertical-align">\r\n        <div class="col-2">\r\n          <i class="fa fa-check-square-o fa-2x"></i>\r\n        </div>\r\n        <div class="col-10 text-right">\r\n          <h5 class="font-bold"><a href="{{=URL(\'asesoria\', \'ingreso\')}}" style="color: #FFF">Alta de Expediente</a></h5>\r\n        </div>\r\n      </div>\r\n    </div>\r\n  </div>\r\n  <div class="col-lg-2">\r\n    <div class="widget style1 red-bg">\r\n      <div class="row vertical-align">\r\n        <div class="col-2">\r\n          <i class="fa fa-chevron-up fa-2x"></i>\r\n        </div>\r\n        <div class="col-10 text-right">\r\n          <h5 class="font-bold"><a href="{{=URL(\'asesoria\', \'egreso\')}}" style="color: #FFF">Salida de Expediente</a></h5>\r\n        </div>\r\n      </div>\r\n    </div>\r\n  </div>\r\n  <div class="col-lg-2">\r\n    <div class="widget style1 blue-bg">\r\n      <div class="row vertical-align">\r\n        <div class="col-2">\r\n          <i class="fa fa-binoculars fa-2x"></i>\r\n        </div>\r\n        <div class="col-10 text-right">\r\n          <h5 class="font-bold"><a href="{{=URL(\'asesoria\', \'historial\')}}" style="color: #FFF">Historial</a></h5>\r\n        </div>\r\n      </div>\r\n    </div>\r\n  </div>\r\n\r\n   <div class="col-lg-2">\r\n    <div class="widget style1 yellow-bg">\r\n      <div class="row vertical-align">\r\n        <div class="col-2">\r\n          <i class="fa fa-edit fa-2x"></i>\r\n        </div>\r\n        <div class="col-10 text-right">\r\n          <h5 class="font-bold"><a href="{{=URL(\'asesoria\', \'editar_expe\')}}" style="color: #FFF">Editar</a></h5>\r\n        </div>\r\n      </div>\r\n    </div>\r\n  </div>\r\n  <div class="col-lg-2">\r\n    <div class="widget style1 popo-bg">\r\n      <div class="row vertical-align">\r\n        <div class="col-2">\r\n          <i class="fa fa-eye fa-2x"></i>\r\n        </div>\r\n        <div class="col-10 text-right">\r\n          <h5 class="font-bold"><a href="{{=URL(\'asesoria\', \'consultas\')}}" style="color: #FFF">Consultas</a></h5>\r\n        </div>\r\n      </div>\r\n    </div>\r\n  </div>\r\n  \r\n  <div class="col-lg-2">\r\n    <div class="widget style1 black-bg">\r\n      <div class="row vertical-align">\r\n        <div class="col-2">\r\n          <i class="fa fa-user-circle-o fa-2x"></i>\r\n        </div>\r\n        <div class="col-10 text-right">\r\n          <h5 class="font-bold"><a href="{{=URL(\'asesoria\', \'usuario_letrada\')}}" style="color: #FFF">Usuarios</a></h5>\r\n        </div>\r\n      </div>\r\n    </div>\r\n  </div>\r\n</div>\r\n\r\n\r\n\r\n<!------------------------------- -->\r\n<!------------------------------- -->\r\n<br>\r\n<br>\r\n<br>\r\n\r\n\r\n<h3 class="animated fadeInUp">Listado de Expedientes - A\xc3\xb1o: {{=ano_actual}}</h3>\r\n\r\n\r\n\r\n<div class="ibox-content">\r\n  <br><br>\r\n  <div class="table-responsive">\r\n\r\n    <div class="well">\r\n      <table class="table table-striped" id="myTable">\r\n        <thead>\r\n          <tr>\r\n            <th>Letra</th>\r\n            <th>N\xc3\xbamero</th>\r\n            <th>A\xc3\xb1o</th>\r\n            <th>Origen</th>\r\n            <th>Causa</th>\r\n            <th>Causante</th>\r\n            <th>Tr\xc3\xa1mite</th>\r\n           \r\n            <th></th>\r\n\r\n          </tr>\r\n        </thead>\r\n        <tbody>\r\n\r\n        </tbody>\r\n      </table>\r\n    </div>\r\n  </div>\r\n \r\n  <hr>\r\n \r\n\r\n</div>\r\n\r\n<br>\r\n\r\n\r\n\r\n\r\n<script src="https://cdnjs.cloudflare.com/ajax/libs/jquery/3.2.1/jquery.js" type="text/javascript" ></script>\r\n<script src="https://cdn.datatables.net/1.10.19/js/jquery.dataTables.min.js" type="text/javascript" ></script>\r\n\r\n\r\n<script>\r\n       \r\n\r\n    $(document).ready( function () {\r\n\r\n        $.extend(true, $.fn.dataTable.defaults,{\r\n            "info":true,\r\n            "paging": true,\r\n            "ordering":true,\r\n            "searching": true,\r\n            "language": {\r\n                "url": "Spanish.json",\r\n                \r\n            },\r\n            lengthMenu: [\r\n                [10,20,50,100,500,-1], [10,20,50,100,500,\'Todos\']\r\n            ]\r\n\r\n        });\r\n\r\n        table=$(\'#myTable\').DataTable({\r\n            "stateSave": false,\r\n            "scrollY": "40vh",\r\n            "paging": true,\r\n           /* "ajax": {\r\n                "url": "[=XML(mf)]",\r\n                "dataSrc": "" // Con esto puedo cargar el jason sin que tenga el {"data": ...}\r\n            },*/\r\n\r\n            "data": {{=XML(er)}}, // Aqui se puede ver que puedo cargar el jason puro en una variable y luego usar esa variable*/\r\n\r\n            \r\n      "columns":[\r\n        {name:"letra", data:"letra"},\r\n        {name:"numero", data:"numero"},\r\n        {name:"ano", data:"ano"},\r\n        {name:"origen", data:"origen"},\r\n        {name:"causa", data:"causa"},\r\n        {name:"causante", data:"causante"},\r\n        {name:"tramite", data:"tramite"},\r\n       \r\n        {defaultContent: \'<button type="button" class="detalle btn btn-info btn-xs">Ver detalles</button>\'}\r\n      ],\r\n\r\n\r\n        });\r\n\r\n        $(\'#myTable tbody\').on( \'click\', \'button.editar\', function(){\r\n                var data = table.row( $(this).parents(\'tr\')).data();\r\n                var url = \'{{=URL(c=\'usuario\', f=\'editar\')}}\' + \'/\' + data.id;\r\n                window.location = url\r\n               \r\n                \r\n            });\r\n\r\n        $(\'#myTable tbody\').on( \'click\', \'button.detalle\', function(){\r\n                var data = table.row( $(this).parents(\'tr\')).data();\r\n                var url = \'{{=URL(c=\'asesoria\', f=\'detalle_actual\')}}\' + \'/\' + data.letra + \'/\' + data.numero + \'/\' + data.ano + \'/\' + data.id;\r\n                window.location = url\r\n               \r\n                \r\n            });\r\n\r\n        } );\r\n\r\n      \r\n\r\n        \r\n  </script>'
p7
sS'snapshot'
p8
(dp9
S'exception'
p10
(dp11
S'__getslice__'
p12
S"<method-wrapper '__getslice__' of exceptions.IOError object>"
p13
sS'__str__'
p14
S"<method-wrapper '__str__' of exceptions.IOError object>"
p15
sS'__reduce__'
p16
S'<built-in method __reduce__ of exceptions.IOError object>'
p17
sS'__dict__'
p18
S'{}'
p19
sS'__sizeof__'
p20
S'<built-in method __sizeof__ of exceptions.IOError object>'
p21
sS'__init__'
p22
S"<method-wrapper '__init__' of exceptions.IOError object>"
p23
sS'__setattr__'
p24
S"<method-wrapper '__setattr__' of exceptions.IOError object>"
p25
sS'__reduce_ex__'
p26
S'<built-in method __reduce_ex__ of exceptions.IOError object>'
p27
sS'__new__'
p28
S'<built-in method __new__ of type object>'
p29
sS'errno'
p30
S'2'
sS'__format__'
p31
S'<built-in method __format__ of exceptions.IOError object>'
p32
sS'__class__'
p33
S"<type 'exceptions.IOError'>"
p34
sS'filename'
p35
S"r'D:\\web2py\\applications\\antecedentesplataforma\\views\\layout1.html'"
p36
sS'__doc__'
p37
S"'I/O operation failed.'"
p38
sS'__getitem__'
p39
S"<method-wrapper '__getitem__' of exceptions.IOError object>"
p40
sS'__setstate__'
p41
S'<built-in method __setstate__ of exceptions.IOError object>'
p42
sS'__getattribute__'
p43
S"<method-wrapper '__getattribute__' of exceptions.IOError object>"
p44
sS'args'
p45
S"(2, 'No such file or directory')"
p46
sS'__subclasshook__'
p47
S'<built-in method __subclasshook__ of type object>'
p48
sS'__unicode__'
p49
S'<built-in method __unicode__ of exceptions.IOError object>'
p50
sS'strerror'
p51
S"'No such file or directory'"
p52
sS'__delattr__'
p53
S"<method-wrapper '__delattr__' of exceptions.IOError object>"
p54
sS'__repr__'
p55
S"<method-wrapper '__repr__' of exceptions.IOError object>"
p56
sS'__hash__'
p57
S"<method-wrapper '__hash__' of exceptions.IOError object>"
p58
ssS'evalue'
p59
S"[Errno 2] No such file or directory: 'D:\\\\web2py\\\\applications\\\\antecedentesplataforma\\\\views\\\\layout1.html'"
p60
sS'frames'
p61
(lp62
(dp63
S'file'
p64
S'D:\\web2py\\gluon\\template.py'
p65
sS'dump'
p66
(dp67
S'builtinopen'
p68
S'<built-in function open>'
p69
sS'fileobj'
p70
S'undefined'
p71
sS'filepath'
p72
S"r'D:\\web2py\\applications\\antecedentesplataforma\\views\\layout1.html'"
p73
ssS'lnum'
p74
I450
sS'lines'
p75
(dp76
I448
S'        # try to read the text.'
p77
sI449
S'        try:'
p78
sI450
S"            fileobj = open(filepath, 'rb')"
p79
sI451
S'            text = fileobj.read()'
p80
sI452
S'            fileobj.close()'
p81
sI453
S'        except IOError:'
p82
sI454
S"            self._raise_error('Unable to open included view file: ' + filepath)"
p83
sI445
S'        # Get the path of the file on the system.'
p84
sI446
S'        filepath = self.path and os.path.join(self.path, filename) or filename'
p85
sI447
S''
ssS'call'
p86
S"(self=<gluon.template.TemplateParser object>, filename='layout1.html')"
p87
sS'func'
p88
S'_get_file_text'
p89
sasS'pyver'
p90
S'Python 2.7.9: D:\\web2py\\web2py.exe (prefix: )'
p91
sS'etype'
p92
S"<type 'exceptions.IOError'>"
p93
sS'date'
p94
S'Tue Mar 19 19:01:47 2019'
p95
sS'locals'
p96
(dp97
S'self'
p98
S'<gluon.template.TemplateParser object>'
p99
sS'filepath'
p100
S"r'D:\\web2py\\applications\\antecedentesplataforma\\views\\layout1.html'"
p101
sS'context'
p102
S"{'A': <class 'gluon.html.A'>, 'ANY_OF': <class 'gluon.validators.ANY_OF'>, 'ASSIGNJS': <function ASSIGNJS>, 'AppConfig': <function AppConfig>, 'Auth': <class 'gluon.tools.Auth'>, 'B': <class 'gluon.html.B'>, 'BEAUTIFY': <class 'gluon.html.BEAUTIFY'>, 'BODY': <class 'gluon.html.BODY'>, 'BR': <class 'gluon.html.BR'>, 'BUTTON': <class 'gluon.html.BUTTON'>, ...}"
p103
sg35
S"'layout1.html'"
p104
sssS'traceback'
p105
S'Traceback (most recent call last):\n  File "D:\\web2py\\gluon\\template.py", line 450, in _get_file_text\n    fileobj = open(filepath, \'rb\')\nIOError: [Errno 2] No such file or directory: \'D:\\\\web2py\\\\applications\\\\antecedentesplataforma\\\\views\\\\layout1.html\'\n'
p106
s.