(dp1
S'output'
p2
S"<type 'exceptions.AttributeError'> 'NoneType' object has no attribute 'first_name'"
p3
sS'layer'
p4
S'D:\\web2py\\applications\\antecedentesplataforma\\views\\padron/form_modificar.html'
p5
sS'code'
p6
S'response.write(\'<!DOCTYPE html>\\n<html>\\n<script src="\', escape=False)\nresponse.write(URL(\'static\', \'assets/js/swit-alert.js\'))\nresponse.write(\'"></script> \\n\\n\\n<!-- Mirrored from webapplayers.com/inspinia_admin-v2.8/empty_page.html by HTTrack Website Copier/3.x [XR&CO\\\'2014], Fri, 29 Jun 2018 13:54:48 GMT -->\\n<head>\\n\\n    <meta charset="utf-8">\\n    <meta name="viewport" content="width=device-width, initial-scale=1.0">\\n\\n    <title>Polic\\xc3\\xada de Catamarca | Sistema de Confeccion</title>\\n\\n    <link href="\', escape=False)\nresponse.write(URL(\'static\', \'assets/css/bootstrap.min.css\'))\nresponse.write(\'" rel="stylesheet">\\n    <link href="\', escape=False)\nresponse.write(URL(\'static\', \'assets/font-awesome/css/font-awesome.css\' ))\nresponse.write(\'" rel="stylesheet">\\n\\n    <link href="\', escape=False)\nresponse.write(URL(\'static\', \'assets/css/plugins/dataTables/datatables.min.css\'))\nresponse.write(\'" rel="stylesheet">\\n\\n    <link href="\', escape=False)\nresponse.write(URL(\'static\', \'assets/css/animate.css\' ))\nresponse.write(\'" rel="stylesheet">\\n    <link href="\', escape=False)\nresponse.write(URL(\'static\', \'assets/css/style.css\' ))\nresponse.write(\'" rel="stylesheet">\\n\\n</head>\\n\\n<body class="">\\n\\n    <div id="wrapper">\\n\\n    <nav class="navbar-default navbar-static-side" role="navigation">\\n        <div class="sidebar-collapse">\\n            <ul class="nav metismenu" id="side-menu">\\n                <li class="nav-header">\\n                    <div class="dropdown profile-element">\\n                        <img alt="image" class="rounded-circle" src="\', escape=False)\nresponse.write(URL(\'static\', \'assets/img/user.png\'))\nresponse.write(\'"/>\\n                        <a data-toggle="dropdown" class="dropdown-toggle" href="#">\\n                            <span class="block m-t-xs font-bold"></span>\\n                            <span class="text-muted text-xs block"> \', escape=False)\nresponse.write(str.upper(auth.user.first_name))\nresponse.write(\'&nbsp;<b class="caret"></b></span>\\n                        </a>\\n                        <ul class="dropdown-menu animated fadeInRight m-t-xs">\\n                            <li><a class="dropdown-item" href="profile.html">\', escape=False)\nresponse.write(str.upper(auth.user.first_name))\nresponse.write(\'</a></li>\\n                            <li><a class="dropdown-item" href="contacts.html">Cambiar Contrase\\xc3\\xb1a</a></li>\\n                            \\n                            <li class="dropdown-divider"></li>\\n                            <li><a class="dropdown-item" href="\', escape=False)\nresponse.write(URL(\'default\', \'user\', args=(\'logout\')))\nresponse.write(\'">Salir</a></li>\\n                        </ul>\\n                    </div>\\n                    <div class="logo-element">\\n                        D4\\n                    </div>\\n                </li>\\n               \\n               \', escape=False)\nif auth.user.oficina == \'Super\' :\n    response.write(\' \\n                <li>\\n                        <a href="#"><i class="fa fa-plus-square-o"></i> <span class="nav-label">Sistema Confeccion </span><span class="fa arrow"></span></a>\\n                        <ul class="nav nav-second-level collapse">\\n\\n\\n                            <li>\\n                                <a href="#" id="damian"><i class="fa fa-laptop"></i>Mesa de entrada <span class="fa arrow"></span></a>\\n                                <ul class="nav nav-third-level">\\n                                    <li><a href="\', escape=False)\n    response.write(URL(\'entrada\', \'ingreso\'))\n    response.write(\'">Generar Solicitud</a></li>\\n                                    <li><a href="\', escape=False)\n    response.write(URL(\'entrada\', \'form_ver_estado\'))\n    response.write(\'">Ver Estado</a></li>                              \\n                                    <li><a href="\', escape=False)\n    response.write(URL(\'entrega\', \'entrega\'))\n    response.write(\'">Entregar certicado</a></li>\\n                                    \\n                                </ul>\\n                            </li>\\n                            <li><a href="#"><i class="fa fa-folder-open"></i>Archivo<span class="fa arrow"></span></a>\\n                                <ul class="nav nav-third-level">\\n                                    <li><a href="\', escape=False)\n    response.write(URL(\'archivo\', \'form_archivo\'))\n    response.write(\'">Archivo</a></li>\\n                                   \\n\\n                                </ul>\\n                            </li>\\n                            \\n                            <li>\\n                                <a href="#"><i class="fa fa-newspaper-o"></i>Confecci\\xc3\\xb2n<span class="fa arrow"></span></a>\\n                                <ul class="nav nav-third-level">\\n                                    <li><a href="\', escape=False)\n    response.write(URL(\'confeccion\', \'por_sistema\'))\n    response.write(\'">Imprimir ingresados por Sistema</a></li>\\n                                    <li><a href="\', escape=False)\n    response.write(URL(\'confeccion\', \'modificar_padron\'))\n    response.write(\'">Modificar datos del solicitante</a></li>\\n                                    <li><a href="\', escape=False)\n    response.write(URL(\'confeccion\', \'reimprimir\'))\n    response.write(\'">Certificados Impresos</a></li>\\n                                    <li><a href="\', escape=False)\n    response.write(URL(\'confeccion\', \'historial\'))\n    response.write(\'">Configurar margenes</a></li> \\n                                    \\n\\n                                </ul>\\n                            </li>\\n                            \\n                           \\n                            <li>\\n                                <a href="#"><i class="fa fa-user-circle-o"></i>Usuarios<span class="fa arrow"></span></a>\\n                                <ul class="nav nav-third-level">\\n                                    <li><a href="\', escape=False)\n    response.write(URL(\'asesoria\', \'usuario_letrada\'))\n    response.write(\'">Listado</a></li>\\n\\n                                </ul>\\n                            </li>\\n                           \\n                        </ul>\\n                    </li>\\n                \\n                \', escape=False)\n    pass\nresponse.write(\'\\n               \\n                \', escape=False)\nif auth.user.oficina == \'Super\' or auth.user.oficina == \'Confeccion\':\n    response.write(\'\\n                <li>\\n                        <a href="#"><i class="fa fa-plus-square-o"></i> <span class="nav-label">Sistema Confeccion </span><span class="fa arrow"></span></a>\\n                        <ul class="nav nav-second-level collapse">\\n\\n\\n                            <li>\\n                                <a href="#" id="damian"><i class="fa fa-laptop"></i>Mesa de entrada <span class="fa arrow"></span></a>\\n                                <ul class="nav nav-third-level">\\n                                    <li><a href="\', escape=False)\n    response.write(URL(\'entrada\', \'ingreso\'))\n    response.write(\'">Generar Solicitud</a></li>\\n                                    <li><a href="\', escape=False)\n    response.write(URL(\'entrada\', \'form_ver_estado\'))\n    response.write(\'">Ver Estado</a></li>                              \\n                                    <li><a href="\', escape=False)\n    response.write(URL(\'entrega\', \'entrega\'))\n    response.write(\'">Entregar certicado</a></li>\\n                                    \\n                                </ul>\\n                            </li>\\n                            <li><a href="#"><i class="fa fa-folder-open"></i>Archivo<span class="fa arrow"></span></a>\\n                                <ul class="nav nav-third-level">\\n                                    <li><a href="\', escape=False)\n    response.write(URL(\'archivo\', \'form_archivo\'))\n    response.write(\'">Archivo</a></li>\\n                                   \\n\\n                                </ul>\\n                            </li>\\n                            \\n                            <li>\\n                                <a href="#"><i class="fa fa-newspaper-o"></i>Confecci\\xc3\\xb2n<span class="fa arrow"></span></a>\\n                                <ul class="nav nav-third-level">\\n                                    <li><a href="\', escape=False)\n    response.write(URL(\'confeccion\', \'por_sistema\'))\n    response.write(\'">Imprimir ingresados por Sistema</a></li>\\n                                    <li><a href="\', escape=False)\n    response.write(URL(\'confeccion\', \'modificar_padron\'))\n    response.write(\'">Modificar datos del solicitante</a></li>\\n                                    <li><a href="\', escape=False)\n    response.write(URL(\'confeccion\', \'historial\'))\n    response.write(\'">Certificados Impresos</a></li>\\n                                    <li><a href="\', escape=False)\n    response.write(URL(\'confeccion\', \'historial\'))\n    response.write(\'">Configurar margenes</a></li> \\n                                    \\n\\n                                </ul>\\n                            </li>\\n                            \\n                           \\n                            \\n                           \\n                        </ul>\\n                    </li>\\n                \', escape=False)\n    pass\nresponse.write(\'\\n\\n            </ul>\\n\\n        </div>\\n    </nav>\\n\\n        <div id="page-wrapper" class="gray-bg">\\n        <div class="row border-bottom">\\n        <nav class="navbar navbar-static-top  " role="navigation" style="margin-bottom: 0">\\n\\n        <div class="navbar-header">\\n         <!--   <a class="navbar-minimalize minimalize-styl-2 btn btn-primary " href="#"><i class="fa fa-bars"></i> </a> -->\\n           \\n        </div> \\n\\n            <ul class="nav navbar-top-links navbar-right ">\\n              \\n\\n                <li>\\n                    <a href="\', escape=False)\nresponse.write(URL(\'default\', \'user\', args=(\'logout\')))\nresponse.write(\'">\\n                        <i class="fa fa-sign-out "></i> Cerrar Sesi\\xc3\\xb3n\\n                    </a>\\n                </li>\\n            </ul>\\n\\n        </nav>\\n        </div>\\n            <div class="row wrapper border-bottom white-bg page-heading">\\n                <div class="col-sm-12">\\n                    \', escape=False)\nresponse.write(\'\\r\\n<h2>Div. Antecedentes- Sistema de Confecci\\xc3\\xb2n</h2>\\r\\n<ol class="breadcrumb">\\r\\n    <li class="breadcrumb-item">\\r\\n        <a href="\', escape=False)\nresponse.write(URL(c=\'default\',f=\'index\'))\nresponse.write(\'">Home</a>\\r\\n    </li>\\r\\n    <li class="breadcrumb-item">\\r\\n        <a href="\', escape=False)\nresponse.write(URL(c=\'confeccion\',f=\'confeccion\'))\nresponse.write(\'">Confeccion</a>\\r\\n    </li>\\r\\n    <li class="breadcrumb-item">\\r\\n        <a href="\', escape=False)\nresponse.write(URL(c=\'confeccion\',f=\'por_sistema\'))\nresponse.write(\'">Imprimir Por Sistema</a>\\r\\n    </li>\\r\\n    <li class="breadcrumb-item active">\\r\\n        <strong>Formulario</strong>\\r\\n    </li>\\r\\n</ol>\\r\\n\', escape=False)\nresponse.write(\'\\n\\n                   \\n                </div>\\n                \\n            </div>\\n\\n\\n            <div class="wrapper wrapper-content">\\n               \', escape=False)\nresponse.write(\'\\r\\n<style>\\r\\n\\t#t_antece__error{color:#f3f3f4;\\r\\n\\t\\tfont-size:16px;background: red;}\\r\\n\\t#donde__error{color:#f3f3f4;\\r\\n\\t\\tfont-size:16px;background: red;}\\r\\n\\t#clase__error{color:#f3f3f4;\\r\\n\\t\\tfont-size:16px;background: red;}\\r\\n\\t#tipo__error{color:#f3f3f4;\\r\\n\\t\\tfont-size:16px;background: red;}\\r\\n\\t#e_civil__error{color:#f3f3f4;\\r\\n\\t\\tfont-size:16px;background: red;}\\r\\n\\t#pais__error\\t{color:#f3f3f4;\\r\\n\\t\\tfont-size:16px;background: red;}\\r\\n\\t#nprontuario__error\\t{color:#f3f3f4;\\r\\n\\t\\tfont-size:16px;background: red;}\\r\\n\\r\\n\\t\\t\\r\\n\\r\\n\\t\\r\\n</style>\\r\\n\\r\\n\\r\\n\\r\\n\\r\\n\\r\\n\\r\\n\', escape=False)\nresponse.write(\'\\r\\n\\r\\n\\r\\n\\r\\n\\r\\n\\r\\n\\r\\n\\r\\n\\r\\n<div class="row">\\r\\n\\t<div class="col-lg-4">\\r\\n\\r\\n\\r\\n\\t</div>\\r\\n\\t<div class="col-lg-12">\\r\\n\\t\\t<div class="ibox ">\\r\\n\\t\\t\\t<div class="ibox-title">\\r\\n\\t\\t\\t\\t<h5>Formulario</h5> <span class="label label-success"><i class="fa fa-hand-o-up"></i></span>\\r\\n\\t\\t\\t</div>\\r\\n\\r\\n\\t\\t\\t<div class="ibox-content">\\r\\n\\t\\t\\t\\t<br>\\r\\n\\t\\t\\t\\t\\r\\n\\t\\t\\t\\t\\t\', escape=False)\nresponse.write(form.custom.begin)\nresponse.write(\'\\r\\n\\t\\t\\t<div class="row">\\r\\n\\t\\t\\t\\t<div class="col-md-6">\\r\\n\\t\\t\\t\\t    <div class="form-group">\\r\\n\\t\\t\\t\\t    \\t <label><strong>Dni:</strong></label>\\r\\n\\t\\t\\t\\t        \', escape=False)\nform.custom.widget.dni["_style"] = "number"\nresponse.write(\'\\r\\n\\t\\t\\t\\t        \', escape=False)\nresponse.write(form.custom.widget.dni)\nresponse.write(\'\\t\\t        \\r\\n\\t\\t\\t\\t    </div>\\r\\n\\t\\t\\t\\t</div>\\r\\n\\r\\n\\t\\t\\t\\t<div class="col-md-6">    \\r\\n\\t\\t\\t\\t    <div class="form-group">\\r\\n\\t\\t\\t\\t    \\t <label><strong>Pasaporte:</strong></label>\\r\\n\\t\\t\\t\\t         \', escape=False)\nform.custom.widget.pasaporte\nresponse.write(\'\\r\\n\\t\\t\\t\\t         \', escape=False)\nresponse.write(form.custom.widget.pasaporte)\nresponse.write(\'\\r\\n\\t\\t\\t\\t    </div>\\r\\n\\t\\t\\t\\t</div> \\r\\n\\t\\t\\t</div>\\r\\n\\t\\t\\t<div class="row"> \\t\\r\\n\\t\\t\\t\\t<div class="col-md-6">       \\r\\n\\t\\t\\t\\t    <div class="form-group">\\r\\n\\t\\t\\t\\t    \\t <label><strong>Tipo de Prontuario:</strong></label>\\r\\n\\t\\t\\t\\t         \', escape=False)\nform.custom.widget.tipo\nresponse.write(\'\\r\\n\\t\\t\\t\\t         \', escape=False)\nresponse.write(form.custom.widget.tipo)\nresponse.write(\'\\r\\n\\t\\t\\t\\t    </div>\\r\\n\\t\\t\\t\\t</div>\\r\\n\\t\\t\\t\\t<div class="col-md-6">          \\r\\n\\t\\t\\t\\t    <div class="form-group">\\r\\n\\t\\t\\t\\t    \\t <label><strong>N\\xc3\\xb9mero de Prontuario:</strong></label>\\r\\n\\t\\t\\t\\t         \', escape=False)\nform.custom.widget.nprontuario\nresponse.write(\'\\r\\n\\t\\t\\t\\t         \', escape=False)\nresponse.write(form.custom.widget.nprontuario)\nresponse.write(\'\\r\\n\\t\\t\\t\\t    </div>\\r\\n\\t\\t\\t\\t</div>\\r\\n\\t\\t\\t</div>\\r\\n\\t\\t\\t<div class="row">\\t \\r\\n\\t\\t\\t\\t<div class="col-md-6">    \\r\\n\\t\\t\\t\\t    <div class="form-group">\\r\\n\\t\\t\\t\\t          <label><strong>Apellido:</strong></label>\\r\\n\\t\\t\\t\\t          \', escape=False)\nform.custom.widget.apellido["_type"] = "uppercase"\nresponse.write(\'\\r\\n\\t\\t\\t\\t         \', escape=False)\nresponse.write(form.custom.widget.apellido)\nresponse.write(\'\\r\\n\\t\\t\\t\\t    </div>\\r\\n\\t\\t\\t\\t </div>\\r\\n\\t\\t\\t\\t<div class="col-md-6">        \\r\\n\\t\\t\\t\\t    <div class="form-group">\\r\\n\\t\\t\\t\\t          <label><strong>Nombre:</strong></label>\\r\\n\\t\\t\\t\\t          \', escape=False)\nform.custom.widget.nombre["_type"] = "uppercase"\nresponse.write(\'\\r\\n\\t\\t\\t\\t         \', escape=False)\nresponse.write(form.custom.widget.nombre)\nresponse.write(\'\\r\\n\\t\\t\\t\\t    </div>\\r\\n\\t\\t\\t\\t</div> \\r\\n\\t\\t\\t</div>\\r\\n\\t\\t\\t<div class="row">\\r\\n\\r\\n\\t\\t\\t\\t<div class="col-md-6">     \\r\\n\\t\\t\\t\\t    <div class="form-group">\\r\\n\\t\\t\\t\\t          <label><strong>Domicilio:</strong></label>\\r\\n\\t\\t\\t\\t          \', escape=False)\nform.custom.widget.domicilio["_type"] = "uppercase"\nresponse.write(\'\\r\\n\\t\\t\\t\\t         \', escape=False)\nresponse.write(form.custom.widget.domicilio)\nresponse.write(\'\\r\\n\\t\\t\\t\\t    </div>\\r\\n\\t\\t\\t\\t</div> \\r\\n\\r\\n\\t\\t\\t\\t<div class="col-md-6">      \\r\\n\\t\\t\\t\\t    <div class="form-group">\\r\\n\\t\\t\\t\\t    <label><strong>Estado Civil:</strong></label>\\r\\n\\t\\t\\t\\t         \', escape=False)\nform.custom.widget.e_civil\nresponse.write(\'\\r\\n\\t\\t\\t\\t         \', escape=False)\nresponse.write(form.custom.widget.e_civil)\nresponse.write(\'\\r\\n\\t\\t\\t\\t    </div> \\r\\n\\t\\t\\t\\t</div>\\r\\n\\t\\t\\t</div>\\r\\n\\t\\t\\t<div class="row">\\t\\r\\n\\t\\t\\t\\t<div class="col-md-6">        \\r\\n\\t\\t\\t\\t    <div class="form-group">\\r\\n\\t\\t\\t\\t    <label><strong>Clase:</strong></label>\\r\\n\\t\\t\\t\\t         \', escape=False)\nform.custom.widget.clase\nresponse.write(\'\\r\\n\\t\\t\\t\\t         \', escape=False)\nresponse.write(form.custom.widget.clase)\nresponse.write(\'\\r\\n\\t\\t\\t\\t    </div>\\r\\n\\t\\t\\t\\t</div>\\r\\n\\t\\t\\t\\t<div class="col-md-6">     \\r\\n\\t\\t\\t\\t    <div class="form-group">\\r\\n\\t\\t\\t\\t    <label><strong>Nacionalidad</strong></label>\\r\\n\\t\\t\\t\\t         \', escape=False)\nform.custom.widget.pais\nresponse.write(\'\\r\\n\\t\\t\\t\\t         \', escape=False)\nresponse.write(form.custom.widget.pais)\nresponse.write(\'\\r\\n\\t\\t\\t\\t    </div>   \\r\\n\\t\\t\\t\\t</div>\\r\\n\\t\\t\\t</div>\\r\\n\\t\\t\\t<div class="row">\\t\\r\\n\\t\\t\\t\\t<div class="col-md-6">        \\r\\n\\t\\t\\t\\t    <div class="form-group">\\r\\n\\t\\t\\t\\t    <label><strong>Profesion:</strong></label>\\r\\n\\t\\t\\t\\t         \', escape=False)\nform.custom.widget.profesion\nresponse.write(\'\\r\\n\\t\\t\\t\\t         \', escape=False)\nresponse.write(form.custom.widget.profesion)\nresponse.write(\'\\r\\n\\t\\t\\t\\t    </div>\\r\\n\\t\\t\\t\\t</div>\\r\\n\\t\\t\\t\\t<div class="col-md-6">     \\r\\n\\t\\t\\t\\t    <div class="form-group">\\r\\n\\t\\t\\t\\t    <label><strong>Genero</strong></label>\\r\\n\\t\\t\\t\\t         \', escape=False)\nform.custom.widget.genero\nresponse.write(\'\\r\\n\\t\\t\\t\\t         \', escape=False)\nresponse.write(form.custom.widget.genero)\nresponse.write(\'\\r\\n\\t\\t\\t\\t    </div>   \\r\\n\\t\\t\\t\\t</div>\\r\\n\\t\\t\\t</div>\\r\\n\\t\\t\\t\\r\\n\\t\\t\\t<div class="row">\\r\\n\\t\\t\\t\\t\\r\\n\\t\\t\\t\\t\\r\\n\\t\\t\\t\\t<div class="col-md-6">           \\r\\n\\t\\t\\t\\t    <div class="form-group">\\r\\n\\t\\t\\t\\t    \\t <button type="submit" class="btn btn-info ">Guardar</button>\\r\\n                    \\r\\n                    \\r\\n                    \', escape=False)\nresponse.write(form.custom.end)\nresponse.write(\'\\r\\n                    </div>\\r\\n                </div>      \\r\\n\\r\\n\\t\\t\\t</div>\\r\\n\\r\\n\\t</div>\\r\\n</div>\\r\\n\\r\\n\\r\\n\\r\\n\\r\\n\\r\\n\\r\\n\\r\\n\', escape=False)\nresponse.write(\'\\n            </div>\\n            <div class="footer">\\n                <div class="float-right">\\n                    <strong>Copyright</strong> Div. Inform\\xc3\\xa1tica Dpto. Investigaciones Judiciales D-5 <strong>&copy;</strong> 2019\\n                </div>\\n                \\n            </div>\\n\\n        </div>\\n        </div>\\n\\n    <!-- Mainly scripts -->\\n    <script src="\', escape=False)\nresponse.write(URL(\'static\', \'assets/js/jquery-3.1.1.min.js\'))\nresponse.write(\'"></script>\\n    <script src="\', escape=False)\nresponse.write(URL(\'static\', \'assets/js/popper.min.js\'))\nresponse.write(\'"></script>\\n    <script src="\', escape=False)\nresponse.write(URL(\'static\', \'assets/js/bootstrap.js\'))\nresponse.write(\'"></script>\\n    <script src="\', escape=False)\nresponse.write(URL(\'static\', \'assets/js/plugins/metisMenu/jquery.metisMenu.js\'))\nresponse.write(\'"></script>\\n    <script src="\', escape=False)\nresponse.write(URL(\'static\', \'assets/js/plugins/slimscroll_DA_PROBLEMAS/jquery.slimscroll.min.js\'))\nresponse.write(\'"></script>\\n\\n    <script src="\', escape=False)\nresponse.write(URL(\'static\', \'assets/js/plugins/dataTables/datatables.min.js\'))\nresponse.write(\'"></script>\\n    <script src="\', escape=False)\nresponse.write(URL(\'static\', \'assets/js/plugins/dataTables/dataTables.bootstrap4.min.js\'))\nresponse.write(\'"></script>\\n\\n    <!-- Custom and plugin javascript -->\\n    <script src="\', escape=False)\nresponse.write(URL(\'static\', \'assets/js/inspinia.js\'))\nresponse.write(\'"></script>\\n    <script src="\', escape=False)\nresponse.write(URL(\'static\', \'assets/js/plugins/pace/pace.min.js\'))\nresponse.write(\'"></script>\\n    <script src="\', escape=False)\nresponse.write(URL(\'static\', \'assets/js/plugins/typehead/bootstrap3-typeahead.min.js\'))\nresponse.write(\'"></script>\\n    \\n\\n\\n   \\n\\n</body>\\n\\n\\n<!-- Mirrored from webapplayers.com/inspinia_admin-v2.8/empty_page.html by HTTrack Website Copier/3.x [XR&CO\\\'2014], Fri, 29 Jun 2018 13:54:48 GMT -->\\n</html>\\n\', escape=False)'
p7
sS'snapshot'
p8
(dp9
S'exception'
p10
(dp11
S'__hash__'
p12
S"<method-wrapper '__hash__' of exceptions.AttributeError object>"
p13
sS'__setattr__'
p14
S"<method-wrapper '__setattr__' of exceptions.AttributeError object>"
p15
sS'__reduce_ex__'
p16
S'<built-in method __reduce_ex__ of exceptions.AttributeError object>'
p17
sS'__getslice__'
p18
S"<method-wrapper '__getslice__' of exceptions.AttributeError object>"
p19
sS'__getitem__'
p20
S"<method-wrapper '__getitem__' of exceptions.AttributeError object>"
p21
sS'__setstate__'
p22
S'<built-in method __setstate__ of exceptions.AttributeError object>'
p23
sS'__reduce__'
p24
S'<built-in method __reduce__ of exceptions.AttributeError object>'
p25
sS'__str__'
p26
S"<method-wrapper '__str__' of exceptions.AttributeError object>"
p27
sS'__format__'
p28
S'<built-in method __format__ of exceptions.AttributeError object>'
p29
sS'__getattribute__'
p30
S"<method-wrapper '__getattribute__' of exceptions.AttributeError object>"
p31
sS'__class__'
p32
S"<type 'exceptions.AttributeError'>"
p33
sS'__unicode__'
p34
S'<built-in method __unicode__ of exceptions.AttributeError object>'
p35
sS'__delattr__'
p36
S"<method-wrapper '__delattr__' of exceptions.AttributeError object>"
p37
sS'__subclasshook__'
p38
S'<built-in method __subclasshook__ of type object>'
p39
sS'__repr__'
p40
S"<method-wrapper '__repr__' of exceptions.AttributeError object>"
p41
sS'args'
p42
S'("\'NoneType\' object has no attribute \'first_name\'",)'
p43
sS'__dict__'
p44
S'{}'
p45
sS'__sizeof__'
p46
S'<built-in method __sizeof__ of exceptions.AttributeError object>'
p47
sS'__doc__'
p48
S"'Attribute not found.'"
p49
sS'__init__'
p50
S"<method-wrapper '__init__' of exceptions.AttributeError object>"
p51
sS'__new__'
p52
S'<built-in method __new__ of type object>'
p53
ssS'evalue'
p54
S"'NoneType' object has no attribute 'first_name'"
p55
sS'request'
p56
cgluon.html
XML_unpickle
p57
(S's\x86a\x00\x00<div><table><tr><td style="font-weight:bold;vertical-align:top;">ajax</td><td style="vertical-align:top;">:</td><td><div>False</div></td></tr><tr><td style="font-weight:bold;vertical-align:top;">application</td><td style="vertical-align:top;">:</td><td><div>antecedentesplataforma</div></td></tr><tr><td style="font-weight:bold;vertical-align:top;">args</td><td style="vertical-align:top;">:</td><td><div><table><tr><td><div>150519</div></td></tr></table></div></td></tr><tr><td style="font-weight:bold;vertical-align:top;">cid</td><td style="vertical-align:top;">:</td><td><div>None</div></td></tr><tr><td style="font-weight:bold;vertical-align:top;">client</td><td style="vertical-align:top;">:</td><td><div>127.0.0.1</div></td></tr><tr><td style="font-weight:bold;vertical-align:top;">controller</td><td style="vertical-align:top;">:</td><td><div>padron</div></td></tr><tr><td style="font-weight:bold;vertical-align:top;">cookies</td><td style="vertical-align:top;">:</td><td><div><table><tr><td style="font-weight:bold;vertical-align:top;">session_id_admin</td><td style="vertical-align:top;">:</td><td><div>127.0.0.1-4ead7f46-9855-44cf-9e07-b2f9c6a0ffb7<table><tr><td style="font-weight:bold;vertical-align:top;">comment</td><td style="vertical-align:top;">:</td><td><div></div></td></tr><tr><td style="font-weight:bold;vertical-align:top;">domain</td><td style="vertical-align:top;">:</td><td><div></div></td></tr><tr><td style="font-weight:bold;vertical-align:top;">expires</td><td style="vertical-align:top;">:</td><td><div></div></td></tr><tr><td style="font-weight:bold;vertical-align:top;">httponly</td><td style="vertical-align:top;">:</td><td><div></div></td></tr><tr><td style="font-weight:bold;vertical-align:top;">max-age</td><td style="vertical-align:top;">:</td><td><div></div></td></tr><tr><td style="font-weight:bold;vertical-align:top;">path</td><td style="vertical-align:top;">:</td><td><div></div></td></tr><tr><td style="font-weight:bold;vertical-align:top;">secure</td><td style="vertical-align:top;">:</td><td><div></div></td></tr><tr><td style="font-weight:bold;vertical-align:top;">version</td><td style="vertical-align:top;">:</td><td><div></div></td></tr></table></div></td></tr><tr><td style="font-weight:bold;vertical-align:top;">session_id_antecedentesplataforma</td><td style="vertical-align:top;">:</td><td><div>127.0.0.1-a74915bc-d961-4528-82d7-d28212dee229<table><tr><td style="font-weight:bold;vertical-align:top;">comment</td><td style="vertical-align:top;">:</td><td><div></div></td></tr><tr><td style="font-weight:bold;vertical-align:top;">domain</td><td style="vertical-align:top;">:</td><td><div></div></td></tr><tr><td style="font-weight:bold;vertical-align:top;">expires</td><td style="vertical-align:top;">:</td><td><div></div></td></tr><tr><td style="font-weight:bold;vertical-align:top;">httponly</td><td style="vertical-align:top;">:</td><td><div></div></td></tr><tr><td style="font-weight:bold;vertical-align:top;">max-age</td><td style="vertical-align:top;">:</td><td><div></div></td></tr><tr><td style="font-weight:bold;vertical-align:top;">path</td><td style="vertical-align:top;">:</td><td><div></div></td></tr><tr><td style="font-weight:bold;vertical-align:top;">secure</td><td style="vertical-align:top;">:</td><td><div></div></td></tr><tr><td style="font-weight:bold;vertical-align:top;">version</td><td style="vertical-align:top;">:</td><td><div></div></td></tr></table></div></td></tr><tr><td style="font-weight:bold;vertical-align:top;">session_id_welcome</td><td style="vertical-align:top;">:</td><td><div>127.0.0.1-5de0fc41-9152-4ff4-8ab4-057531632fdf<table><tr><td style="font-weight:bold;vertical-align:top;">comment</td><td style="vertical-align:top;">:</td><td><div></div></td></tr><tr><td style="font-weight:bold;vertical-align:top;">domain</td><td style="vertical-align:top;">:</td><td><div></div></td></tr><tr><td style="font-weight:bold;vertical-align:top;">expires</td><td style="vertical-align:top;">:</td><td><div></div></td></tr><tr><td style="font-weight:bold;vertical-align:top;">httponly</td><td style="vertical-align:top;">:</td><td><div></div></td></tr><tr><td style="font-weight:bold;vertical-align:top;">max-age</td><td style="vertical-align:top;">:</td><td><div></div></td></tr><tr><td style="font-weight:bold;vertical-align:top;">path</td><td style="vertical-align:top;">:</td><td><div></div></td></tr><tr><td style="font-weight:bold;vertical-align:top;">secure</td><td style="vertical-align:top;">:</td><td><div></div></td></tr><tr><td style="font-weight:bold;vertical-align:top;">version</td><td style="vertical-align:top;">:</td><td><div></div></td></tr></table></div></td></tr></table></div></td></tr><tr><td style="font-weight:bold;vertical-align:top;">env</td><td style="vertical-align:top;">:</td><td><div><table><tr><td style="font-weight:bold;vertical-align:top;">HTTP_ACCEPT</td><td style="vertical-align:top;">:</td><td><div>text/html,application/xhtml+xml,application/xml;q=0.9,image/webp,image/apng,*/*;q=0.8,application/signed-exchange;v=b3</div></td></tr><tr><td style="font-weight:bold;vertical-align:top;">HTTP_ACCEPT_ENCODING</td><td style="vertical-align:top;">:</td><td><div>gzip, deflate, br</div></td></tr><tr><td style="font-weight:bold;vertical-align:top;">HTTP_ACCEPT_LANGUAGE</td><td style="vertical-align:top;">:</td><td><div>es-ES,es;q=0.9,en;q=0.8,gl;q=0.7</div></td></tr><tr><td style="font-weight:bold;vertical-align:top;">HTTP_CACHE_CONTROL</td><td style="vertical-align:top;">:</td><td><div>max-age=0</div></td></tr><tr><td style="font-weight:bold;vertical-align:top;">HTTP_CONNECTION</td><td style="vertical-align:top;">:</td><td><div>keep-alive</div></td></tr><tr><td style="font-weight:bold;vertical-align:top;">HTTP_COOKIE</td><td style="vertical-align:top;">:</td><td><div>session_id_welcome=127.0.0.1-5de0fc41-9152-4ff4-8ab4-057531632fdf; session_id_admin=127.0.0.1-4ead7f46-9855-44cf-9e07-b2f9c6a0ffb7; session_id_antecedentesplataforma=127.0.0.1-a74915bc-d961-4528-82d7-d28212dee229</div></td></tr><tr><td style="font-weight:bold;vertical-align:top;">HTTP_HOST</td><td style="vertical-align:top;">:</td><td><div>127.0.0.1:8000</div></td></tr><tr><td style="font-weight:bold;vertical-align:top;">HTTP_REFERER</td><td style="vertical-align:top;">:</td><td><div>http://127.0.0.1:8000/antecedentesplataforma/padron/modificar/29917029</div></td></tr><tr><td style="font-weight:bold;vertical-align:top;">HTTP_SEC_FETCH_MODE</td><td style="vertical-align:top;">:</td><td><div>navigate</div></td></tr><tr><td style="font-weight:bold;vertical-align:top;">HTTP_SEC_FETCH_SITE</td><td style="vertical-align:top;">:</td><td><div>none</div></td></tr><tr><td style="font-weight:bold;vertical-align:top;">HTTP_SEC_FETCH_USER</td><td style="vertical-align:top;">:</td><td><div>?1</div></td></tr><tr><td style="font-weight:bold;vertical-align:top;">HTTP_UPGRADE_INSECURE_REQUESTS</td><td style="vertical-align:top;">:</td><td><div>1</div></td></tr><tr><td style="font-weight:bold;vertical-align:top;">HTTP_USER_AGENT</td><td style="vertical-align:top;">:</td><td><div>Mozilla/5.0 (Windows NT 6.1) AppleWebKit/537.36 (KHTML, like Gecko) Chrome/76.0.3809.132 Safari/537.36</div></td></tr><tr><td style="font-weight:bold;vertical-align:top;">PATH_INFO</td><td style="vertical-align:top;">:</td><td><div>/antecedentesplataforma/padron/form_modificar/150519</div></td></tr><tr><td style="font-weight:bold;vertical-align:top;">QUERY_STRING</td><td style="vertical-align:top;">:</td><td><div></div></td></tr><tr><td style="font-weight:bold;vertical-align:top;">REMOTE_ADDR</td><td style="vertical-align:top;">:</td><td><div>127.0.0.1</div></td></tr><tr><td style="font-weight:bold;vertical-align:top;">REMOTE_PORT</td><td style="vertical-align:top;">:</td><td><div>50190</div></td></tr><tr><td style="font-weight:bold;vertical-align:top;">REQUEST_METHOD</td><td style="vertical-align:top;">:</td><td><div>GET</div></td></tr><tr><td style="font-weight:bold;vertical-align:top;">SCRIPT_NAME</td><td style="vertical-align:top;">:</td><td><div></div></td></tr><tr><td style="font-weight:bold;vertical-align:top;">SERVER_NAME</td><td style="vertical-align:top;">:</td><td><div>HATAK3-PC</div></td></tr><tr><td style="font-weight:bold;vertical-align:top;">SERVER_PORT</td><td style="vertical-align:top;">:</td><td><div>8000</div></td></tr><tr><td style="font-weight:bold;vertical-align:top;">SERVER_PROTOCOL</td><td style="vertical-align:top;">:</td><td><div>HTTP/1.1</div></td></tr><tr><td style="font-weight:bold;vertical-align:top;">SERVER_SOFTWARE</td><td style="vertical-align:top;">:</td><td><div>Rocket 1.2.6</div></td></tr><tr><td style="font-weight:bold;vertical-align:top;">app_folders</td><td style="vertical-align:top;">:</td><td><div>set([&#x27;D:\\\\web2py\\\\applications\\\\admin\\\\&#x27;, &#x27;D:\\\\web2py\\\\applications\\\\welcome\\\\&#x27;, &#x27;D:\\\\web2py\\\\applications\\\\antecedentesplataforma\\\\&#x27;])</div></td></tr><tr><td style="font-weight:bold;vertical-align:top;">applications_parent</td><td style="vertical-align:top;">:</td><td><div>D:\\web2py</div></td></tr><tr><td style="font-weight:bold;vertical-align:top;">cmd_args</td><td style="vertical-align:top;">:</td><td><div><table></table></div></td></tr><tr><td style="font-weight:bold;vertical-align:top;">cmd_options</td><td style="vertical-align:top;">:</td><td><div>&lt;Values at 0x2609d00: {&#x27;verbose&#x27;: False, &#x27;ip&#x27;: &#x27;127.0.0.1&#x27;, &#x27;debuglevel&#x27;: 30, &#x27;with_scheduler&#x27;: False, &#x27;shutdown_timeout&#x27;: 5, &#x27;taskbar&#x27;: False, &#x27;with_coverage&#x27;: False, &#x27;pid_filename&#x27;: &#x27;httpserver.pid&#x27;, &#x27;maxthreads&#x27;: None, &#x27;softcron&#x27;: False, &#x27;server_name&#x27;: &#x27;HATAK3-PC&#x27;, &#x27;bpython&#x27;: False, &#x27;nogui&#x27;: False, &#x27;port&#x27;: 8000, &#x27;print_errors&#x27;: False, &#x27;extcron&#x27;: False, &#x27;runcron&#x27;: False, &#x27;run_system_tests&#x27;: False, &#x27;test&#x27;: None, &#x27;folder&#x27;: &#x27;D:\\\\web2py&#x27;, &#x27;config&#x27;: &#x27;&#x27;, &#x27;minthreads&#x27;: None, &#x27;shell&#x27;: None, &#x27;run&#x27;: &#x27;&#x27;, &#x27;log_filename&#x27;: &#x27;httpserver.log&#x27;, &#x27;profiler_dir&#x27;: None, &#x27;args&#x27;: [&#x27;&#x27;], &#x27;socket_timeout&#x27;: 5, &#x27;ssl_ca_certificate&#x27;: None, &#x27;scheduler&#x27;: None, &#x27;interfaces&#x27;: None, &#x27;ssl_private_key&#x27;: &#x27;&#x27;, &#x27;gae&#x27;: None, &#x27;password&#x27;: &#x27;******&#x27;, &#x27;request_queue_size&#x27;: 5, &#x27;ssl_certificate&#x27;: &#x27;&#x27;, &#x27;cronjob&#x27;: False, &#x27;numthreads&#x27;: None, &#x27;quiet&#x27;: False, &#x27;import_models&#x27;: False, &#x27;timeout&#x27;: 10, &#x27;plain&#x27;: False, &#x27;nobanner&#x27;: False}&gt;</div></td></tr><tr><td style="font-weight:bold;vertical-align:top;">db_sessions</td><td style="vertical-align:top;">:</td><td><div>set([])</div></td></tr><tr><td style="font-weight:bold;vertical-align:top;">debugging</td><td style="vertical-align:top;">:</td><td><div>False</div></td></tr><tr><td style="font-weight:bold;vertical-align:top;">gluon_parent</td><td style="vertical-align:top;">:</td><td><div>D:\\web2py</div></td></tr><tr><td style="font-weight:bold;vertical-align:top;">http_accept</td><td style="vertical-align:top;">:</td><td><div>text/html,application/xhtml+xml,application/xml;q=0.9,image/webp,image/apng,*/*;q=0.8,application/signed-exchange;v=b3</div></td></tr><tr><td style="font-weight:bold;vertical-align:top;">http_accept_encoding</td><td style="vertical-align:top;">:</td><td><div>gzip, deflate, br</div></td></tr><tr><td style="font-weight:bold;vertical-align:top;">http_accept_language</td><td style="vertical-align:top;">:</td><td><div>es-ES,es;q=0.9,en;q=0.8,gl;q=0.7</div></td></tr><tr><td style="font-weight:bold;vertical-align:top;">http_cache_control</td><td style="vertical-align:top;">:</td><td><div>max-age=0</div></td></tr><tr><td style="font-weight:bold;vertical-align:top;">http_connection</td><td style="vertical-align:top;">:</td><td><div>keep-alive</div></td></tr><tr><td style="font-weight:bold;vertical-align:top;">http_cookie</td><td style="vertical-align:top;">:</td><td><div>session_id_welcome=127.0.0.1-5de0fc41-9152-4ff4-8ab4-057531632fdf; session_id_admin=127.0.0.1-4ead7f46-9855-44cf-9e07-b2f9c6a0ffb7; session_id_antecedentesplataforma=127.0.0.1-a74915bc-d961-4528-82d7-d28212dee229</div></td></tr><tr><td style="font-weight:bold;vertical-align:top;">http_host</td><td style="vertical-align:top;">:</td><td><div>127.0.0.1:8000</div></td></tr><tr><td style="font-weight:bold;vertical-align:top;">http_referer</td><td style="vertical-align:top;">:</td><td><div>http://127.0.0.1:8000/antecedentesplataforma/padron/modificar/29917029</div></td></tr><tr><td style="font-weight:bold;vertical-align:top;">http_sec_fetch_mode</td><td style="vertical-align:top;">:</td><td><div>navigate</div></td></tr><tr><td style="font-weight:bold;vertical-align:top;">http_sec_fetch_site</td><td style="vertical-align:top;">:</td><td><div>none</div></td></tr><tr><td style="font-weight:bold;vertical-align:top;">http_sec_fetch_user</td><td style="vertical-align:top;">:</td><td><div>?1</div></td></tr><tr><td style="font-weight:bold;vertical-align:top;">http_upgrade_insecure_requests</td><td style="vertical-align:top;">:</td><td><div>1</div></td></tr><tr><td style="font-weight:bold;vertical-align:top;">http_user_agent</td><td style="vertical-align:top;">:</td><td><div>Mozilla/5.0 (Windows NT 6.1) AppleWebKit/537.36 (KHTML, like Gecko) Chrome/76.0.3809.132 Safari/537.36</div></td></tr><tr><td style="font-weight:bold;vertical-align:top;">is_jython</td><td style="vertical-align:top;">:</td><td><div>False</div></td></tr><tr><td style="font-weight:bold;vertical-align:top;">is_pypy</td><td style="vertical-align:top;">:</td><td><div>False</div></td></tr><tr><td style="font-weight:bold;vertical-align:top;">is_source</td><td style="vertical-align:top;">:</td><td><div>False</div></td></tr><tr><td style="font-weight:bold;vertical-align:top;">local_hosts</td><td style="vertical-align:top;">:</td><td><div><table><tr><td><div>HATAK3-PC</div></td></tr><tr><td><div>HATAK3-PC.brazilfw.local</div></td></tr><tr><td><div>::ffff:127.0.0.1</div></td></tr><tr><td><div>::1</div></td></tr><tr><td><div>fe80::b435:4451:4e49:7820%11</div></td></tr><tr><td><div>10.70.0.5</div></td></tr><tr><td><div>127.0.0.1</div></td></tr></table></div></td></tr><tr><td style="font-weight:bold;vertical-align:top;">path_info</td><td style="vertical-align:top;">:</td><td><div>/antecedentesplataforma/padron/form_modificar/150519</div></td></tr><tr><td style="font-weight:bold;vertical-align:top;">query_string</td><td style="vertical-align:top;">:</td><td><div></div></td></tr><tr><td style="font-weight:bold;vertical-align:top;">remote_addr</td><td style="vertical-align:top;">:</td><td><div>127.0.0.1</div></td></tr><tr><td style="font-weight:bold;vertical-align:top;">remote_port</td><td style="vertical-align:top;">:</td><td><div>50190</div></td></tr><tr><td style="font-weight:bold;vertical-align:top;">request_method</td><td style="vertical-align:top;">:</td><td><div>GET</div></td></tr><tr><td style="font-weight:bold;vertical-align:top;">request_uri</td><td style="vertical-align:top;">:</td><td><div>/antecedentesplataforma/padron/form_modificar/150519</div></td></tr><tr><td style="font-weight:bold;vertical-align:top;">script_name</td><td style="vertical-align:top;">:</td><td><div></div></td></tr><tr><td style="font-weight:bold;vertical-align:top;">server_name</td><td style="vertical-align:top;">:</td><td><div>HATAK3-PC</div></td></tr><tr><td style="font-weight:bold;vertical-align:top;">server_port</td><td style="vertical-align:top;">:</td><td><div>8000</div></td></tr><tr><td style="font-weight:bold;vertical-align:top;">server_protocol</td><td style="vertical-align:top;">:</td><td><div>HTTP/1.1</div></td></tr><tr><td style="font-weight:bold;vertical-align:top;">server_software</td><td style="vertical-align:top;">:</td><td><div>Rocket 1.2.6</div></td></tr><tr><td style="font-weight:bold;vertical-align:top;">web2py_path</td><td style="vertical-align:top;">:</td><td><div>D:\\web2py</div></td></tr><tr><td style="font-weight:bold;vertical-align:top;">web2py_version</td><td style="vertical-align:top;">:</td><td><div>2.14.6-stable+timestamp.2016.05.10.00.21.47</div></td></tr><tr><td style="font-weight:bold;vertical-align:top;">wsgi.errors</td><td style="vertical-align:top;">:</td><td><div>&lt;open file &#x27;&lt;stderr&gt;&#x27;, mode &#x27;w&#x27; at 0x0116D0D0&gt;</div></td></tr><tr><td style="font-weight:bold;vertical-align:top;">wsgi.file_wrapper</td><td style="vertical-align:top;">:</td><td><div>&lt;class wsgiref.util.FileWrapper at 0x02542420&gt;</div></td></tr><tr><td style="font-weight:bold;vertical-align:top;">wsgi.input</td><td style="vertical-align:top;">:</td><td><div>&lt;socket._fileobject object at 0x038BF4B0&gt;</div></td></tr><tr><td style="font-weight:bold;vertical-align:top;">wsgi.multiprocess</td><td style="vertical-align:top;">:</td><td><div>False</div></td></tr><tr><td style="font-weight:bold;vertical-align:top;">wsgi.multithread</td><td style="vertical-align:top;">:</td><td><div>True</div></td></tr><tr><td style="font-weight:bold;vertical-align:top;">wsgi.run_once</td><td style="vertical-align:top;">:</td><td><div>False</div></td></tr><tr><td style="font-weight:bold;vertical-align:top;">wsgi.url_scheme</td><td style="vertical-align:top;">:</td><td><div>http</div></td></tr><tr><td style="font-weight:bold;vertical-align:top;">wsgi.version</td><td style="vertical-align:top;">:</td><td><div><table><tr><td><div>1</div></td></tr><tr><td><div>0</div></td></tr></table></div></td></tr><tr><td style="font-weight:bold;vertical-align:top;">wsgi_errors</td><td style="vertical-align:top;">:</td><td><div>&lt;open file &#x27;&lt;stderr&gt;&#x27;, mode &#x27;w&#x27; at 0x0116D0D0&gt;</div></td></tr><tr><td style="font-weight:bold;vertical-align:top;">wsgi_file_wrapper</td><td style="vertical-align:top;">:</td><td><div>&lt;class wsgiref.util.FileWrapper at 0x02542420&gt;</div></td></tr><tr><td style="font-weight:bold;vertical-align:top;">wsgi_input</td><td style="vertical-align:top;">:</td><td><div>&lt;socket._fileobject object at 0x038BF4B0&gt;</div></td></tr><tr><td style="font-weight:bold;vertical-align:top;">wsgi_multiprocess</td><td style="vertical-align:top;">:</td><td><div>False</div></td></tr><tr><td style="font-weight:bold;vertical-align:top;">wsgi_multithread</td><td style="vertical-align:top;">:</td><td><div>True</div></td></tr><tr><td style="font-weight:bold;vertical-align:top;">wsgi_run_once</td><td style="vertical-align:top;">:</td><td><div>False</div></td></tr><tr><td style="font-weight:bold;vertical-align:top;">wsgi_url_scheme</td><td style="vertical-align:top;">:</td><td><div>http</div></td></tr><tr><td style="font-weight:bold;vertical-align:top;">wsgi_version</td><td style="vertical-align:top;">:</td><td><div><table><tr><td><div>1</div></td></tr><tr><td><div>0</div></td></tr></table></div></td></tr></table></div></td></tr><tr><td style="font-weight:bold;vertical-align:top;">extension</td><td style="vertical-align:top;">:</td><td><div>html</div></td></tr><tr><td style="font-weight:bold;vertical-align:top;">folder</td><td style="vertical-align:top;">:</td><td><div>D:\\web2py\\applications\\antecedentesplataforma\\</div></td></tr><tr><td style="font-weight:bold;vertical-align:top;">function</td><td style="vertical-align:top;">:</td><td><div>form_modificar</div></td></tr><tr><td style="font-weight:bold;vertical-align:top;">global_settings</td><td style="vertical-align:top;">:</td><td><div><table><tr><td style="font-weight:bold;vertical-align:top;">app_folders</td><td style="vertical-align:top;">:</td><td><div>set([&#x27;D:\\\\web2py\\\\applications\\\\admin\\\\&#x27;, &#x27;D:\\\\web2py\\\\applications\\\\welcome\\\\&#x27;, &#x27;D:\\\\web2py\\\\applications\\\\antecedentesplataforma\\\\&#x27;])</div></td></tr><tr><td style="font-weight:bold;vertical-align:top;">applications_parent</td><td style="vertical-align:top;">:</td><td><div>D:\\web2py</div></td></tr><tr><td style="font-weight:bold;vertical-align:top;">cmd_args</td><td style="vertical-align:top;">:</td><td><div><table></table></div></td></tr><tr><td style="font-weight:bold;vertical-align:top;">cmd_options</td><td style="vertical-align:top;">:</td><td><div>&lt;Values at 0x2609d00: {&#x27;verbose&#x27;: False, &#x27;ip&#x27;: &#x27;127.0.0.1&#x27;, &#x27;debuglevel&#x27;: 30, &#x27;with_scheduler&#x27;: False, &#x27;shutdown_timeout&#x27;: 5, &#x27;taskbar&#x27;: False, &#x27;with_coverage&#x27;: False, &#x27;pid_filename&#x27;: &#x27;httpserver.pid&#x27;, &#x27;maxthreads&#x27;: None, &#x27;softcron&#x27;: False, &#x27;server_name&#x27;: &#x27;HATAK3-PC&#x27;, &#x27;bpython&#x27;: False, &#x27;nogui&#x27;: False, &#x27;port&#x27;: 8000, &#x27;print_errors&#x27;: False, &#x27;extcron&#x27;: False, &#x27;runcron&#x27;: False, &#x27;run_system_tests&#x27;: False, &#x27;test&#x27;: None, &#x27;folder&#x27;: &#x27;D:\\\\web2py&#x27;, &#x27;config&#x27;: &#x27;&#x27;, &#x27;minthreads&#x27;: None, &#x27;shell&#x27;: None, &#x27;run&#x27;: &#x27;&#x27;, &#x27;log_filename&#x27;: &#x27;httpserver.log&#x27;, &#x27;profiler_dir&#x27;: None, &#x27;args&#x27;: [&#x27;&#x27;], &#x27;socket_timeout&#x27;: 5, &#x27;ssl_ca_certificate&#x27;: None, &#x27;scheduler&#x27;: None, &#x27;interfaces&#x27;: None, &#x27;ssl_private_key&#x27;: &#x27;&#x27;, &#x27;gae&#x27;: None, &#x27;password&#x27;: &#x27;******&#x27;, &#x27;request_queue_size&#x27;: 5, &#x27;ssl_certificate&#x27;: &#x27;&#x27;, &#x27;cronjob&#x27;: False, &#x27;numthreads&#x27;: None, &#x27;quiet&#x27;: False, &#x27;import_models&#x27;: False, &#x27;timeout&#x27;: 10, &#x27;plain&#x27;: False, &#x27;nobanner&#x27;: False}&gt;</div></td></tr><tr><td style="font-weight:bold;vertical-align:top;">db_sessions</td><td style="vertical-align:top;">:</td><td><div>set([])</div></td></tr><tr><td style="font-weight:bold;vertical-align:top;">debugging</td><td style="vertical-align:top;">:</td><td><div>False</div></td></tr><tr><td style="font-weight:bold;vertical-align:top;">gluon_parent</td><td style="vertical-align:top;">:</td><td><div>D:\\web2py</div></td></tr><tr><td style="font-weight:bold;vertical-align:top;">is_jython</td><td style="vertical-align:top;">:</td><td><div>False</div></td></tr><tr><td style="font-weight:bold;vertical-align:top;">is_pypy</td><td style="vertical-align:top;">:</td><td><div>False</div></td></tr><tr><td style="font-weight:bold;vertical-align:top;">is_source</td><td style="vertical-align:top;">:</td><td><div>False</div></td></tr><tr><td style="font-weight:bold;vertical-align:top;">local_hosts</td><td style="vertical-align:top;">:</td><td><div><table><tr><td><div>HATAK3-PC</div></td></tr><tr><td><div>HATAK3-PC.brazilfw.local</div></td></tr><tr><td><div>::ffff:127.0.0.1</div></td></tr><tr><td><div>::1</div></td></tr><tr><td><div>fe80::b435:4451:4e49:7820%11</div></td></tr><tr><td><div>10.70.0.5</div></td></tr><tr><td><div>127.0.0.1</div></td></tr></table></div></td></tr><tr><td style="font-weight:bold;vertical-align:top;">web2py_version</td><td style="vertical-align:top;">:</td><td><div>2.14.6-stable+timestamp.2016.05.10.00.21.47</div></td></tr></table></div></td></tr><tr><td style="font-weight:bold;vertical-align:top;">is_https</td><td style="vertical-align:top;">:</td><td><div>False</div></td></tr><tr><td style="font-weight:bold;vertical-align:top;">is_local</td><td style="vertical-align:top;">:</td><td><div>True</div></td></tr><tr><td style="font-weight:bold;vertical-align:top;">is_restful</td><td style="vertical-align:top;">:</td><td><div>False</div></td></tr><tr><td style="font-weight:bold;vertical-align:top;">is_scheduler</td><td style="vertical-align:top;">:</td><td><div>False</div></td></tr><tr><td style="font-weight:bold;vertical-align:top;">is_shell</td><td style="vertical-align:top;">:</td><td><div>False</div></td></tr><tr><td style="font-weight:bold;vertical-align:top;">now</td><td style="vertical-align:top;">:</td><td><div>datetime.datetime(2019, 9, 6, 9, 42, 52, 696000)</div></td></tr><tr><td style="font-weight:bold;vertical-align:top;">raw_args</td><td style="vertical-align:top;">:</td><td><div>150519</div></td></tr><tr><td style="font-weight:bold;vertical-align:top;">raw_extension</td><td style="vertical-align:top;">:</td><td><div>None</div></td></tr><tr><td style="font-weight:bold;vertical-align:top;">url</td><td style="vertical-align:top;">:</td><td><div>/antecedentesplataforma/padron/form_modificar/150519</div></td></tr><tr><td style="font-weight:bold;vertical-align:top;">utcnow</td><td style="vertical-align:top;">:</td><td><div>datetime.datetime(2019, 9, 6, 12, 42, 52, 696000)</div></td></tr><tr><td style="font-weight:bold;vertical-align:top;">wsgi</td><td style="vertical-align:top;">:</td><td><div>&lt;gluon.main.LazyWSGI object at 0x03C6B2B0&gt;</div></td></tr></table></div>'
tRp58
sS'frames'
p59
(lp60
(dp61
S'file'
p62
S'D:\\web2py\\gluon\\restricted.py'
p63
sS'dump'
p64
(dp65
S'environment'
p66
S"{'A': <class 'gluon.html.A'>, 'ANY_OF': <class 'gluon.validators.ANY_OF'>, 'ASSIGNJS': <function ASSIGNJS>, 'AppConfig': <function AppConfig>, 'Auth': <class 'gluon.tools.Auth'>, 'B': <class 'gluon.html.B'>, 'BEAUTIFY': <class 'gluon.html.BEAUTIFY'>, 'BODY': <class 'gluon.html.BODY'>, 'BR': <class 'gluon.html.BR'>, 'BUTTON': <class 'gluon.html.BUTTON'>, ...}"
p67
sS'ccode'
p68
S'<code object <module> at 038BEE30, file "D:\\web2...aforma\\views\\padron/form_modificar.html", line 1>'
p69
ssS'lnum'
p70
I227
sS'lines'
p71
(dp72
I224
S'            ccode = code'
p73
sI225
S'        else:'
p74
sI226
S'            ccode = compile2(code, layer)'
p75
sI227
S'        exec ccode in environment'
p76
sI228
S'    except HTTP:'
p77
sI229
S'        raise'
p78
sI230
S'    except RestrictedError:'
p79
sI231
S'        # do not encapsulate (obfuscate) the original RestrictedError'
p80
sI222
S'    try:'
p81
sI223
S'        if isinstance(code, types.CodeType):'
p82
ssS'call'
p83
S'(code=r"response.write(\'<!DOCTYPE html>\\n<html>\\n<script... 2018 13:54:48 GMT -->\\n</html>\\n\', escape=False)", environment={\'A\': <class \'gluon.html.A\'>, \'ANY_OF\': <class \'gluon.validators.ANY_OF\'>, \'ASSIGNJS\': <function ASSIGNJS>, \'AppConfig\': <function AppConfig>, \'Auth\': <class \'gluon.tools.Auth\'>, \'B\': <class \'gluon.html.B\'>, \'BEAUTIFY\': <class \'gluon.html.BEAUTIFY\'>, \'BODY\': <class \'gluon.html.BODY\'>, \'BR\': <class \'gluon.html.BR\'>, \'BUTTON\': <class \'gluon.html.BUTTON\'>, ...}, layer=r\'D:\\web2py\\applications\\antecedentesplataforma\\views\\padron/form_modificar.html\')'
p84
sS'func'
p85
S'restricted'
p86
sa(dp87
g62
S'D:\\web2py\\applications\\antecedentesplataforma\\views\\padron\\form_modificar.html'
p88
sg64
(dp89
S'px'
p90
S'undefined'
p91
sS'font'
p92
g91
sS'red'
p93
g91
sS'background'
p94
g91
sS'size'
p95
g91
ssg70
I16
sg71
(dp96
I7
S'response.write(\'" rel="stylesheet">\\n\\n    <link href="\', escape=False)'
p97
sI8
S"response.write(URL('static', 'assets/css/plugins/dataTables/datatables.min.css'))"
p98
sI9
S'response.write(\'" rel="stylesheet">\\n\\n    <link href="\', escape=False)'
p99
sI10
S"response.write(URL('static', 'assets/css/animate.css' ))"
p100
sI11
S'response.write(\'" rel="stylesheet">\\n    <link href="\', escape=False)'
p101
sI12
S"response.write(URL('static', 'assets/css/style.css' ))"
p102
sI13
S'response.write(\'" rel="stylesheet">\\n\\n</head>\\n\\n<body class="">\\n\\n    <div id="wrapper">\\n\\n    <nav class="navbar-default navbar-static-side" role="navigation">\\n        <div class="sidebar-collapse">\\n            <ul class="nav metismenu" id="side-menu">\\n                <li class="nav-header">\\n                    <div class="dropdown profile-element">\\n                        <img alt="image" class="rounded-circle" src="\', escape=False)'
p103
sI14
S"response.write(URL('static', 'assets/img/user.png'))"
p104
sI15
S'response.write(\'"/>\\n                        <a data-toggle="dropdown" class="dropdown-toggle" href="#">\\n                            <span class="block m-t-xs font-bold"></span>\\n                            <span class="text-muted text-xs block"> \', escape=False)'
p105
sI16
S'response.write(str.upper(auth.user.first_name))'
p106
sI17
S'response.write(\'&nbsp;<b class="caret"></b></span>\\n                        </a>\\n                        <ul class="dropdown-menu animated fadeInRight m-t-xs">\\n                            <li><a class="dropdown-item" href="profile.html">\', escape=False)'
p107
sI18
S'response.write(str.upper(auth.user.first_name))'
p108
sI19
S'response.write(\'</a></li>\\n                            <li><a class="dropdown-item" href="contacts.html">Cambiar Contrase\\xc3\\xb1a</a></li>\\n                            \\n                            <li class="dropdown-divider"></li>\\n                            <li><a class="dropdown-item" href="\', escape=False)'
p109
sI20
S"response.write(URL('default', 'user', args=('logout')))"
p110
sI21
S'response.write(\'">Salir</a></li>\\n                        </ul>\\n                    </div>\\n                    <div class="logo-element">\\n                        D4\\n                    </div>\\n                </li>\\n               \\n               \', escape=False)'
p111
sI22
S"if auth.user.oficina == 'Super' :"
p112
sI23
S'    response.write(\' \\n                <li>\\n                        <a href="#"><i class="fa fa-plus-square-o"></i> <span class="nav-label">Sistema Confeccion </span><span class="fa arrow"></span></a>\\n                        <ul class="nav nav-second-level collapse">\\n\\n\\n                            <li>\\n                                <a href="#" id="damian"><i class="fa fa-laptop"></i>Mesa de entrada <span class="fa arrow"></span></a>\\n                                <ul class="nav nav-third-level">\\n                                    <li><a href="\', escape=False)'
p113
sI24
S"    response.write(URL('entrada', 'ingreso'))"
p114
sI25
S'    response.write(\'">Generar Solicitud</a></li>\\n                                    <li><a href="\', escape=False)'
p115
sI26
S"    response.write(URL('entrada', 'form_ver_estado'))"
p116
ssg83
S'()'
p117
sg85
S'<module>'
p118
sasS'pyver'
p119
S'Python 2.7.9: D:\\web2py\\web2py.exe (prefix: )'
p120
sS'session'
p121
g57
(S's\x1a\x00\x00\x00<div><table></table></div>'
tRp122
sS'etype'
p123
S"<type 'exceptions.AttributeError'>"
p124
sS'date'
p125
S'Fri Sep 06 09:42:53 2019'
p126
sS'response'
p127
g57
(S's\x98?\x00\x00<div><table><tr><td style="font-weight:bold;vertical-align:top;">body</td><td style="vertical-align:top;">:</td><td><div>&lt;cStringIO.StringO object at 0x03C6DFC0&gt;</div></td></tr><tr><td style="font-weight:bold;vertical-align:top;">cookies</td><td style="vertical-align:top;">:</td><td><div><table><tr><td style="font-weight:bold;vertical-align:top;">session_id_antecedentesplataforma</td><td style="vertical-align:top;">:</td><td><div>127.0.0.1-a74915bc-d961-4528-82d7-d28212dee229<table><tr><td style="font-weight:bold;vertical-align:top;">comment</td><td style="vertical-align:top;">:</td><td><div></div></td></tr><tr><td style="font-weight:bold;vertical-align:top;">domain</td><td style="vertical-align:top;">:</td><td><div></div></td></tr><tr><td style="font-weight:bold;vertical-align:top;">expires</td><td style="vertical-align:top;">:</td><td><div></div></td></tr><tr><td style="font-weight:bold;vertical-align:top;">httponly</td><td style="vertical-align:top;">:</td><td><div></div></td></tr><tr><td style="font-weight:bold;vertical-align:top;">max-age</td><td style="vertical-align:top;">:</td><td><div></div></td></tr><tr><td style="font-weight:bold;vertical-align:top;">path</td><td style="vertical-align:top;">:</td><td><div>/</div></td></tr><tr><td style="font-weight:bold;vertical-align:top;">secure</td><td style="vertical-align:top;">:</td><td><div></div></td></tr><tr><td style="font-weight:bold;vertical-align:top;">version</td><td style="vertical-align:top;">:</td><td><div></div></td></tr></table></div></td></tr></table></div></td></tr><tr><td style="font-weight:bold;vertical-align:top;">delimiters</td><td style="vertical-align:top;">:</td><td><div><table><tr><td><div>{{</div></td></tr><tr><td><div>}}</div></td></tr></table></div></td></tr><tr><td style="font-weight:bold;vertical-align:top;">files</td><td style="vertical-align:top;">:</td><td><div><table></table></div></td></tr><tr><td style="font-weight:bold;vertical-align:top;">flash</td><td style="vertical-align:top;">:</td><td><div></div></td></tr><tr><td style="font-weight:bold;vertical-align:top;">form_label_separator</td><td style="vertical-align:top;">:</td><td><div></div></td></tr><tr><td style="font-weight:bold;vertical-align:top;">formstyle</td><td style="vertical-align:top;">:</td><td><div>bootstrap3_inline</div></td></tr><tr><td style="font-weight:bold;vertical-align:top;">generic_patterns</td><td style="vertical-align:top;">:</td><td><div><table><tr><td><div>*</div></td></tr></table></div></td></tr><tr><td style="font-weight:bold;vertical-align:top;">google_analytics_id</td><td style="vertical-align:top;">:</td><td><div>None</div></td></tr><tr><td style="font-weight:bold;vertical-align:top;">headers</td><td style="vertical-align:top;">:</td><td><div><table><tr><td style="font-weight:bold;vertical-align:top;">X-Powered-By</td><td style="vertical-align:top;">:</td><td><div>web2py</div></td></tr></table></div></td></tr><tr><td style="font-weight:bold;vertical-align:top;">logo</td><td style="vertical-align:top;">:</td><td><div><a class="navbar-brand" href="http://www.web2py.com/" id="web2py-logo"><b>web<span>2</span>py</b>&trade;&nbsp;</a></div></td></tr><tr><td style="font-weight:bold;vertical-align:top;">menu</td><td style="vertical-align:top;">:</td><td><div><table><tr><td><div><table><tr><td><div>Inicio</div></td></tr><tr><td><div>False</div></td></tr><tr><td><div>/antecedentesplataforma/default/index</div></td></tr><tr><td><div><table></table></div></td></tr></table></div></td></tr><tr><td><div><table><tr><td><div>Mis Sitios</div></td></tr><tr><td><div>False</div></td></tr><tr><td><div>/admin/default/site</div></td></tr></table></div></td></tr><tr><td><div><table><tr><td><div>Esta Aplicaci\xc3\xb3n</div></td></tr><tr><td><div>False</div></td></tr><tr><td><div>#</div></td></tr><tr><td><div><table><tr><td><div><table><tr><td><div>Design</div></td></tr><tr><td><div>False</div></td></tr><tr><td><div>/admin/default/design/antecedentesplataforma</div></td></tr></table></div></td></tr><tr><td><div><li class="divider"></li></div></td></tr><tr><td><div><table><tr><td><div>Controlador</div></td></tr><tr><td><div>False</div></td></tr><tr><td><div>/admin/default/edit/antecedentesplataforma/controllers/padron.py</div></td></tr></table></div></td></tr><tr><td><div><table><tr><td><div>Vista</div></td></tr><tr><td><div>False</div></td></tr><tr><td><div>/admin/default/edit/antecedentesplataforma/views/padron/form_modificar.html</div></td></tr></table></div></td></tr><tr><td><div><table><tr><td><div>Modelo BDD</div></td></tr><tr><td><div>False</div></td></tr><tr><td><div>/admin/default/edit/antecedentesplataforma/models/db.py</div></td></tr></table></div></td></tr><tr><td><div><table><tr><td><div>Modelo "menu"</div></td></tr><tr><td><div>False</div></td></tr><tr><td><div>/admin/default/edit/antecedentesplataforma/models/menu.py</div></td></tr></table></div></td></tr><tr><td><div><table><tr><td><div>Config.ini</div></td></tr><tr><td><div>False</div></td></tr><tr><td><div>/admin/default/edit/antecedentesplataforma/private/appconfig.ini</div></td></tr></table></div></td></tr><tr><td><div><table><tr><td><div>Dise\xc3\xb1o de p\xc3\xa1gina</div></td></tr><tr><td><div>False</div></td></tr><tr><td><div>/admin/default/edit/antecedentesplataforma/views/layout.html</div></td></tr></table></div></td></tr><tr><td><div><table><tr><td><div>Hoja de estilo</div></td></tr><tr><td><div>False</div></td></tr><tr><td><div>/admin/default/edit/antecedentesplataforma/static/css/web2py-bootstrap3.css</div></td></tr></table></div></td></tr><tr><td><div><table><tr><td><div>Base de datos</div></td></tr><tr><td><div>False</div></td></tr><tr><td><div>/antecedentesplataforma/appadmin/index</div></td></tr></table></div></td></tr><tr><td><div><table><tr><td><div>Errores</div></td></tr><tr><td><div>False</div></td></tr><tr><td><div>/admin/default/errors/antecedentesplataforma</div></td></tr></table></div></td></tr><tr><td><div><table><tr><td><div>Acerca de</div></td></tr><tr><td><div>False</div></td></tr><tr><td><div>/admin/default/about/antecedentesplataforma</div></td></tr></table></div></td></tr></table></div></td></tr></table></div></td></tr><tr><td><div><table><tr><td><div>web2py.com</div></td></tr><tr><td><div>False</div></td></tr><tr><td><div>#</div></td></tr><tr><td><div><table><tr><td><div><table><tr><td><div>Descargas</div></td></tr><tr><td><div>False</div></td></tr><tr><td><div>http://www.web2py.com/examples/default/download</div></td></tr></table></div></td></tr><tr><td><div><table><tr><td><div>Soporte</div></td></tr><tr><td><div>False</div></td></tr><tr><td><div>http://www.web2py.com/examples/default/support</div></td></tr></table></div></td></tr><tr><td><div><table><tr><td><div>Demostraci\xc3\xb3n</div></td></tr><tr><td><div>False</div></td></tr><tr><td><div>http://web2py.com/demo_admin</div></td></tr></table></div></td></tr><tr><td><div><table><tr><td><div>Ejemplos R\xc3\xa1pidos</div></td></tr><tr><td><div>False</div></td></tr><tr><td><div>http://web2py.com/examples/default/examples</div></td></tr></table></div></td></tr><tr><td><div><table><tr><td><div>FAQ</div></td></tr><tr><td><div>False</div></td></tr><tr><td><div>http://web2py.com/AlterEgo</div></td></tr></table></div></td></tr><tr><td><div><table><tr><td><div>V\xc3\xaddeos</div></td></tr><tr><td><div>False</div></td></tr><tr><td><div>http://www.web2py.com/examples/default/videos/</div></td></tr></table></div></td></tr><tr><td><div><table><tr><td><div>Aplicaciones Libres</div></td></tr><tr><td><div>False</div></td></tr><tr><td><div>http://web2py.com/appliances</div></td></tr></table></div></td></tr><tr><td><div><table><tr><td><div>Plugins</div></td></tr><tr><td><div>False</div></td></tr><tr><td><div>http://web2py.com/plugins</div></td></tr></table></div></td></tr><tr><td><div><table><tr><td><div>Recetas</div></td></tr><tr><td><div>False</div></td></tr><tr><td><div>http://web2pyslices.com/</div></td></tr></table></div></td></tr></table></div></td></tr></table></div></td></tr><tr><td><div><table><tr><td><div>Documentaci\xc3\xb3n</div></td></tr><tr><td><div>False</div></td></tr><tr><td><div>#</div></td></tr><tr><td><div><table><tr><td><div><table><tr><td><div>Online book</div></td></tr><tr><td><div>False</div></td></tr><tr><td><div>http://www.web2py.com/book</div></td></tr></table></div></td></tr><tr><td><div><li class="divider"></li></div></td></tr><tr><td><div><table><tr><td><div>Prefacio</div></td></tr><tr><td><div>False</div></td></tr><tr><td><div>http://www.web2py.com/book/default/chapter/00</div></td></tr></table></div></td></tr><tr><td><div><table><tr><td><div>Introducci\xc3\xb3n</div></td></tr><tr><td><div>False</div></td></tr><tr><td><div>http://www.web2py.com/book/default/chapter/01</div></td></tr></table></div></td></tr><tr><td><div><table><tr><td><div>Python</div></td></tr><tr><td><div>False</div></td></tr><tr><td><div>http://www.web2py.com/book/default/chapter/02</div></td></tr></table></div></td></tr><tr><td><div><table><tr><td><div>Resumen</div></td></tr><tr><td><div>False</div></td></tr><tr><td><div>http://www.web2py.com/book/default/chapter/03</div></td></tr></table></div></td></tr><tr><td><div><table><tr><td><div>El N\xc3\xbacleo</div></td></tr><tr><td><div>False</div></td></tr><tr><td><div>http://www.web2py.com/book/default/chapter/04</div></td></tr></table></div></td></tr><tr><td><div><table><tr><td><div>Las Vistas</div></td></tr><tr><td><div>False</div></td></tr><tr><td><div>http://www.web2py.com/book/default/chapter/05</div></td></tr></table></div></td></tr><tr><td><div><table><tr><td><div>Base de datos</div></td></tr><tr><td><div>False</div></td></tr><tr><td><div>http://www.web2py.com/book/default/chapter/06</div></td></tr></table></div></td></tr><tr><td><div><table><tr><td><div>Formularios y validadores</div></td></tr><tr><td><div>False</div></td></tr><tr><td><div>http://www.web2py.com/book/default/chapter/07</div></td></tr></table></div></td></tr><tr><td><div><table><tr><td><div>Correo electr\xc3\xb3nico y SMS</div></td></tr><tr><td><div>False</div></td></tr><tr><td><div>http://www.web2py.com/book/default/chapter/08</div></td></tr></table></div></td></tr><tr><td><div><table><tr><td><div>Control de Acceso</div></td></tr><tr><td><div>False</div></td></tr><tr><td><div>http://www.web2py.com/book/default/chapter/09</div></td></tr></table></div></td></tr><tr><td><div><table><tr><td><div>Servicios</div></td></tr><tr><td><div>False</div></td></tr><tr><td><div>http://www.web2py.com/book/default/chapter/10</div></td></tr></table></div></td></tr><tr><td><div><table><tr><td><div>Recetas AJAX</div></td></tr><tr><td><div>False</div></td></tr><tr><td><div>http://www.web2py.com/book/default/chapter/11</div></td></tr></table></div></td></tr><tr><td><div><table><tr><td><div>Componentes y Plugins</div></td></tr><tr><td><div>False</div></td></tr><tr><td><div>http://www.web2py.com/book/default/chapter/12</div></td></tr></table></div></td></tr><tr><td><div><table><tr><td><div>Recetas de despliegue</div></td></tr><tr><td><div>False</div></td></tr><tr><td><div>http://www.web2py.com/book/default/chapter/13</div></td></tr></table></div></td></tr><tr><td><div><table><tr><td><div>Otras Recetas</div></td></tr><tr><td><div>False</div></td></tr><tr><td><div>http://www.web2py.com/book/default/chapter/14</div></td></tr></table></div></td></tr><tr><td><div><table><tr><td><div>Helping web2py</div></td></tr><tr><td><div>False</div></td></tr><tr><td><div>http://www.web2py.com/book/default/chapter/15</div></td></tr></table></div></td></tr><tr><td><div><table><tr><td><div>Buy web2py\'s book</div></td></tr><tr><td><div>False</div></td></tr><tr><td><div>http://stores.lulu.com/web2py</div></td></tr></table></div></td></tr></table></div></td></tr></table></div></td></tr><tr><td><div><table><tr><td><div>Comunidad</div></td></tr><tr><td><div>False</div></td></tr><tr><td><div>None</div></td></tr><tr><td><div><table><tr><td><div><table><tr><td><div>Grupos</div></td></tr><tr><td><div>False</div></td></tr><tr><td><div>http://www.web2py.com/examples/default/usergroups</div></td></tr></table></div></td></tr><tr><td><div><table><tr><td><div>Twitter</div></td></tr><tr><td><div>False</div></td></tr><tr><td><div>http://twitter.com/web2py</div></td></tr></table></div></td></tr><tr><td><div><table><tr><td><div>Chat en vivo</div></td></tr><tr><td><div>False</div></td></tr><tr><td><div>http://webchat.freenode.net/?channels=web2py</div></td></tr></table></div></td></tr></table></div></td></tr></table></div></td></tr></table></div></td></tr><tr><td style="font-weight:bold;vertical-align:top;">meta</td><td style="vertical-align:top;">:</td><td><div><table><tr><td style="font-weight:bold;vertical-align:top;">author</td><td style="vertical-align:top;">:</td><td><div>Your Name &lt;you@example.com&gt;</div></td></tr><tr><td style="font-weight:bold;vertical-align:top;">description</td><td style="vertical-align:top;">:</td><td><div>a cool new app</div></td></tr><tr><td style="font-weight:bold;vertical-align:top;">generator</td><td style="vertical-align:top;">:</td><td><div>Web2py Web Framework</div></td></tr><tr><td style="font-weight:bold;vertical-align:top;">keywords</td><td style="vertical-align:top;">:</td><td><div><table><tr><td><div>web2py</div></td></tr><tr><td><div>python</div></td></tr><tr><td><div>framework</div></td></tr></table></div></td></tr></table></div></td></tr><tr><td style="font-weight:bold;vertical-align:top;">models_to_run</td><td style="vertical-align:top;">:</td><td><div><table><tr><td><div>^\\w+\\.py$</div></td></tr><tr><td><div>^padron/\\w+\\.py$</div></td></tr><tr><td><div>^padron/form_modificar/\\w+\\.py$</div></td></tr></table></div></td></tr><tr><td style="font-weight:bold;vertical-align:top;">postprocessing</td><td style="vertical-align:top;">:</td><td><div><table></table></div></td></tr><tr><td style="font-weight:bold;vertical-align:top;">session_client</td><td style="vertical-align:top;">:</td><td><div>127.0.0.1</div></td></tr><tr><td style="font-weight:bold;vertical-align:top;">session_cookie_compression_level</td><td style="vertical-align:top;">:</td><td><div>None</div></td></tr><tr><td style="font-weight:bold;vertical-align:top;">session_cookie_expires</td><td style="vertical-align:top;">:</td><td><div>None</div></td></tr><tr><td style="font-weight:bold;vertical-align:top;">session_data_name</td><td style="vertical-align:top;">:</td><td><div>session_data_antecedentesplataforma</div></td></tr><tr><td style="font-weight:bold;vertical-align:top;">session_filename</td><td style="vertical-align:top;">:</td><td><div>D:\\web2py\\applications\\antecedentesplataforma\\sessions\\127.0.0.1-a0c8aed3-f335-42b6-8b80-38a9d5360853</div></td></tr><tr><td style="font-weight:bold;vertical-align:top;">session_hash</td><td style="vertical-align:top;">:</td><td><div>0354ef9c239cbac031ac8e3666018869</div></td></tr><tr><td style="font-weight:bold;vertical-align:top;">session_id</td><td style="vertical-align:top;">:</td><td><div>127.0.0.1-a0c8aed3-f335-42b6-8b80-38a9d5360853</div></td></tr><tr><td style="font-weight:bold;vertical-align:top;">session_id_name</td><td style="vertical-align:top;">:</td><td><div>session_id_antecedentesplataforma</div></td></tr><tr><td style="font-weight:bold;vertical-align:top;">session_locked</td><td style="vertical-align:top;">:</td><td><div>False</div></td></tr><tr><td style="font-weight:bold;vertical-align:top;">session_masterapp</td><td style="vertical-align:top;">:</td><td><div>antecedentesplataforma</div></td></tr><tr><td style="font-weight:bold;vertical-align:top;">session_new</td><td style="vertical-align:top;">:</td><td><div>True</div></td></tr><tr><td style="font-weight:bold;vertical-align:top;">session_storage_type</td><td style="vertical-align:top;">:</td><td><div>file</div></td></tr><tr><td style="font-weight:bold;vertical-align:top;">status</td><td style="vertical-align:top;">:</td><td><div>200</div></td></tr><tr><td style="font-weight:bold;vertical-align:top;">subtitle</td><td style="vertical-align:top;">:</td><td><div></div></td></tr><tr><td style="font-weight:bold;vertical-align:top;">title</td><td style="vertical-align:top;">:</td><td><div>Antecedentesplataforma</div></td></tr><tr><td style="font-weight:bold;vertical-align:top;">view</td><td style="vertical-align:top;">:</td><td><div>padron/form_modificar.html</div></td></tr></table></div>'
tRp128
sS'locals'
p129
(dp130
S'Service'
p131
S"<class 'gluon.tools.Service'>"
p132
sS'OBJECT'
p133
S"<class 'gluon.html.OBJECT'>"
p134
sS'SQLDB'
p135
S"<class 'pydal.base.DAL'>"
p136
sg121
S'<Storage {}>'
p137
sS'LINK'
p138
S"<class 'gluon.html.LINK'>"
p139
sS'BR'
p140
S"<class 'gluon.html.BR'>"
p141
sS'local_import'
p142
S'<function <lambda>>'
p143
sS'OPTGROUP'
p144
S"<class 'gluon.html.OPTGROUP'>"
p145
sS'__package__'
p146
S'None'
p147
sS'PRE'
p148
S"<class 'gluon.html.PRE'>"
p149
sS'IS_INT_IN_RANGE'
p150
S"<class 'gluon.validators.IS_INT_IN_RANGE'>"
p151
sS'IS_LOWER'
p152
S"<class 'gluon.validators.IS_LOWER'>"
p153
sS'IS_STRONG'
p154
S"<class 'gluon.validators.IS_STRONG'>"
p155
sS'cache'
p156
S'<gluon.cache.Cache object>'
p157
sS'IS_IN_DB'
p158
S"<class 'gluon.validators.IS_IN_DB'>"
p159
sS'TAG'
p160
S'<gluon.html.__TAG__ object>'
p161
sS'SQLField'
p162
S"<class 'pydal.objects.Field'>"
p163
sS'mail'
p164
S'<gluon.tools.Mail object>'
p165
sS'BODY'
p166
S"<class 'gluon.html.BODY'>"
p167
sS'IS_DATE_IN_RANGE'
p168
S"<class 'gluon.validators.IS_DATE_IN_RANGE'>"
p169
sS'IFRAME'
p170
S"<class 'gluon.html.IFRAME'>"
p171
sS'URL'
p172
S'<function URL>'
p173
sS'__file__'
p174
S"r'D:\\web2py\\applications\\antecedentesplataforma\\views\\padron/form_modificar.html'"
p175
sS'db'
p176
S'<DAL uri="sqlite://storage.sqlite">'
p177
sS'auth'
p178
S'<gluon.tools.Auth object>'
p179
sS'P'
S"<class 'gluon.html.P'>"
p180
sS'TFOOT'
p181
S"<class 'gluon.html.TFOOT'>"
p182
sS'XHTML'
p183
S"<class 'gluon.html.XHTML'>"
p184
sS'ON'
p185
S'True'
p186
sS'OL'
p187
S"<class 'gluon.html.OL'>"
p188
sS'TEXTAREA'
p189
S"<class 'gluon.html.TEXTAREA'>"
p190
sS'MENU'
p191
S"<class 'gluon.html.MENU'>"
p192
sS'IS_IMAGE'
p193
S"<class 'gluon.validators.IS_IMAGE'>"
p194
sS'EM'
p195
S"<class 'gluon.html.EM'>"
p196
sS'CODE'
p197
S"<class 'gluon.html.CODE'>"
p198
sS'HTTP'
p199
S"<class 'gluon.http.HTTP'>"
p200
sS'HR'
p201
S"<class 'gluon.html.HR'>"
p202
sS'IS_DATETIME'
p203
S"<class 'gluon.validators.IS_DATETIME'>"
p204
sS'STYLE'
p205
S"<class 'gluon.html.STYLE'>"
p206
sS'LABEL'
p207
S"<class 'gluon.html.LABEL'>"
p208
sS'CLEANUP'
p209
S"<class 'gluon.validators.CLEANUP'>"
p210
sS'plugins'
p211
S'<gluon.tools.PluginManager object>'
p212
sS'SELECT'
p213
S"<class 'gluon.html.SELECT'>"
p214
sS'CENTER'
p215
S"<class 'gluon.html.CENTER'>"
p216
sS'Auth'
p217
S"<class 'gluon.tools.Auth'>"
p218
sS'DEVELOPMENT_MENU'
p219
g186
sS'__builtins__'
p220
S"{'ArithmeticError': <type 'exceptions.ArithmeticError'>, 'AssertionError': <type 'exceptions.AssertionError'>, 'AttributeError': <type 'exceptions.AttributeError'>, 'BaseException': <type 'exceptions.BaseException'>, 'BufferError': <type 'exceptions.BufferError'>, 'BytesWarning': <type 'exceptions.BytesWarning'>, 'DeprecationWarning': <type 'exceptions.DeprecationWarning'>, 'EOFError': <type 'exceptions.EOFError'>, 'Ellipsis': Ellipsis, 'EnvironmentError': <type 'exceptions.EnvironmentError'>, ...}"
p221
sS'HTML'
p222
S"<class 'gluon.html.HTML'>"
p223
sS'SQLFORM'
p224
S"<class 'gluon.sqlhtml.SQLFORM'>"
p225
sS'LOAD'
p226
S'<function LOAD>'
p227
sS'redirect'
p228
S'<function redirect>'
p229
sS'FIELDSET'
p230
S"<class 'gluon.html.FIELDSET'>"
p231
sS'IS_EQUAL_TO'
p232
S"<class 'gluon.validators.IS_EQUAL_TO'>"
p233
sS'embed64'
p234
S'<function embed64>'
p235
sS'IS_LIST_OF'
p236
S"<class 'gluon.validators.IS_LIST_OF'>"
p237
sS'INPUT'
p238
S"<class 'gluon.html.INPUT'>"
p239
sS'EMBED'
p240
S"<class 'gluon.html.EMBED'>"
p241
sS'_'
S'<function _>'
p242
sS'myconf'
p243
S"{'forms': {'formstyle': 'bootstrap3_inline', 'se...': {'names': 'localhost:*, 127.0.0.1:*, *:*, *'}}"
p244
sS'H2'
p245
S"<class 'gluon.html.H2'>"
p246
sS'H3'
p247
S"<class 'gluon.html.H3'>"
p248
sS'AppConfig'
p249
S'<function AppConfig>'
p250
sS'H1'
p251
S"<class 'gluon.html.H1'>"
p252
sS'H6'
p253
S"<class 'gluon.html.H6'>"
p254
sS'H4'
p255
S"<class 'gluon.html.H4'>"
p256
sS'H5'
p257
S"<class 'gluon.html.H5'>"
p258
sS'UL'
p259
S"<class 'gluon.html.UL'>"
p260
sS'IS_UPPER'
p261
S"<class 'gluon.validators.IS_UPPER'>"
p262
sS'xmlescape'
p263
S'<function xmlescape>'
p264
sS'IS_TIME'
p265
S"<class 'gluon.validators.IS_TIME'>"
p266
sS'OPTION'
p267
S"<class 'gluon.html.OPTION'>"
p268
sS'TITLE'
p269
S"<class 'gluon.html.TITLE'>"
p270
sS'CRYPT'
p271
S"<class 'gluon.validators.CRYPT'>"
p272
sS'IS_EMPTY_OR'
p273
S"<class 'gluon.validators.IS_EMPTY_OR'>"
p274
sS'MARKMIN'
p275
S"<class 'gluon.html.MARKMIN'>"
p276
sS'__name__'
p277
S"'__restricted__'"
p278
sS'STRONG'
p279
S"<class 'gluon.html.STRONG'>"
p280
sS'COL'
p281
S"<class 'gluon.html.COL'>"
p282
sS'ape'
p283
S"'ULIVAR'"
p284
sS'service'
p285
S'<gluon.tools.Service object>'
p286
sS'SCRIPT'
p287
S"<class 'gluon.html.SCRIPT'>"
p288
sS'dni'
p289
S"'29917029'"
p290
sS'TABLE'
p291
S"<class 'gluon.html.TABLE'>"
p292
sS'IS_IPV4'
p293
S"<class 'gluon.validators.IS_IPV4'>"
p294
sS'IS_LENGTH'
p295
S"<class 'gluon.validators.IS_LENGTH'>"
p296
sS'IS_IPV6'
p297
S"<class 'gluon.validators.IS_IPV6'>"
p298
sS'XML'
p299
S"<class 'gluon.html.XML'>"
p300
sS'B'
S"<class 'gluon.html.B'>"
p301
sS'IMG'
p302
S"<class 'gluon.html.IMG'>"
p303
sS'SQLTABLE'
p304
S"<class 'gluon.sqlhtml.SQLTABLE'>"
p305
sS'IS_MATCH'
p306
S"<class 'gluon.validators.IS_MATCH'>"
p307
sS'IS_ALPHANUMERIC'
p308
S"<class 'gluon.validators.IS_ALPHANUMERIC'>"
p309
sS'SPAN'
p310
S"<class 'gluon.html.SPAN'>"
p311
sS'IS_JSON'
p312
S"<class 'gluon.validators.IS_JSON'>"
p313
sS'IS_IPADDRESS'
p314
S"<class 'gluon.validators.IS_IPADDRESS'>"
p315
sS'IS_SLUG'
p316
S"<class 'gluon.validators.IS_SLUG'>"
p317
sS'BEAUTIFY'
p318
S"<class 'gluon.html.BEAUTIFY'>"
p319
sS'META'
p320
S"<class 'gluon.html.META'>"
p321
sS'BUTTON'
p322
S"<class 'gluon.html.BUTTON'>"
p323
sS'IS_DATE'
p324
S"<class 'gluon.validators.IS_DATE'>"
p325
sS'IS_EMAIL'
p326
S"<class 'gluon.validators.IS_EMAIL'>"
p327
sS'nom'
p328
S"'JUAN ANTONIO'"
p329
sS'IS_NOT_EMPTY'
p330
S"<class 'gluon.validators.IS_NOT_EMPTY'>"
p331
sS'IS_FLOAT_IN_RANGE'
p332
S"<class 'gluon.validators.IS_FLOAT_IN_RANGE'>"
p333
sS'TBODY'
p334
S"<class 'gluon.html.TBODY'>"
p335
sS'CAT'
p336
S"<class 'gluon.html.CAT'>"
p337
sS'Field'
p338
S"<class 'pydal.objects.Field'>"
p339
sS'IS_LIST_OF_EMAILS'
p340
S"<class 'gluon.validators.IS_LIST_OF_EMAILS'>"
p341
sS'DIV'
p342
S"<class 'gluon.html.DIV'>"
p343
sS'LEGEND'
p344
S"<class 'gluon.html.LEGEND'>"
p345
sS'form'
p346
S'<gluon.sqlhtml.SQLFORM object>'
p347
sS'COLGROUP'
p348
S"<class 'gluon.html.COLGROUP'>"
p349
sS'DAL'
p350
S"<class 'pydal.base.DAL'>"
p351
sS'ASSIGNJS'
p352
S'<function ASSIGNJS>'
p353
sS'TR'
p354
S"<class 'gluon.html.TR'>"
p355
sS'LI'
p356
S"<class 'gluon.html.LI'>"
p357
sS'TH'
p358
S"<class 'gluon.html.TH'>"
p359
sS'TD'
p360
S"<class 'gluon.html.TD'>"
p361
sS'PluginManager'
p362
S"<class 'gluon.tools.PluginManager'>"
p363
sS'IS_URL'
p364
S"<class 'gluon.validators.IS_URL'>"
p365
sS'A'
S"<class 'gluon.html.A'>"
p366
sS'HEAD'
p367
S"<class 'gluon.html.HEAD'>"
p368
sS'IS_DATETIME_IN_RANGE'
p369
S"<class 'gluon.validators.IS_DATETIME_IN_RANGE'>"
p370
sS'FORM'
p371
S"<class 'gluon.html.FORM'>"
p372
sS'I'
S"<class 'gluon.html.I'>"
p373
sS'IS_NOT_IN_DB'
p374
S"<class 'gluon.validators.IS_NOT_IN_DB'>"
p375
sg127
S"<Storage {'body': <cStringIO.StringO object at 0...0364A770>, 'view': 'padron/form_modificar.html'}>"
p376
sS'THEAD'
p377
S"<class 'gluon.html.THEAD'>"
p378
sS'ANY_OF'
p379
S"<class 'gluon.validators.ANY_OF'>"
p380
sS'IS_NULL_OR'
p381
S"<class 'gluon.validators.IS_EMPTY_OR'>"
p382
sS'ide'
p383
S"'150519'"
p384
sg56
S"<Storage {'_vars': None, 'function': 'form_modif...web2py\\\\applications\\\\antecedentesplataforma\\\\'}>"
p385
sS'IS_EXPR'
p386
S"<class 'gluon.validators.IS_EXPR'>"
p387
sS'T'
S'<gluon.languages.translator object>'
p388
sS'IS_IN_SET'
p389
S"<class 'gluon.validators.IS_IN_SET'>"
p390
sS'IS_UPLOAD_FILENAME'
p391
S"<class 'gluon.validators.IS_UPLOAD_FILENAME'>"
p392
sS'TT'
p393
S"<class 'gluon.html.TT'>"
p394
sS'IS_DECIMAL_IN_RANGE'
p395
S"<class 'gluon.validators.IS_DECIMAL_IN_RANGE'>"
p396
sssS'traceback'
p397
S'Traceback (most recent call last):\n  File "D:\\web2py\\gluon\\restricted.py", line 227, in restricted\n    exec ccode in environment\n  File "D:\\web2py\\applications\\antecedentesplataforma\\views\\padron/form_modificar.html", line 16, in <module>\n    font-size:16px;background: red;}\nAttributeError: \'NoneType\' object has no attribute \'first_name\'\n'
p398
s.