(dp1
S'output'
p2
S"<type 'exceptions.SyntaxError'> Set: no tables selected"
p3
sS'layer'
p4
S'D:\\web2py\\applications\\antecedentesplataforma\\controllers/entrada.py'
p5
sS'code'
p6
S'\n    \ndef entrada():\n    return dict()\n\n\n\t\n    \ndef ingreso():\n\t#poner un valor por defecto a un campo del formulario    \n\tform=SQLFORM.factory(    \n    Field(\'valor\',\'string\',label="Ingrese Un Dni/Pasaporte",requires=IS_NOT_EMPTY(error_message=\'El campo puede estar vac\xc3\xado\'))\n    \n    )         \n    \tif form.accepts(request,session):\n    \t\tresponse.flash = \'formulario aceptado\'\n    \t\tredirect(URL(c=\'entrada\',f=\'comprobacion\',args=[form.vars.valor]))\n    \telif form.errors:\n        \tresponse.flash = \'el formulario tiene errores\'\n    \telse:\n        \tresponse.flash = \'por favor complete el formulario\'  \n\treturn dict(form=form)\ndef comprobacion():\n    dnpa=request.args[0]\n    setpa=db((db.padron.DocumentoNro==dnpa)|(db.padron.Pasaporte==dnpa)).select()\n    tiene=len(setpa)\n    if tiene==0:\n        redirect(URL(c=\'padron\',f=\'sin\',args=[dnpa]))#si no esta en la tabla padron redirecciona\n    else:#si esta en la tabla padron mustro los datos\n        for x in setpa:\n            apellido=x.Apellido\n            nombre=x.Nombre\n            tipo=x.IdProntuarioTipo\n            nprontuario=x.ProntuarioNro \n            genero=x.Genero \n       \n        \n\n\n    return dict(setpa=setpa,dnpa=dnpa,apellido=apellido,nombre=nombre,tipo=tipo,nprontuario=nprontuario,genero=genero)\n\ndef convencional():\n    dnpa=request.args[0]#recojo los datos que vengo trayendo de dni\n    apellido=request.args[1]\n    nombre=request.args[2]\n    tipo=request.args[3]\n    nprontuario=request.args[4]\n    genero=request.args[5]\n    setsoli=db(db.solicitud.dni==dnpa).select()#pregunto si se encuentra el dni en la tabla solicitud\n    if len(setsoli)>0:#si tiene almenos uno\n        for x in setsoli:#recorro el set para sacar datos\n            estado=x.estado_solicitud                                       \n            intervino=x.intervino\n            ide=x.id\n        redirect(URL(c=\'entrada\',f=\'tsolicitud\',args=[dnpa,apellido,nombre,tipo,nprontuario,estado,intervino,ide,genero]))\n        #redirecciono para ver si que tiempo de solicitud tiene\n    else:\n        #redirecciono si no  tiene registro en la tabla solicitud\n        redirect(URL(c=\'entrada\',f=\'sin_solicitud\',args=[dnpa,apellido,nombre,genero,tipo,nprontuario]))#si no esta en la tabla padron redirecciona\n    return dict(setsoli=setsoli,ide=ide)\n\ndef tsolicitud():\n    from datetime import *\n    from time import time\n    from datetime import datetime\n\n    #capturo paramertros\n\n    dnpa=request.args[0]#recojo los datos que vengo trayendo de dni\n    apellido=request.args[1]    \n    nombre=request.args[2]\n    tipo=request.args[3]\n    nprontuario=request.args[4]\n    estado=request.args[5]     \n    intervino=request.args[6]\n    ide=request.args[7]\n    genero=request.args[8]\n\n    setsoli=db(db.solicitud.id==ide).select()#pregunto si se encuentra el dni en la tabla solicitud\n    oyfecha=datetime.today()\n    formato="%d/%m/%Y"\n    hoyfecha= oyfecha.strftime("%d/%m/%Y")#capturo la hora de hoy\n    hoy_fecha=datetime.strptime(hoyfecha,formato)#convierto el string a fecha para comparar\n\n    for x in setsoli:\n       \n        turno_fecha=x.fecha_solicitada#saco la fecha de la ultima solicitud\n        turno_hora=x.hora_solicitada#saco la hora de la ultima solicitud\n\n    if ((turno_fecha=="")&(turno_hora=="")):#si no tiene hora redirecciono\n        redirect(URL(c=\'entrada\',f=\'nueva_solicitud\',args=[dnpa,apellido,nombre,tipo,nprontuarion,estado,intervino,ide,genero]))\n\n    \n    #elif ((turno_fecha!="")&(turno_hora!="")):\n        #turno_phoy=turno_fecha+""+turno_hora#concateno la fecha y hora de la ultima solicitud\n        #format_fecha="%d/%m/%Y"    \n \n        #ultima_solicitud=datetime.strptime(turno_fecha,format_fecha)#paso a string la ultiam fecha de solicitud\n        \n\n\n        #if oyfecha<ultima_solicitud: #comparo las fechas para ver si hay error \n            #redirect(URL(c=\'errores\',f=\'error_fecha\',args=[hoyfecha,ultima_solicitud]))\n        #elif oyfecha>ultima_solicitud:\n            #result=oyfecha-ultima_solicitud  #resto la fecha de hoy y la fecha de ultima solicitud\n            #resulta=str(result.days)     #obtengo la cantidad de dias \n\n        #if resulta>=179:#pregunto si resulta es menor a 6 meses para usar el ultimo certificado\n\n\n           #tiene="Menor a 6 meses"\n           #if (estado=="Completado"):\n                #redirect(URL(c=\'entrada\',f=\'pregunta_solicitud\'))# pregunto si quiero imprimir el ultimo certifiado          \n\n        #elif resulta <179 :\n            #tiene="mayor a 6 meses"\n            #redirect(URL(c=\'entrada\',f=\'nueva_solicitud\',args=[dnpa,apellido,nombre,tipo,nprontuarion,estado,intervino,ide,genero]))        \n\n        \n\n  \n\n\n\n\n\n\n\n\n    return dict(dnpa=dnpa,apellido=apellido,nombre=nombre,tipo=tipo,nprontuario=nprontuario,estado=estado,intervino=intervino,hoyfecha=hoyfecha,setsoli=setsoli)#,turno_fecha=turno_fecha,\n        #turno_hora=turno_hora,hoy_fecha=hoy_fecha,turno_phoy=turno_phoy,tiene=tiene,ultima_solicitud=ultima_solicitud,ide=ide,genero=genero)\n\ndef sin_solicitud():\n    #recojo los valores\n\n    dnpa=request.args(0)\n    apellido=request.args(1)\n    nombre=request.args(2)\n    genero=request.args(5)\n    tipo=request.args(3)\n    nprontuario=request.args(4)\n    #estado,intervino,ide    \n    \n    estado=""\n    intervino=""\n    \n    db.solicitud.insert(dni=dnpa,apellido=apellido,nombre=nombre,genero=genero,tipo_prontuario=tipo,prontuario=nprontuario,estado_solicitud=estado,intervino=intervino)\n    #dnpa,apellido,nombre,tipo,nprontuario,estado,intervino,ide,genero\n    comprobar=db(db.solicitud==dnpa).select()\n    ide=comprobar.ide\n    intervino=comprobar.intervino\n\n\n\n    redirect(URL(c=\'entrada\',f=\'convencional\',args=[dnpa,apellido,nombre,tipo,nprontuario,estado,intervino,ide,genero]))\n  \n    return dict()  \n\ndef nueva_solicitud():\n\n   \n\n\n    dnpa=request.args[0]#recojo los datos que vengo trayendo de dni\n    apellido=request.args[1]\n    nombre=request.args[2]\n    tipo=request.args[3]\n    nprontuario=request.args[4]\n    estado=request.args[5]     \n    intervino=request.args[6]\n    ide=request.args[7]\n    genero=request.args[8]\n\n\n\n    return dict(dnpa=dnpa,apellido=apellido,nombre=nombre,tipo=tipo,nprontuario=nprontuario,estado=estado,ide=ide,genero=genero)\n\n\ndef form_solicitud():\n    from datetime import *\n    from time import time\n    from datetime import datetime\n    dnpa=request.args[0]#recojo los datos que vengo trayendo de dni\n    apellido=request.args[1]\n    nombre=request.args[2]\n    tipo=request.args[3]\n    nprontuario=request.args[4]\n    estado=request.args[5]       \n    ide=request.args[6]\n    genero=request.args[7]\n    oyfecha=datetime.today()#tomo la fecha de hoy\n    formato="%d/%m/%Y"\n    hoyfecha= oyfecha.strftime("%d/%m/%Y")#capturo la hora de hoy\n    hora=datetime.now().strftime("%H:%M:%S") #capturo la hora\n    quien=auth.user.id\n    user=db(db.auth_user.id==quien).select().first()#pregunto quien esta logueado\n    usuario_nombre=user.first_name\n    usuario_apellido=user.last_name\n    usuario=usuario_nombre+" "+usuario_apellido#concateno cadena para generar el nombre del usuario\n    #genero una nueva entrada en la tabla solicitud\n    db.solicitud.insert(dni=dnpa,apellido=apellido,nombre=nombre,Tprontuario=tipo,ProntuarioNro=nprontuario,Estado_solicitud="Pendiente",usuario=usuario,Fecha_solicitada=hoyfecha,Hora=hora,genero=genero  )\n    \n    \n\n\n    \n\n    return dict(dnpa=dnpa,apellido=apellido,nombre=nombre,tipo=tipo,nprontuario=nprontuario,estado=estado,ide=ide,usuario_nombre=usuario_nombre,usuario=usuario\n        ,hora=hora,hoyfecha=hoyfecha)\n    \n\n\ndef web():\n\n    return dict()\n\n\ndef consilicitud():\n    #haciendo de nuevo la funcion (habra) para ver si se puede resumir\n    #variables\n    feca=""\n    \n    \n    \n    \n    from datetime import *\n    from time import time\n    atrapa=request.args[0]#atrapo el valor ingresado\n    quees=request.args[1]#atrapo el tipo si dni o pasaporte #\n    feca=datetime.today()\n    formato="%d/%m/%Y"\n    hoyfecha= feca.strftime("%d/%m/%Y")#capturo la hora de hoy\n    fhoyfecha=datetime.strptime(hoyfecha,formato)#convierto el string a fecha para comparar\n    #pregunto si es un dni o un pasaporte\n    if quees=="DNI":\n        query1=db(db.padron.dni==atrapa).select()#pregunto si el dni esta en la base de datos del padron\n        if len(query1)==0:\n            redirect(URL(c=\'confeccion\',f=\'sin_dni\',args=[atrapa,quees]))#si no esta en la tabla padron redirecciona\n\n        \n\n        elif len(query1)>0:#pregunto si tiene almenos un registro\n            query2=db(db.solicitud.dni==atrapa).select()\n            if len(query2)==0:\n                redirect(URL(c=\'confeccion\',f=\'procesar\',args=[atrapa,quees]))\n            elif len(query2)>0:\n                for x in query2:\n                    estado=x.Estado_solicitud\n                    dni=x.dni\n                    nombre=x.nombre\n                    apellido=x.apellido                \n                    ultimafecha=x.Fecha_solicitada#capturo el ultima dia de solicitud                            \n                    fultimafecha=datetime.strptime(ultimafecha,formato)\n                    ultimahora=x.Hora#capturola ultima hora de solicitud                 \n                    \n                if fultimafecha>fhoyfecha  :#pregunto si hay error en las fechas\n                    error="ERROR"\n                    redirect(URL(c=\'errores\',f=\'error_fecha\',args=[ultimafecha,hoyfecha]))\n                elif fultimafecha<fhoyfecha  :#pregunto si hay error en las fechas\n                    error="NINGUN ERROR"#\n                    if ((estado=="Anulado")|(estado=="")):\n                        redirect(URL(c=\'confeccion\',f=\'procesar\',args=[atrapa,quees]))\n                    if (estado=="Completado"):\n                        diferencia=fhoyfecha-fulti               \n                                                                    \n                                                       \n                        #else:#tiene mas de\n                    #if ((estado=="Anulado")              \n\n                \n\n\n       \n    elif quees=="PASAPORTE": #si dice  q no es un pasaporte\n        query1=db(db.padron.pasaporte==atrapa).select()#pregunto si el pasaporte esta en la base de datos del padron\n        #if len(query1)==0:\n            #redirect(URL(c=\'confeccion\',f=\'sin_dni\',args=[atrapa,quees]))#si no esta en la tabla padron redirecciona\n        #else:\n            #query2=db(db.solicitud.pasaporte==atrapa).select()\n            #if len(query2)==0:\n                #redirect(URL(c=\'confeccion\',f=\'procesar\',args=[atrapa,quees]))\n            #else:\n                #pirnt("sigo")\n\n\n    return dict(ultimafecha=ultimafecha,ultimahora=ultimahora,nombre=nombre,apellido=apellido,dni=dni,estado=estado,quees=quees) \n          \n\n\nresponse._vars=response._caller(sin_solicitud)\n'
p7
sS'snapshot'
p8
(dp9
S'exception'
p10
(dp11
S'__getslice__'
p12
S"<method-wrapper '__getslice__' of exceptions.SyntaxError object>"
p13
sS'text'
p14
S'None'
p15
sS'__str__'
p16
S"<method-wrapper '__str__' of exceptions.SyntaxError object>"
p17
sS'__reduce__'
p18
S'<built-in method __reduce__ of exceptions.SyntaxError object>'
p19
sS'__dict__'
p20
S'{}'
p21
sS'__sizeof__'
p22
S'<built-in method __sizeof__ of exceptions.SyntaxError object>'
p23
sS'__init__'
p24
S"<method-wrapper '__init__' of exceptions.SyntaxError object>"
p25
sS'__setattr__'
p26
S"<method-wrapper '__setattr__' of exceptions.SyntaxError object>"
p27
sS'__reduce_ex__'
p28
S'<built-in method __reduce_ex__ of exceptions.SyntaxError object>'
p29
sS'__new__'
p30
S'<built-in method __new__ of type object>'
p31
sS'__format__'
p32
S'<built-in method __format__ of exceptions.SyntaxError object>'
p33
sS'__class__'
p34
S"<type 'exceptions.SyntaxError'>"
p35
sS'filename'
p36
S'None'
p37
sS'lineno'
p38
S'None'
p39
sS'msg'
p40
S"'Set: no tables selected'"
p41
sS'__doc__'
p42
S"'Invalid syntax.'"
p43
sS'__getitem__'
p44
S"<method-wrapper '__getitem__' of exceptions.SyntaxError object>"
p45
sS'__setstate__'
p46
S'<built-in method __setstate__ of exceptions.SyntaxError object>'
p47
sS'__getattribute__'
p48
S"<method-wrapper '__getattribute__' of exceptions.SyntaxError object>"
p49
sS'print_file_and_line'
p50
S'None'
p51
sS'args'
p52
S"('Set: no tables selected',)"
p53
sS'__subclasshook__'
p54
S'<built-in method __subclasshook__ of type object>'
p55
sS'offset'
p56
S'None'
p57
sS'__unicode__'
p58
S'<built-in method __unicode__ of exceptions.SyntaxError object>'
p59
sS'__delattr__'
p60
S"<method-wrapper '__delattr__' of exceptions.SyntaxError object>"
p61
sS'__repr__'
p62
S"<method-wrapper '__repr__' of exceptions.SyntaxError object>"
p63
sS'__hash__'
p64
S"<method-wrapper '__hash__' of exceptions.SyntaxError object>"
p65
ssS'evalue'
p66
S'Set: no tables selected'
p67
sS'request'
p68
cgluon.html
XML_unpickle
p69
(S's0^\x00\x00<div><table><tr><td style="font-weight:bold;vertical-align:top;">ajax</td><td style="vertical-align:top;">:</td><td><div>False</div></td></tr><tr><td style="font-weight:bold;vertical-align:top;">application</td><td style="vertical-align:top;">:</td><td><div>antecedentesplataforma</div></td></tr><tr><td style="font-weight:bold;vertical-align:top;">args</td><td style="vertical-align:top;">:</td><td><div><table><tr><td><div>26804871</div></td></tr><tr><td><div>DIOSQUE</div></td></tr><tr><td><div>MARIO_EDGARDO</div></td></tr><tr><td><div>M</div></td></tr><tr><td><div>1</div></td></tr><tr><td><div>151578</div></td></tr></table></div></td></tr><tr><td style="font-weight:bold;vertical-align:top;">cid</td><td style="vertical-align:top;">:</td><td><div>None</div></td></tr><tr><td style="font-weight:bold;vertical-align:top;">client</td><td style="vertical-align:top;">:</td><td><div>127.0.0.1</div></td></tr><tr><td style="font-weight:bold;vertical-align:top;">controller</td><td style="vertical-align:top;">:</td><td><div>entrada</div></td></tr><tr><td style="font-weight:bold;vertical-align:top;">cookies</td><td style="vertical-align:top;">:</td><td><div><table><tr><td style="font-weight:bold;vertical-align:top;">session_id_admin</td><td style="vertical-align:top;">:</td><td><div>127.0.0.1-5003143d-954a-44e9-8e50-e48123534714<table><tr><td style="font-weight:bold;vertical-align:top;">comment</td><td style="vertical-align:top;">:</td><td><div></div></td></tr><tr><td style="font-weight:bold;vertical-align:top;">domain</td><td style="vertical-align:top;">:</td><td><div></div></td></tr><tr><td style="font-weight:bold;vertical-align:top;">expires</td><td style="vertical-align:top;">:</td><td><div></div></td></tr><tr><td style="font-weight:bold;vertical-align:top;">httponly</td><td style="vertical-align:top;">:</td><td><div></div></td></tr><tr><td style="font-weight:bold;vertical-align:top;">max-age</td><td style="vertical-align:top;">:</td><td><div></div></td></tr><tr><td style="font-weight:bold;vertical-align:top;">path</td><td style="vertical-align:top;">:</td><td><div></div></td></tr><tr><td style="font-weight:bold;vertical-align:top;">secure</td><td style="vertical-align:top;">:</td><td><div></div></td></tr><tr><td style="font-weight:bold;vertical-align:top;">version</td><td style="vertical-align:top;">:</td><td><div></div></td></tr></table></div></td></tr><tr><td style="font-weight:bold;vertical-align:top;">session_id_antecedentesplataforma</td><td style="vertical-align:top;">:</td><td><div>127.0.0.1-29c6c8c7-fa63-4b20-bddd-506b60a7eaf6<table><tr><td style="font-weight:bold;vertical-align:top;">comment</td><td style="vertical-align:top;">:</td><td><div></div></td></tr><tr><td style="font-weight:bold;vertical-align:top;">domain</td><td style="vertical-align:top;">:</td><td><div></div></td></tr><tr><td style="font-weight:bold;vertical-align:top;">expires</td><td style="vertical-align:top;">:</td><td><div></div></td></tr><tr><td style="font-weight:bold;vertical-align:top;">httponly</td><td style="vertical-align:top;">:</td><td><div></div></td></tr><tr><td style="font-weight:bold;vertical-align:top;">max-age</td><td style="vertical-align:top;">:</td><td><div></div></td></tr><tr><td style="font-weight:bold;vertical-align:top;">path</td><td style="vertical-align:top;">:</td><td><div></div></td></tr><tr><td style="font-weight:bold;vertical-align:top;">secure</td><td style="vertical-align:top;">:</td><td><div></div></td></tr><tr><td style="font-weight:bold;vertical-align:top;">version</td><td style="vertical-align:top;">:</td><td><div></div></td></tr></table></div></td></tr><tr><td style="font-weight:bold;vertical-align:top;">session_id_welcome</td><td style="vertical-align:top;">:</td><td><div>127.0.0.1-3a6c756f-9813-46f3-9a88-cc024faff895<table><tr><td style="font-weight:bold;vertical-align:top;">comment</td><td style="vertical-align:top;">:</td><td><div></div></td></tr><tr><td style="font-weight:bold;vertical-align:top;">domain</td><td style="vertical-align:top;">:</td><td><div></div></td></tr><tr><td style="font-weight:bold;vertical-align:top;">expires</td><td style="vertical-align:top;">:</td><td><div></div></td></tr><tr><td style="font-weight:bold;vertical-align:top;">httponly</td><td style="vertical-align:top;">:</td><td><div></div></td></tr><tr><td style="font-weight:bold;vertical-align:top;">max-age</td><td style="vertical-align:top;">:</td><td><div></div></td></tr><tr><td style="font-weight:bold;vertical-align:top;">path</td><td style="vertical-align:top;">:</td><td><div></div></td></tr><tr><td style="font-weight:bold;vertical-align:top;">secure</td><td style="vertical-align:top;">:</td><td><div></div></td></tr><tr><td style="font-weight:bold;vertical-align:top;">version</td><td style="vertical-align:top;">:</td><td><div></div></td></tr></table></div></td></tr></table></div></td></tr><tr><td style="font-weight:bold;vertical-align:top;">env</td><td style="vertical-align:top;">:</td><td><div><table><tr><td style="font-weight:bold;vertical-align:top;">HTTP_ACCEPT</td><td style="vertical-align:top;">:</td><td><div>text/html,application/xhtml+xml,application/xml;q=0.9,image/webp,image/apng,*/*;q=0.8,application/signed-exchange;v=b3</div></td></tr><tr><td style="font-weight:bold;vertical-align:top;">HTTP_ACCEPT_ENCODING</td><td style="vertical-align:top;">:</td><td><div>gzip, deflate, br</div></td></tr><tr><td style="font-weight:bold;vertical-align:top;">HTTP_ACCEPT_LANGUAGE</td><td style="vertical-align:top;">:</td><td><div>es-ES,es;q=0.9,en;q=0.8</div></td></tr><tr><td style="font-weight:bold;vertical-align:top;">HTTP_CACHE_CONTROL</td><td style="vertical-align:top;">:</td><td><div>max-age=0</div></td></tr><tr><td style="font-weight:bold;vertical-align:top;">HTTP_CONNECTION</td><td style="vertical-align:top;">:</td><td><div>keep-alive</div></td></tr><tr><td style="font-weight:bold;vertical-align:top;">HTTP_COOKIE</td><td style="vertical-align:top;">:</td><td><div>session_id_welcome=127.0.0.1-3a6c756f-9813-46f3-9a88-cc024faff895; session_id_admin=127.0.0.1-5003143d-954a-44e9-8e50-e48123534714; session_id_antecedentesplataforma=127.0.0.1-29c6c8c7-fa63-4b20-bddd-506b60a7eaf6</div></td></tr><tr><td style="font-weight:bold;vertical-align:top;">HTTP_HOST</td><td style="vertical-align:top;">:</td><td><div>127.0.0.1:8000</div></td></tr><tr><td style="font-weight:bold;vertical-align:top;">HTTP_UPGRADE_INSECURE_REQUESTS</td><td style="vertical-align:top;">:</td><td><div>1</div></td></tr><tr><td style="font-weight:bold;vertical-align:top;">HTTP_USER_AGENT</td><td style="vertical-align:top;">:</td><td><div>Mozilla/5.0 (Windows NT 6.1) AppleWebKit/537.36 (KHTML, like Gecko) Chrome/73.0.3683.86 Safari/537.36</div></td></tr><tr><td style="font-weight:bold;vertical-align:top;">PATH_INFO</td><td style="vertical-align:top;">:</td><td><div>/antecedentesplataforma/entrada/sin_solicitud/26804871/DIOSQUE/MARIO_EDGARDO/M/1/151578</div></td></tr><tr><td style="font-weight:bold;vertical-align:top;">QUERY_STRING</td><td style="vertical-align:top;">:</td><td><div></div></td></tr><tr><td style="font-weight:bold;vertical-align:top;">REMOTE_ADDR</td><td style="vertical-align:top;">:</td><td><div>127.0.0.1</div></td></tr><tr><td style="font-weight:bold;vertical-align:top;">REMOTE_PORT</td><td style="vertical-align:top;">:</td><td><div>5449</div></td></tr><tr><td style="font-weight:bold;vertical-align:top;">REQUEST_METHOD</td><td style="vertical-align:top;">:</td><td><div>GET</div></td></tr><tr><td style="font-weight:bold;vertical-align:top;">SCRIPT_NAME</td><td style="vertical-align:top;">:</td><td><div></div></td></tr><tr><td style="font-weight:bold;vertical-align:top;">SERVER_NAME</td><td style="vertical-align:top;">:</td><td><div>HaTaK3-PC</div></td></tr><tr><td style="font-weight:bold;vertical-align:top;">SERVER_PORT</td><td style="vertical-align:top;">:</td><td><div>8000</div></td></tr><tr><td style="font-weight:bold;vertical-align:top;">SERVER_PROTOCOL</td><td style="vertical-align:top;">:</td><td><div>HTTP/1.1</div></td></tr><tr><td style="font-weight:bold;vertical-align:top;">SERVER_SOFTWARE</td><td style="vertical-align:top;">:</td><td><div>Rocket 1.2.6</div></td></tr><tr><td style="font-weight:bold;vertical-align:top;">app_folders</td><td style="vertical-align:top;">:</td><td><div>set([&#x27;D:\\\\web2py\\\\applications\\\\admin\\\\&#x27;, &#x27;D:\\\\web2py\\\\applications\\\\welcome\\\\&#x27;, &#x27;D:\\\\web2py\\\\applications\\\\antecedentesplataforma\\\\&#x27;])</div></td></tr><tr><td style="font-weight:bold;vertical-align:top;">applications_parent</td><td style="vertical-align:top;">:</td><td><div>D:\\web2py</div></td></tr><tr><td style="font-weight:bold;vertical-align:top;">cmd_args</td><td style="vertical-align:top;">:</td><td><div><table></table></div></td></tr><tr><td style="font-weight:bold;vertical-align:top;">cmd_options</td><td style="vertical-align:top;">:</td><td><div>&lt;Values at 0x27bcd50: {&#x27;verbose&#x27;: False, &#x27;ip&#x27;: &#x27;127.0.0.1&#x27;, &#x27;debuglevel&#x27;: 30, &#x27;with_scheduler&#x27;: False, &#x27;shutdown_timeout&#x27;: 5, &#x27;taskbar&#x27;: False, &#x27;with_coverage&#x27;: False, &#x27;pid_filename&#x27;: &#x27;httpserver.pid&#x27;, &#x27;maxthreads&#x27;: None, &#x27;softcron&#x27;: False, &#x27;server_name&#x27;: &#x27;HaTaK3-PC&#x27;, &#x27;bpython&#x27;: False, &#x27;nogui&#x27;: False, &#x27;port&#x27;: 8000, &#x27;print_errors&#x27;: False, &#x27;extcron&#x27;: False, &#x27;runcron&#x27;: False, &#x27;run_system_tests&#x27;: False, &#x27;test&#x27;: None, &#x27;folder&#x27;: &#x27;D:\\\\web2py&#x27;, &#x27;config&#x27;: &#x27;&#x27;, &#x27;minthreads&#x27;: None, &#x27;shell&#x27;: None, &#x27;run&#x27;: &#x27;&#x27;, &#x27;log_filename&#x27;: &#x27;httpserver.log&#x27;, &#x27;profiler_dir&#x27;: None, &#x27;args&#x27;: [&#x27;&#x27;], &#x27;socket_timeout&#x27;: 5, &#x27;ssl_ca_certificate&#x27;: None, &#x27;scheduler&#x27;: None, &#x27;interfaces&#x27;: None, &#x27;ssl_private_key&#x27;: &#x27;&#x27;, &#x27;gae&#x27;: None, &#x27;password&#x27;: &#x27;******&#x27;, &#x27;request_queue_size&#x27;: 5, &#x27;ssl_certificate&#x27;: &#x27;&#x27;, &#x27;cronjob&#x27;: False, &#x27;numthreads&#x27;: None, &#x27;quiet&#x27;: False, &#x27;import_models&#x27;: False, &#x27;timeout&#x27;: 10, &#x27;plain&#x27;: False, &#x27;nobanner&#x27;: False}&gt;</div></td></tr><tr><td style="font-weight:bold;vertical-align:top;">db_sessions</td><td style="vertical-align:top;">:</td><td><div>set([])</div></td></tr><tr><td style="font-weight:bold;vertical-align:top;">debugging</td><td style="vertical-align:top;">:</td><td><div>False</div></td></tr><tr><td style="font-weight:bold;vertical-align:top;">gluon_parent</td><td style="vertical-align:top;">:</td><td><div>D:\\web2py</div></td></tr><tr><td style="font-weight:bold;vertical-align:top;">http_accept</td><td style="vertical-align:top;">:</td><td><div>text/html,application/xhtml+xml,application/xml;q=0.9,image/webp,image/apng,*/*;q=0.8,application/signed-exchange;v=b3</div></td></tr><tr><td style="font-weight:bold;vertical-align:top;">http_accept_encoding</td><td style="vertical-align:top;">:</td><td><div>gzip, deflate, br</div></td></tr><tr><td style="font-weight:bold;vertical-align:top;">http_accept_language</td><td style="vertical-align:top;">:</td><td><div>es-ES,es;q=0.9,en;q=0.8</div></td></tr><tr><td style="font-weight:bold;vertical-align:top;">http_cache_control</td><td style="vertical-align:top;">:</td><td><div>max-age=0</div></td></tr><tr><td style="font-weight:bold;vertical-align:top;">http_connection</td><td style="vertical-align:top;">:</td><td><div>keep-alive</div></td></tr><tr><td style="font-weight:bold;vertical-align:top;">http_cookie</td><td style="vertical-align:top;">:</td><td><div>session_id_welcome=127.0.0.1-3a6c756f-9813-46f3-9a88-cc024faff895; session_id_admin=127.0.0.1-5003143d-954a-44e9-8e50-e48123534714; session_id_antecedentesplataforma=127.0.0.1-29c6c8c7-fa63-4b20-bddd-506b60a7eaf6</div></td></tr><tr><td style="font-weight:bold;vertical-align:top;">http_host</td><td style="vertical-align:top;">:</td><td><div>127.0.0.1:8000</div></td></tr><tr><td style="font-weight:bold;vertical-align:top;">http_upgrade_insecure_requests</td><td style="vertical-align:top;">:</td><td><div>1</div></td></tr><tr><td style="font-weight:bold;vertical-align:top;">http_user_agent</td><td style="vertical-align:top;">:</td><td><div>Mozilla/5.0 (Windows NT 6.1) AppleWebKit/537.36 (KHTML, like Gecko) Chrome/73.0.3683.86 Safari/537.36</div></td></tr><tr><td style="font-weight:bold;vertical-align:top;">is_jython</td><td style="vertical-align:top;">:</td><td><div>False</div></td></tr><tr><td style="font-weight:bold;vertical-align:top;">is_pypy</td><td style="vertical-align:top;">:</td><td><div>False</div></td></tr><tr><td style="font-weight:bold;vertical-align:top;">is_source</td><td style="vertical-align:top;">:</td><td><div>False</div></td></tr><tr><td style="font-weight:bold;vertical-align:top;">local_hosts</td><td style="vertical-align:top;">:</td><td><div><table><tr><td><div>10.10.0.69</div></td></tr><tr><td><div>HaTaK3-PC</div></td></tr><tr><td><div>::ffff:127.0.0.1</div></td></tr><tr><td><div>::1</div></td></tr><tr><td><div>fe80::65c7:8cfe:1866:2ddb%12</div></td></tr><tr><td><div>fe80::6de3:fa60:8d1c:59aa%11</div></td></tr><tr><td><div>127.0.0.1</div></td></tr><tr><td><div>192.168.56.1</div></td></tr></table></div></td></tr><tr><td style="font-weight:bold;vertical-align:top;">path_info</td><td style="vertical-align:top;">:</td><td><div>/antecedentesplataforma/entrada/sin_solicitud/26804871/DIOSQUE/MARIO_EDGARDO/M/1/151578</div></td></tr><tr><td style="font-weight:bold;vertical-align:top;">query_string</td><td style="vertical-align:top;">:</td><td><div></div></td></tr><tr><td style="font-weight:bold;vertical-align:top;">remote_addr</td><td style="vertical-align:top;">:</td><td><div>127.0.0.1</div></td></tr><tr><td style="font-weight:bold;vertical-align:top;">remote_port</td><td style="vertical-align:top;">:</td><td><div>5449</div></td></tr><tr><td style="font-weight:bold;vertical-align:top;">request_method</td><td style="vertical-align:top;">:</td><td><div>GET</div></td></tr><tr><td style="font-weight:bold;vertical-align:top;">request_uri</td><td style="vertical-align:top;">:</td><td><div>/antecedentesplataforma/entrada/sin_solicitud/26804871/DIOSQUE/MARIO_EDGARDO/M/1/151578</div></td></tr><tr><td style="font-weight:bold;vertical-align:top;">script_name</td><td style="vertical-align:top;">:</td><td><div></div></td></tr><tr><td style="font-weight:bold;vertical-align:top;">server_name</td><td style="vertical-align:top;">:</td><td><div>HaTaK3-PC</div></td></tr><tr><td style="font-weight:bold;vertical-align:top;">server_port</td><td style="vertical-align:top;">:</td><td><div>8000</div></td></tr><tr><td style="font-weight:bold;vertical-align:top;">server_protocol</td><td style="vertical-align:top;">:</td><td><div>HTTP/1.1</div></td></tr><tr><td style="font-weight:bold;vertical-align:top;">server_software</td><td style="vertical-align:top;">:</td><td><div>Rocket 1.2.6</div></td></tr><tr><td style="font-weight:bold;vertical-align:top;">web2py_path</td><td style="vertical-align:top;">:</td><td><div>D:\\web2py</div></td></tr><tr><td style="font-weight:bold;vertical-align:top;">web2py_version</td><td style="vertical-align:top;">:</td><td><div>2.14.6-stable+timestamp.2016.05.10.00.21.47</div></td></tr><tr><td style="font-weight:bold;vertical-align:top;">wsgi.errors</td><td style="vertical-align:top;">:</td><td><div>&lt;open file &#x27;&lt;stderr&gt;&#x27;, mode &#x27;w&#x27; at 0x0122D0D0&gt;</div></td></tr><tr><td style="font-weight:bold;vertical-align:top;">wsgi.file_wrapper</td><td style="vertical-align:top;">:</td><td><div>&lt;class wsgiref.util.FileWrapper at 0x0271D4C8&gt;</div></td></tr><tr><td style="font-weight:bold;vertical-align:top;">wsgi.input</td><td style="vertical-align:top;">:</td><td><div>&lt;socket._fileobject object at 0x03AD1C70&gt;</div></td></tr><tr><td style="font-weight:bold;vertical-align:top;">wsgi.multiprocess</td><td style="vertical-align:top;">:</td><td><div>False</div></td></tr><tr><td style="font-weight:bold;vertical-align:top;">wsgi.multithread</td><td style="vertical-align:top;">:</td><td><div>True</div></td></tr><tr><td style="font-weight:bold;vertical-align:top;">wsgi.run_once</td><td style="vertical-align:top;">:</td><td><div>False</div></td></tr><tr><td style="font-weight:bold;vertical-align:top;">wsgi.url_scheme</td><td style="vertical-align:top;">:</td><td><div>http</div></td></tr><tr><td style="font-weight:bold;vertical-align:top;">wsgi.version</td><td style="vertical-align:top;">:</td><td><div><table><tr><td><div>1</div></td></tr><tr><td><div>0</div></td></tr></table></div></td></tr><tr><td style="font-weight:bold;vertical-align:top;">wsgi_errors</td><td style="vertical-align:top;">:</td><td><div>&lt;open file &#x27;&lt;stderr&gt;&#x27;, mode &#x27;w&#x27; at 0x0122D0D0&gt;</div></td></tr><tr><td style="font-weight:bold;vertical-align:top;">wsgi_file_wrapper</td><td style="vertical-align:top;">:</td><td><div>&lt;class wsgiref.util.FileWrapper at 0x0271D4C8&gt;</div></td></tr><tr><td style="font-weight:bold;vertical-align:top;">wsgi_input</td><td style="vertical-align:top;">:</td><td><div>&lt;socket._fileobject object at 0x03AD1C70&gt;</div></td></tr><tr><td style="font-weight:bold;vertical-align:top;">wsgi_multiprocess</td><td style="vertical-align:top;">:</td><td><div>False</div></td></tr><tr><td style="font-weight:bold;vertical-align:top;">wsgi_multithread</td><td style="vertical-align:top;">:</td><td><div>True</div></td></tr><tr><td style="font-weight:bold;vertical-align:top;">wsgi_run_once</td><td style="vertical-align:top;">:</td><td><div>False</div></td></tr><tr><td style="font-weight:bold;vertical-align:top;">wsgi_url_scheme</td><td style="vertical-align:top;">:</td><td><div>http</div></td></tr><tr><td style="font-weight:bold;vertical-align:top;">wsgi_version</td><td style="vertical-align:top;">:</td><td><div><table><tr><td><div>1</div></td></tr><tr><td><div>0</div></td></tr></table></div></td></tr></table></div></td></tr><tr><td style="font-weight:bold;vertical-align:top;">extension</td><td style="vertical-align:top;">:</td><td><div>html</div></td></tr><tr><td style="font-weight:bold;vertical-align:top;">folder</td><td style="vertical-align:top;">:</td><td><div>D:\\web2py\\applications\\antecedentesplataforma\\</div></td></tr><tr><td style="font-weight:bold;vertical-align:top;">function</td><td style="vertical-align:top;">:</td><td><div>sin_solicitud</div></td></tr><tr><td style="font-weight:bold;vertical-align:top;">global_settings</td><td style="vertical-align:top;">:</td><td><div><table><tr><td style="font-weight:bold;vertical-align:top;">app_folders</td><td style="vertical-align:top;">:</td><td><div>set([&#x27;D:\\\\web2py\\\\applications\\\\admin\\\\&#x27;, &#x27;D:\\\\web2py\\\\applications\\\\welcome\\\\&#x27;, &#x27;D:\\\\web2py\\\\applications\\\\antecedentesplataforma\\\\&#x27;])</div></td></tr><tr><td style="font-weight:bold;vertical-align:top;">applications_parent</td><td style="vertical-align:top;">:</td><td><div>D:\\web2py</div></td></tr><tr><td style="font-weight:bold;vertical-align:top;">cmd_args</td><td style="vertical-align:top;">:</td><td><div><table></table></div></td></tr><tr><td style="font-weight:bold;vertical-align:top;">cmd_options</td><td style="vertical-align:top;">:</td><td><div>&lt;Values at 0x27bcd50: {&#x27;verbose&#x27;: False, &#x27;ip&#x27;: &#x27;127.0.0.1&#x27;, &#x27;debuglevel&#x27;: 30, &#x27;with_scheduler&#x27;: False, &#x27;shutdown_timeout&#x27;: 5, &#x27;taskbar&#x27;: False, &#x27;with_coverage&#x27;: False, &#x27;pid_filename&#x27;: &#x27;httpserver.pid&#x27;, &#x27;maxthreads&#x27;: None, &#x27;softcron&#x27;: False, &#x27;server_name&#x27;: &#x27;HaTaK3-PC&#x27;, &#x27;bpython&#x27;: False, &#x27;nogui&#x27;: False, &#x27;port&#x27;: 8000, &#x27;print_errors&#x27;: False, &#x27;extcron&#x27;: False, &#x27;runcron&#x27;: False, &#x27;run_system_tests&#x27;: False, &#x27;test&#x27;: None, &#x27;folder&#x27;: &#x27;D:\\\\web2py&#x27;, &#x27;config&#x27;: &#x27;&#x27;, &#x27;minthreads&#x27;: None, &#x27;shell&#x27;: None, &#x27;run&#x27;: &#x27;&#x27;, &#x27;log_filename&#x27;: &#x27;httpserver.log&#x27;, &#x27;profiler_dir&#x27;: None, &#x27;args&#x27;: [&#x27;&#x27;], &#x27;socket_timeout&#x27;: 5, &#x27;ssl_ca_certificate&#x27;: None, &#x27;scheduler&#x27;: None, &#x27;interfaces&#x27;: None, &#x27;ssl_private_key&#x27;: &#x27;&#x27;, &#x27;gae&#x27;: None, &#x27;password&#x27;: &#x27;******&#x27;, &#x27;request_queue_size&#x27;: 5, &#x27;ssl_certificate&#x27;: &#x27;&#x27;, &#x27;cronjob&#x27;: False, &#x27;numthreads&#x27;: None, &#x27;quiet&#x27;: False, &#x27;import_models&#x27;: False, &#x27;timeout&#x27;: 10, &#x27;plain&#x27;: False, &#x27;nobanner&#x27;: False}&gt;</div></td></tr><tr><td style="font-weight:bold;vertical-align:top;">db_sessions</td><td style="vertical-align:top;">:</td><td><div>set([])</div></td></tr><tr><td style="font-weight:bold;vertical-align:top;">debugging</td><td style="vertical-align:top;">:</td><td><div>False</div></td></tr><tr><td style="font-weight:bold;vertical-align:top;">gluon_parent</td><td style="vertical-align:top;">:</td><td><div>D:\\web2py</div></td></tr><tr><td style="font-weight:bold;vertical-align:top;">is_jython</td><td style="vertical-align:top;">:</td><td><div>False</div></td></tr><tr><td style="font-weight:bold;vertical-align:top;">is_pypy</td><td style="vertical-align:top;">:</td><td><div>False</div></td></tr><tr><td style="font-weight:bold;vertical-align:top;">is_source</td><td style="vertical-align:top;">:</td><td><div>False</div></td></tr><tr><td style="font-weight:bold;vertical-align:top;">local_hosts</td><td style="vertical-align:top;">:</td><td><div><table><tr><td><div>10.10.0.69</div></td></tr><tr><td><div>HaTaK3-PC</div></td></tr><tr><td><div>::ffff:127.0.0.1</div></td></tr><tr><td><div>::1</div></td></tr><tr><td><div>fe80::65c7:8cfe:1866:2ddb%12</div></td></tr><tr><td><div>fe80::6de3:fa60:8d1c:59aa%11</div></td></tr><tr><td><div>127.0.0.1</div></td></tr><tr><td><div>192.168.56.1</div></td></tr></table></div></td></tr><tr><td style="font-weight:bold;vertical-align:top;">web2py_version</td><td style="vertical-align:top;">:</td><td><div>2.14.6-stable+timestamp.2016.05.10.00.21.47</div></td></tr></table></div></td></tr><tr><td style="font-weight:bold;vertical-align:top;">is_https</td><td style="vertical-align:top;">:</td><td><div>False</div></td></tr><tr><td style="font-weight:bold;vertical-align:top;">is_local</td><td style="vertical-align:top;">:</td><td><div>True</div></td></tr><tr><td style="font-weight:bold;vertical-align:top;">is_restful</td><td style="vertical-align:top;">:</td><td><div>False</div></td></tr><tr><td style="font-weight:bold;vertical-align:top;">is_scheduler</td><td style="vertical-align:top;">:</td><td><div>False</div></td></tr><tr><td style="font-weight:bold;vertical-align:top;">is_shell</td><td style="vertical-align:top;">:</td><td><div>False</div></td></tr><tr><td style="font-weight:bold;vertical-align:top;">now</td><td style="vertical-align:top;">:</td><td><div>datetime.datetime(2019, 4, 8, 9, 59, 42, 471000)</div></td></tr><tr><td style="font-weight:bold;vertical-align:top;">raw_args</td><td style="vertical-align:top;">:</td><td><div>26804871/DIOSQUE/MARIO_EDGARDO/M/1/151578</div></td></tr><tr><td style="font-weight:bold;vertical-align:top;">raw_extension</td><td style="vertical-align:top;">:</td><td><div>None</div></td></tr><tr><td style="font-weight:bold;vertical-align:top;">url</td><td style="vertical-align:top;">:</td><td><div>/antecedentesplataforma/entrada/sin_solicitud/26804871/DIOSQUE/MARIO_EDGARDO/M/1/151578</div></td></tr><tr><td style="font-weight:bold;vertical-align:top;">utcnow</td><td style="vertical-align:top;">:</td><td><div>datetime.datetime(2019, 4, 8, 12, 59, 42, 471000)</div></td></tr><tr><td style="font-weight:bold;vertical-align:top;">wsgi</td><td style="vertical-align:top;">:</td><td><div>&lt;gluon.main.LazyWSGI object at 0x03A1F770&gt;</div></td></tr></table></div>'
tRp70
sS'frames'
p71
(lp72
(dp73
S'file'
p74
S'D:\\web2py\\gluon\\restricted.py'
p75
sS'dump'
p76
(dp77
S'environment'
p78
S"{'A': <class 'gluon.html.A'>, 'ANY_OF': <class 'gluon.validators.ANY_OF'>, 'ASSIGNJS': <function ASSIGNJS>, 'AppConfig': <function AppConfig>, 'Auth': <class 'gluon.tools.Auth'>, 'B': <class 'gluon.html.B'>, 'BEAUTIFY': <class 'gluon.html.BEAUTIFY'>, 'BODY': <class 'gluon.html.BODY'>, 'BR': <class 'gluon.html.BR'>, 'BUTTON': <class 'gluon.html.BUTTON'>, ...}"
p79
sS'ccode'
p80
S'<code object <module> at 03E56BA8, file "D:\\web2...dentesplataforma\\controllers/entrada.py", line 3>'
p81
ssS'lnum'
p82
I227
sS'lines'
p83
(dp84
I224
S'            ccode = code'
p85
sI225
S'        else:'
p86
sI226
S'            ccode = compile2(code, layer)'
p87
sI227
S'        exec ccode in environment'
p88
sI228
S'    except HTTP:'
p89
sI229
S'        raise'
p90
sI230
S'    except RestrictedError:'
p91
sI231
S'        # do not encapsulate (obfuscate) the original RestrictedError'
p92
sI222
S'    try:'
p93
sI223
S'        if isinstance(code, types.CodeType):'
p94
ssS'call'
p95
S"(code='\\n    \\ndef entrada():\\n    return dict()\\n\\n\\n\\t\\n    \\n...\\n\\nresponse._vars=response._caller(sin_solicitud)\\n', environment={'A': <class 'gluon.html.A'>, 'ANY_OF': <class 'gluon.validators.ANY_OF'>, 'ASSIGNJS': <function ASSIGNJS>, 'AppConfig': <function AppConfig>, 'Auth': <class 'gluon.tools.Auth'>, 'B': <class 'gluon.html.B'>, 'BEAUTIFY': <class 'gluon.html.BEAUTIFY'>, 'BODY': <class 'gluon.html.BODY'>, 'BR': <class 'gluon.html.BR'>, 'BUTTON': <class 'gluon.html.BUTTON'>, ...}, layer=r'D:\\web2py\\applications\\antecedentesplataforma\\controllers/entrada.py')"
p96
sS'func'
p97
S'restricted'
p98
sa(dp99
g74
S'D:\\web2py\\applications\\antecedentesplataforma\\controllers\\entrada.py'
p100
sg76
(dp101
sg82
I290
sg83
(dp102
I288
S''
sI279
S'            #query2=db(db.solicitud.pasaporte==atrapa).select()'
p103
sI280
S'            #if len(query2)==0:'
p104
sI281
S"                #redirect(URL(c='confeccion',f='procesar',args=[atrapa,quees]))"
p105
sI282
S'            #else:'
p106
sI283
S'                #pirnt("sigo")'
p107
sI284
S''
sI285
S''
sI286
S'    return dict(ultimafecha=ultimafecha,ultimahora=ultimahora,nombre=nombre,apellido=apellido,dni=dni,estado=estado,quees=quees)'
p108
sI287
S''
ssg95
S'()'
p109
sg97
S'<module>'
p110
sa(dp111
g74
S'D:\\web2py\\gluon\\globals.py'
p112
sg76
(dp113
S'self'
p114
S'undefined'
p115
sS'f'
S'<function sin_solicitud>'
p116
ssg82
I417
sg83
(dp117
I416
S'        self._vars = None'
p118
sI417
S'        self._caller = lambda f: f()'
p119
sI418
S'        self._view_environment = None'
p120
sI419
S'        self._custom_commit = None'
p121
sI420
S'        self._custom_rollback = None'
p122
sI421
S"        self.generic_patterns = ['*']"
p123
sI412
S"        self.flash = ''            # used by the default view layout"
p124
sI413
S'        self.meta = Storage()      # used by web2py_ajax.html'
p125
sI414
S'        self.menu = []             # used by the default view layout'
p126
sI415
S'        self.files = []            # used by web2py_ajax.html'
p127
ssg95
S'(f=<function sin_solicitud>)'
p128
sg97
S'<lambda>'
p129
sa(dp130
g74
S'D:\\web2py\\applications\\antecedentesplataforma\\controllers\\entrada.py'
p131
sg76
(dp132
S'global request'
p133
S"<Storage {'_vars': None, 'function': 'sin_solici...web2py\\\\applications\\\\antecedentesplataforma\\\\'}>"
p134
sS'request.args'
p135
S"['26804871', 'DIOSQUE', 'MARIO_EDGARDO', 'M', '1', '151578']"
p136
sS'ide'
p137
g115
ssg82
I149
sg83
(dp138
I144
S'    estado=""'
p139
sI145
S'    intervino=""'
p140
sI146
S''
sI147
S'    db.solicitud.insert(dni=dnpa,apellido=apellido,nombre=nombre,genero=genero,tipo_prontuario=tipo,prontuario=nprontuario,estado_solicitud=estado,intervino=intervino)'
p141
sI148
S'    #dnpa,apellido,nombre,tipo,nprontuario,estado,intervino,ide,genero'
p142
sI149
S'    comprobar=db(db.solicitud==dnpa).select()'
p143
sI150
S'    ide=comprobar.ide'
p144
sI151
S'    intervino=comprobar.intervino'
p145
sI152
S''
sI153
S''
ssg95
S'()'
p146
sg97
S'sin_solicitud'
p147
sa(dp148
g74
S'D:\\web2py\\gluon\\packages\\dal\\pydal\\objects.py'
p149
sg76
(dp150
S'self.query'
p151
S'False'
p152
sS'adapter.select'
p153
S'<bound method SQLiteAdapter.select of <pydal.adapters.sqlite.SQLiteAdapter object>>'
p154
sS'fields'
p155
S'[]'
p156
sS'adapter'
p157
S'<pydal.adapters.sqlite.SQLiteAdapter object>'
p158
sS'attributes'
p159
g21
sS'self'
p160
S'<Set 0>'
p161
ssg82
I2020
sg83
(dp162
I2016
S"                                    attributes.get('left', None),"
p163
sI2017
S"                                    attributes.get('orderby', None),"
p164
sI2018
S"                                    attributes.get('groupby', None))"
p165
sI2019
S'        fields = adapter.expand_all(fields, tablenames)'
p166
sI2020
S'        return adapter.select(self.query, fields, attributes)'
p167
sI2021
S''
sI2022
S'    def iterselect(self, *fields, **attributes):'
p168
sI2023
S'        adapter = self.db._adapter'
p169
sI2024
S'        tablenames = adapter.tables(self.query,'
p170
sI2015
S"                                    attributes.get('join', None),"
p171
ssg95
S'(self=<Set 0>, *fields=[], **attributes={})'
p172
sg97
S'select'
p173
sa(dp174
g74
S'D:\\web2py\\gluon\\packages\\dal\\pydal\\adapters\\sqlite.py'
p175
sg76
(dp176
S'fields'
p177
S'[]'
p178
sS'self'
p179
S'<pydal.adapters.sqlite.SQLiteAdapter object>'
p180
sS').select'
p181
S'<bound method SQLiteAdapter.select of <pydal.adapters.sqlite.SQLiteAdapter object>>'
p182
sS'attributes'
p183
g21
sS'global SQLiteAdapter'
p184
S"<class 'pydal.adapters.sqlite.SQLiteAdapter'>"
p185
sS'query'
p186
g152
sS'builtinsuper'
p187
S"<type 'super'>"
p188
ssg82
I123
sg83
(dp189
I118
S'        Note that the entire database, rather than one record, is locked'
p190
sI119
S'        (it will be locked eventually anyway by the following UPDATE).'
p191
sI120
S'        """'
p192
sI121
S"        if attributes.get('for_update', False) and not 'cache' in attributes:"
p193
sI122
S"            self.execute('BEGIN IMMEDIATE TRANSACTION;')"
p194
sI123
S'        return super(SQLiteAdapter, self).select(query, fields, attributes)'
p195
sI124
S''
sI125
S''
sI126
S'SPATIALLIBS = {'
p196
sI127
S"    'Windows':'mod_spatialite.dll',"
p197
ssg95
S'(self=<pydal.adapters.sqlite.SQLiteAdapter object>, query=False, fields=[], attributes={})'
p198
sg97
g173
sa(dp199
g74
S'D:\\web2py\\gluon\\packages\\dal\\pydal\\adapters\\base.py'
p200
sg76
(dp201
S'self._select'
p202
S'<bound method SQLiteAdapter._select of <pydal.adapters.sqlite.SQLiteAdapter object>>'
p203
sS'fields'
p204
S'[]'
p205
sS'self'
p206
S'<pydal.adapters.sqlite.SQLiteAdapter object>'
p207
sS'sql'
p208
g115
sS'query'
p209
g152
sS'attributes'
p210
g21
ssg82
I1283
sg83
(dp211
I1280
S'        """'
p212
sI1281
S'        Always returns a Rows object, possibly empty.'
p213
sI1282
S'        """'
p214
sI1283
S'        sql = self._select(query, fields, attributes)'
p215
sI1284
S"        cache = attributes.get('cache', None)"
p216
sI1285
S"        if cache and attributes.get('cacheable',False):"
p217
sI1286
S"            del attributes['cache']"
p218
sI1287
S'            (cache_model, time_expire) = cache'
p219
sI1278
S''
sI1279
S'    def select(self, query, fields, attributes):'
p220
ssg95
S'(self=<pydal.adapters.sqlite.SQLiteAdapter object>, query=False, fields=[], attributes={})'
p221
sg97
g173
sa(dp222
g74
S'D:\\web2py\\gluon\\packages\\dal\\pydal\\adapters\\base.py'
p223
sg76
(dp224
S'builtinSyntaxError'
p225
S"<type 'exceptions.SyntaxError'>"
p226
ssg82
I1102
sg83
(dp227
I1097
S'            for tablename in tables(field):'
p228
sI1098
S'                if not tablename in tablenames:'
p229
sI1099
S'                    tablenames.append(tablename)'
p230
sI1100
S''
sI1101
S'        if len(tablenames) < 1:'
p231
sI1102
S"            raise SyntaxError('Set: no tables selected')"
p232
sI1103
S'        def colexpand(field):'
p233
sI1104
S'            return self.expand(field, colnames=True)'
p234
sI1105
S'        self._colnames = list(map(colexpand, fields))'
p235
sI1106
S'        def geoexpand(field):'
p236
ssg95
S'(self=<pydal.adapters.sqlite.SQLiteAdapter object>, query=False, fields=[], attributes={})'
p237
sg97
S'_select'
p238
sasS'pyver'
p239
S'Python 2.7.9: D:\\web2py\\web2py.exe (prefix: )'
p240
sS'session'
p241
g69
(S's\x8e\x0b\x00\x00<div><table><tr><td style="font-weight:bold;vertical-align:top;">auth</td><td style="vertical-align:top;">:</td><td><div><table><tr><td style="font-weight:bold;vertical-align:top;">expiration</td><td style="vertical-align:top;">:</td><td><div>3600</div></td></tr><tr><td style="font-weight:bold;vertical-align:top;">hmac_key</td><td style="vertical-align:top;">:</td><td><div>f35683bb-7fcf-48a9-b0cb-187b588f9efd</div></td></tr><tr><td style="font-weight:bold;vertical-align:top;">last_visit</td><td style="vertical-align:top;">:</td><td><div>datetime.datetime(2019, 4, 8, 9, 58, 5, 18000)</div></td></tr><tr><td style="font-weight:bold;vertical-align:top;">remember_me</td><td style="vertical-align:top;">:</td><td><div>False</div></td></tr><tr><td style="font-weight:bold;vertical-align:top;">user</td><td style="vertical-align:top;">:</td><td><div><table><tr><td style="font-weight:bold;vertical-align:top;">dni</td><td style="vertical-align:top;">:</td><td><div>29917029</div></td></tr><tr><td style="font-weight:bold;vertical-align:top;">email</td><td style="vertical-align:top;">:</td><td><div>juan@ulivar.com</div></td></tr><tr><td style="font-weight:bold;vertical-align:top;">first_name</td><td style="vertical-align:top;">:</td><td><div>juan</div></td></tr><tr><td style="font-weight:bold;vertical-align:top;">id</td><td style="vertical-align:top;">:</td><td><div>1L</div></td></tr><tr><td style="font-weight:bold;vertical-align:top;">last_name</td><td style="vertical-align:top;">:</td><td><div>ulivar</div></td></tr><tr><td style="font-weight:bold;vertical-align:top;">oficina</td><td style="vertical-align:top;">:</td><td><div>Super</div></td></tr><tr><td style="font-weight:bold;vertical-align:top;">registration_id</td><td style="vertical-align:top;">:</td><td><div></div></td></tr><tr><td style="font-weight:bold;vertical-align:top;">registration_key</td><td style="vertical-align:top;">:</td><td><div></div></td></tr><tr><td style="font-weight:bold;vertical-align:top;">reset_password_key</td><td style="vertical-align:top;">:</td><td><div></div></td></tr><tr><td style="font-weight:bold;vertical-align:top;">username</td><td style="vertical-align:top;">:</td><td><div>uli</div></td></tr></table></div></td></tr><tr><td style="font-weight:bold;vertical-align:top;">user_groups</td><td style="vertical-align:top;">:</td><td><div><table><tr><td style="font-weight:bold;vertical-align:top;">1</td><td style="vertical-align:top;">:</td><td><div>Super</div></td></tr></table></div></td></tr></table></div></td></tr><tr><td style="font-weight:bold;vertical-align:top;">flash</td><td style="vertical-align:top;">:</td><td><div>None</div></td></tr><tr><td style="font-weight:bold;vertical-align:top;">last_orderby</td><td style="vertical-align:top;">:</td><td><div>None</div></td></tr><tr><td style="font-weight:bold;vertical-align:top;">last_query</td><td style="vertical-align:top;">:</td><td><div>db.solicitud.id&gt;0</div></td></tr></table></div>'
tRp242
sS'etype'
p243
S"<type 'exceptions.SyntaxError'>"
p244
sS'date'
p245
S'Mon Apr 08 09:59:42 2019'
p246
sS'response'
p247
g69
(S's\xd5@\x00\x00<div><table><tr><td style="font-weight:bold;vertical-align:top;">body</td><td style="vertical-align:top;">:</td><td><div>&lt;cStringIO.StringO object at 0x07C0F7A0&gt;</div></td></tr><tr><td style="font-weight:bold;vertical-align:top;">cookies</td><td style="vertical-align:top;">:</td><td><div><table><tr><td style="font-weight:bold;vertical-align:top;">session_id_antecedentesplataforma</td><td style="vertical-align:top;">:</td><td><div>127.0.0.1-29c6c8c7-fa63-4b20-bddd-506b60a7eaf6<table><tr><td style="font-weight:bold;vertical-align:top;">comment</td><td style="vertical-align:top;">:</td><td><div></div></td></tr><tr><td style="font-weight:bold;vertical-align:top;">domain</td><td style="vertical-align:top;">:</td><td><div></div></td></tr><tr><td style="font-weight:bold;vertical-align:top;">expires</td><td style="vertical-align:top;">:</td><td><div></div></td></tr><tr><td style="font-weight:bold;vertical-align:top;">httponly</td><td style="vertical-align:top;">:</td><td><div></div></td></tr><tr><td style="font-weight:bold;vertical-align:top;">max-age</td><td style="vertical-align:top;">:</td><td><div></div></td></tr><tr><td style="font-weight:bold;vertical-align:top;">path</td><td style="vertical-align:top;">:</td><td><div>/</div></td></tr><tr><td style="font-weight:bold;vertical-align:top;">secure</td><td style="vertical-align:top;">:</td><td><div></div></td></tr><tr><td style="font-weight:bold;vertical-align:top;">version</td><td style="vertical-align:top;">:</td><td><div></div></td></tr></table></div></td></tr></table></div></td></tr><tr><td style="font-weight:bold;vertical-align:top;">delimiters</td><td style="vertical-align:top;">:</td><td><div><table><tr><td><div>{{</div></td></tr><tr><td><div>}}</div></td></tr></table></div></td></tr><tr><td style="font-weight:bold;vertical-align:top;">files</td><td style="vertical-align:top;">:</td><td><div><table></table></div></td></tr><tr><td style="font-weight:bold;vertical-align:top;">flash</td><td style="vertical-align:top;">:</td><td><div></div></td></tr><tr><td style="font-weight:bold;vertical-align:top;">form_label_separator</td><td style="vertical-align:top;">:</td><td><div></div></td></tr><tr><td style="font-weight:bold;vertical-align:top;">formstyle</td><td style="vertical-align:top;">:</td><td><div>bootstrap3_inline</div></td></tr><tr><td style="font-weight:bold;vertical-align:top;">generic_patterns</td><td style="vertical-align:top;">:</td><td><div><table><tr><td><div>*</div></td></tr></table></div></td></tr><tr><td style="font-weight:bold;vertical-align:top;">google_analytics_id</td><td style="vertical-align:top;">:</td><td><div>None</div></td></tr><tr><td style="font-weight:bold;vertical-align:top;">headers</td><td style="vertical-align:top;">:</td><td><div><table><tr><td style="font-weight:bold;vertical-align:top;">X-Powered-By</td><td style="vertical-align:top;">:</td><td><div>web2py</div></td></tr></table></div></td></tr><tr><td style="font-weight:bold;vertical-align:top;">logo</td><td style="vertical-align:top;">:</td><td><div><a class="navbar-brand" href="http://www.web2py.com/" id="web2py-logo"><b>web<span>2</span>py</b>&trade;&nbsp;</a></div></td></tr><tr><td style="font-weight:bold;vertical-align:top;">menu</td><td style="vertical-align:top;">:</td><td><div><table><tr><td><div><table><tr><td><div>Inicio</div></td></tr><tr><td><div>False</div></td></tr><tr><td><div>/antecedentesplataforma/default/index</div></td></tr><tr><td><div><table></table></div></td></tr></table></div></td></tr><tr><td><div><table><tr><td><div>Mis Sitios</div></td></tr><tr><td><div>False</div></td></tr><tr><td><div>/admin/default/site</div></td></tr></table></div></td></tr><tr><td><div><table><tr><td><div>Esta Aplicaci\xc3\xb3n</div></td></tr><tr><td><div>False</div></td></tr><tr><td><div>#</div></td></tr><tr><td><div><table><tr><td><div><table><tr><td><div>Design</div></td></tr><tr><td><div>False</div></td></tr><tr><td><div>/admin/default/design/antecedentesplataforma</div></td></tr></table></div></td></tr><tr><td><div><li class="divider"></li></div></td></tr><tr><td><div><table><tr><td><div>Controlador</div></td></tr><tr><td><div>False</div></td></tr><tr><td><div>/admin/default/edit/antecedentesplataforma/controllers/entrada.py</div></td></tr></table></div></td></tr><tr><td><div><table><tr><td><div>Vista</div></td></tr><tr><td><div>False</div></td></tr><tr><td><div>/admin/default/edit/antecedentesplataforma/views/entrada/sin_solicitud.html</div></td></tr></table></div></td></tr><tr><td><div><table><tr><td><div>Modelo BDD</div></td></tr><tr><td><div>False</div></td></tr><tr><td><div>/admin/default/edit/antecedentesplataforma/models/db.py</div></td></tr></table></div></td></tr><tr><td><div><table><tr><td><div>Modelo "menu"</div></td></tr><tr><td><div>False</div></td></tr><tr><td><div>/admin/default/edit/antecedentesplataforma/models/menu.py</div></td></tr></table></div></td></tr><tr><td><div><table><tr><td><div>Config.ini</div></td></tr><tr><td><div>False</div></td></tr><tr><td><div>/admin/default/edit/antecedentesplataforma/private/appconfig.ini</div></td></tr></table></div></td></tr><tr><td><div><table><tr><td><div>Dise\xc3\xb1o de p\xc3\xa1gina</div></td></tr><tr><td><div>False</div></td></tr><tr><td><div>/admin/default/edit/antecedentesplataforma/views/layout.html</div></td></tr></table></div></td></tr><tr><td><div><table><tr><td><div>Hoja de estilo</div></td></tr><tr><td><div>False</div></td></tr><tr><td><div>/admin/default/edit/antecedentesplataforma/static/css/web2py-bootstrap3.css</div></td></tr></table></div></td></tr><tr><td><div><table><tr><td><div>Base de datos</div></td></tr><tr><td><div>False</div></td></tr><tr><td><div>/antecedentesplataforma/appadmin/index</div></td></tr></table></div></td></tr><tr><td><div><table><tr><td><div>Errores</div></td></tr><tr><td><div>False</div></td></tr><tr><td><div>/admin/default/errors/antecedentesplataforma</div></td></tr></table></div></td></tr><tr><td><div><table><tr><td><div>Acerca de</div></td></tr><tr><td><div>False</div></td></tr><tr><td><div>/admin/default/about/antecedentesplataforma</div></td></tr></table></div></td></tr></table></div></td></tr></table></div></td></tr><tr><td><div><table><tr><td><div>web2py.com</div></td></tr><tr><td><div>False</div></td></tr><tr><td><div>#</div></td></tr><tr><td><div><table><tr><td><div><table><tr><td><div>Descargas</div></td></tr><tr><td><div>False</div></td></tr><tr><td><div>http://www.web2py.com/examples/default/download</div></td></tr></table></div></td></tr><tr><td><div><table><tr><td><div>Soporte</div></td></tr><tr><td><div>False</div></td></tr><tr><td><div>http://www.web2py.com/examples/default/support</div></td></tr></table></div></td></tr><tr><td><div><table><tr><td><div>Demostraci\xc3\xb3n</div></td></tr><tr><td><div>False</div></td></tr><tr><td><div>http://web2py.com/demo_admin</div></td></tr></table></div></td></tr><tr><td><div><table><tr><td><div>Ejemplos R\xc3\xa1pidos</div></td></tr><tr><td><div>False</div></td></tr><tr><td><div>http://web2py.com/examples/default/examples</div></td></tr></table></div></td></tr><tr><td><div><table><tr><td><div>FAQ</div></td></tr><tr><td><div>False</div></td></tr><tr><td><div>http://web2py.com/AlterEgo</div></td></tr></table></div></td></tr><tr><td><div><table><tr><td><div>V\xc3\xaddeos</div></td></tr><tr><td><div>False</div></td></tr><tr><td><div>http://www.web2py.com/examples/default/videos/</div></td></tr></table></div></td></tr><tr><td><div><table><tr><td><div>Aplicaciones Libres</div></td></tr><tr><td><div>False</div></td></tr><tr><td><div>http://web2py.com/appliances</div></td></tr></table></div></td></tr><tr><td><div><table><tr><td><div>Plugins</div></td></tr><tr><td><div>False</div></td></tr><tr><td><div>http://web2py.com/plugins</div></td></tr></table></div></td></tr><tr><td><div><table><tr><td><div>Recetas</div></td></tr><tr><td><div>False</div></td></tr><tr><td><div>http://web2pyslices.com/</div></td></tr></table></div></td></tr></table></div></td></tr></table></div></td></tr><tr><td><div><table><tr><td><div>Documentaci\xc3\xb3n</div></td></tr><tr><td><div>False</div></td></tr><tr><td><div>#</div></td></tr><tr><td><div><table><tr><td><div><table><tr><td><div>Online book</div></td></tr><tr><td><div>False</div></td></tr><tr><td><div>http://www.web2py.com/book</div></td></tr></table></div></td></tr><tr><td><div><li class="divider"></li></div></td></tr><tr><td><div><table><tr><td><div>Prefacio</div></td></tr><tr><td><div>False</div></td></tr><tr><td><div>http://www.web2py.com/book/default/chapter/00</div></td></tr></table></div></td></tr><tr><td><div><table><tr><td><div>Introducci\xc3\xb3n</div></td></tr><tr><td><div>False</div></td></tr><tr><td><div>http://www.web2py.com/book/default/chapter/01</div></td></tr></table></div></td></tr><tr><td><div><table><tr><td><div>Python</div></td></tr><tr><td><div>False</div></td></tr><tr><td><div>http://www.web2py.com/book/default/chapter/02</div></td></tr></table></div></td></tr><tr><td><div><table><tr><td><div>Resumen</div></td></tr><tr><td><div>False</div></td></tr><tr><td><div>http://www.web2py.com/book/default/chapter/03</div></td></tr></table></div></td></tr><tr><td><div><table><tr><td><div>El N\xc3\xbacleo</div></td></tr><tr><td><div>False</div></td></tr><tr><td><div>http://www.web2py.com/book/default/chapter/04</div></td></tr></table></div></td></tr><tr><td><div><table><tr><td><div>Las Vistas</div></td></tr><tr><td><div>False</div></td></tr><tr><td><div>http://www.web2py.com/book/default/chapter/05</div></td></tr></table></div></td></tr><tr><td><div><table><tr><td><div>Base de datos</div></td></tr><tr><td><div>False</div></td></tr><tr><td><div>http://www.web2py.com/book/default/chapter/06</div></td></tr></table></div></td></tr><tr><td><div><table><tr><td><div>Formularios y validadores</div></td></tr><tr><td><div>False</div></td></tr><tr><td><div>http://www.web2py.com/book/default/chapter/07</div></td></tr></table></div></td></tr><tr><td><div><table><tr><td><div>Correo electr\xc3\xb3nico y SMS</div></td></tr><tr><td><div>False</div></td></tr><tr><td><div>http://www.web2py.com/book/default/chapter/08</div></td></tr></table></div></td></tr><tr><td><div><table><tr><td><div>Control de Acceso</div></td></tr><tr><td><div>False</div></td></tr><tr><td><div>http://www.web2py.com/book/default/chapter/09</div></td></tr></table></div></td></tr><tr><td><div><table><tr><td><div>Servicios</div></td></tr><tr><td><div>False</div></td></tr><tr><td><div>http://www.web2py.com/book/default/chapter/10</div></td></tr></table></div></td></tr><tr><td><div><table><tr><td><div>Recetas AJAX</div></td></tr><tr><td><div>False</div></td></tr><tr><td><div>http://www.web2py.com/book/default/chapter/11</div></td></tr></table></div></td></tr><tr><td><div><table><tr><td><div>Componentes y Plugins</div></td></tr><tr><td><div>False</div></td></tr><tr><td><div>http://www.web2py.com/book/default/chapter/12</div></td></tr></table></div></td></tr><tr><td><div><table><tr><td><div>Recetas de despliegue</div></td></tr><tr><td><div>False</div></td></tr><tr><td><div>http://www.web2py.com/book/default/chapter/13</div></td></tr></table></div></td></tr><tr><td><div><table><tr><td><div>Otras Recetas</div></td></tr><tr><td><div>False</div></td></tr><tr><td><div>http://www.web2py.com/book/default/chapter/14</div></td></tr></table></div></td></tr><tr><td><div><table><tr><td><div>Helping web2py</div></td></tr><tr><td><div>False</div></td></tr><tr><td><div>http://www.web2py.com/book/default/chapter/15</div></td></tr></table></div></td></tr><tr><td><div><table><tr><td><div>Buy web2py\'s book</div></td></tr><tr><td><div>False</div></td></tr><tr><td><div>http://stores.lulu.com/web2py</div></td></tr></table></div></td></tr></table></div></td></tr></table></div></td></tr><tr><td><div><table><tr><td><div>Comunidad</div></td></tr><tr><td><div>False</div></td></tr><tr><td><div>None</div></td></tr><tr><td><div><table><tr><td><div><table><tr><td><div>Grupos</div></td></tr><tr><td><div>False</div></td></tr><tr><td><div>http://www.web2py.com/examples/default/usergroups</div></td></tr></table></div></td></tr><tr><td><div><table><tr><td><div>Twitter</div></td></tr><tr><td><div>False</div></td></tr><tr><td><div>http://twitter.com/web2py</div></td></tr></table></div></td></tr><tr><td><div><table><tr><td><div>Chat en vivo</div></td></tr><tr><td><div>False</div></td></tr><tr><td><div>http://webchat.freenode.net/?channels=web2py</div></td></tr></table></div></td></tr></table></div></td></tr></table></div></td></tr></table></div></td></tr><tr><td style="font-weight:bold;vertical-align:top;">meta</td><td style="vertical-align:top;">:</td><td><div><table><tr><td style="font-weight:bold;vertical-align:top;">author</td><td style="vertical-align:top;">:</td><td><div>Your Name &lt;you@example.com&gt;</div></td></tr><tr><td style="font-weight:bold;vertical-align:top;">description</td><td style="vertical-align:top;">:</td><td><div>a cool new app</div></td></tr><tr><td style="font-weight:bold;vertical-align:top;">generator</td><td style="vertical-align:top;">:</td><td><div>Web2py Web Framework</div></td></tr><tr><td style="font-weight:bold;vertical-align:top;">keywords</td><td style="vertical-align:top;">:</td><td><div><table><tr><td><div>web2py</div></td></tr><tr><td><div>python</div></td></tr><tr><td><div>framework</div></td></tr></table></div></td></tr></table></div></td></tr><tr><td style="font-weight:bold;vertical-align:top;">models_to_run</td><td style="vertical-align:top;">:</td><td><div><table><tr><td><div>^\\w+\\.py$</div></td></tr><tr><td><div>^entrada/\\w+\\.py$</div></td></tr><tr><td><div>^entrada/sin_solicitud/\\w+\\.py$</div></td></tr></table></div></td></tr><tr><td style="font-weight:bold;vertical-align:top;">postprocessing</td><td style="vertical-align:top;">:</td><td><div><table></table></div></td></tr><tr><td style="font-weight:bold;vertical-align:top;">session_client</td><td style="vertical-align:top;">:</td><td><div>127.0.0.1</div></td></tr><tr><td style="font-weight:bold;vertical-align:top;">session_cookie_compression_level</td><td style="vertical-align:top;">:</td><td><div>None</div></td></tr><tr><td style="font-weight:bold;vertical-align:top;">session_cookie_expires</td><td style="vertical-align:top;">:</td><td><div>None</div></td></tr><tr><td style="font-weight:bold;vertical-align:top;">session_data_name</td><td style="vertical-align:top;">:</td><td><div>session_data_antecedentesplataforma</div></td></tr><tr><td style="font-weight:bold;vertical-align:top;">session_file</td><td style="vertical-align:top;">:</td><td><div>&lt;open file &#x27;D:\\\\web2py\\\\applications\\\\antecedentesplataforma\\\\sessions\\\\079\\\\17b\\\\127.0.0.1-29c6c8c7-fa63-4b20-bddd-506b60a7eaf6&#x27;, mode &#x27;rb+&#x27; at 0x02735EE8&gt;</div></td></tr><tr><td style="font-weight:bold;vertical-align:top;">session_filename</td><td style="vertical-align:top;">:</td><td><div>D:\\web2py\\applications\\antecedentesplataforma\\sessions\\127.0.0.1-29c6c8c7-fa63-4b20-bddd-506b60a7eaf6</div></td></tr><tr><td style="font-weight:bold;vertical-align:top;">session_hash</td><td style="vertical-align:top;">:</td><td><div>8c239a327bdf98a5d53f519b88355a3c</div></td></tr><tr><td style="font-weight:bold;vertical-align:top;">session_id</td><td style="vertical-align:top;">:</td><td><div>127.0.0.1-29c6c8c7-fa63-4b20-bddd-506b60a7eaf6</div></td></tr><tr><td style="font-weight:bold;vertical-align:top;">session_id_name</td><td style="vertical-align:top;">:</td><td><div>session_id_antecedentesplataforma</div></td></tr><tr><td style="font-weight:bold;vertical-align:top;">session_locked</td><td style="vertical-align:top;">:</td><td><div>True</div></td></tr><tr><td style="font-weight:bold;vertical-align:top;">session_masterapp</td><td style="vertical-align:top;">:</td><td><div>antecedentesplataforma</div></td></tr><tr><td style="font-weight:bold;vertical-align:top;">session_new</td><td style="vertical-align:top;">:</td><td><div>False</div></td></tr><tr><td style="font-weight:bold;vertical-align:top;">session_storage_type</td><td style="vertical-align:top;">:</td><td><div>file</div></td></tr><tr><td style="font-weight:bold;vertical-align:top;">status</td><td style="vertical-align:top;">:</td><td><div>200</div></td></tr><tr><td style="font-weight:bold;vertical-align:top;">subtitle</td><td style="vertical-align:top;">:</td><td><div></div></td></tr><tr><td style="font-weight:bold;vertical-align:top;">title</td><td style="vertical-align:top;">:</td><td><div>Antecedentesplataforma</div></td></tr><tr><td style="font-weight:bold;vertical-align:top;">view</td><td style="vertical-align:top;">:</td><td><div>entrada/sin_solicitud.html</div></td></tr></table></div>'
tRp248
sS'locals'
p249
(dp250
S'tables'
p251
S'<bound method SQLiteAdapter.tables of <pydal.adapters.sqlite.SQLiteAdapter object>>'
p252
sS'tablenames_for_common_filters'
p253
S'[]'
p254
sS'outer_scoped'
p255
S'[]'
p256
sS'fields'
p257
S'[]'
p258
sS'self'
p259
S'<pydal.adapters.sqlite.SQLiteAdapter object>'
p260
sS'tablenames'
p261
S'[]'
p262
sS'attributes'
p263
g21
sS'query'
p264
g152
sS'args_get'
p265
S'<built-in method get of dict object>'
p266
sssS'traceback'
p267
S'Traceback (most recent call last):\n  File "D:\\web2py\\gluon\\restricted.py", line 227, in restricted\n    exec ccode in environment\n  File "D:\\web2py\\applications\\antecedentesplataforma\\controllers/entrada.py", line 290, in <module>\n  File "D:\\web2py\\gluon\\globals.py", line 417, in <lambda>\n    self._caller = lambda f: f()\n  File "D:\\web2py\\applications\\antecedentesplataforma\\controllers/entrada.py", line 149, in sin_solicitud\n    comprobar=db(db.solicitud==dnpa).select()\n  File "D:\\web2py\\gluon\\packages\\dal\\pydal\\objects.py", line 2020, in select\n    return adapter.select(self.query, fields, attributes)\n  File "D:\\web2py\\gluon\\packages\\dal\\pydal\\adapters\\sqlite.py", line 123, in select\n    return super(SQLiteAdapter, self).select(query, fields, attributes)\n  File "D:\\web2py\\gluon\\packages\\dal\\pydal\\adapters\\base.py", line 1283, in select\n    sql = self._select(query, fields, attributes)\n  File "D:\\web2py\\gluon\\packages\\dal\\pydal\\adapters\\base.py", line 1102, in _select\n    raise SyntaxError(\'Set: no tables selected\')\nSyntaxError: Set: no tables selected\n'
p268
s.