(dp1
S'output'
p2
S"<type 'exceptions.TypeError'> iteration over non-sequence"
p3
sS'layer'
p4
S'D:\\web2py\\applications\\antecedentesplataforma\\controllers/imprimir.py'
p5
sS'code'
p6
S'\nfrom reportlab.pdfgen import canvas\n\ndef sin_antecedentes():\n\t\t#importo para poner la fecha\n\tfrom datetime import *\n    \n    \thoyfecha=datetime.today() #capturo la fecha de hoy\n    \tdia=hoyfecha.day #capturo el dia\n    \tdia=str(dia)#paso el dia a string\n    \tmes=hoyfecha.month #capturo el mes\n    \tmes=str(mes)#paso el dia a string\n    \t#creo un diccionario para reemplazar el numero del mes por el nombre del mes\n    \tmeses={"1":"ENERO","2":"FEBRERO","3":"MARZO","4":"ABRIL","5":"MAYO","6":"JUNIO","7":"JULIO","8":"AGOSTO","9":"SEPTIEMBRE","10":"OCTUBRE","11":"NOVIEMBRE","12":"DICIEMBRE"}\n    \t\n    \tqmes=meses[mes]# reemplazo el numero del mes en el diccionario mes\n    \tanio=hoyfecha.year #capturo el a\xc3\xb1o\n    \tanio=str(anio)\t#paso el a\xc3\xb1o a string para pornerlo en el pdf\n\tide_padron=request.args[1]\t#traigo el argumento del id del padron\n\tide_soli=request.args[0] \t#traigo el argumento del id de la solicitud\n\tdni=request.args[2] \t\t#traigo el dni de la persona\n\tDNI=str(dni)\t\t\t\t#paso el dni a string para ponerlo en el pdf\n\tpa=db(db.padron.id==ide_padron).select().first() #realizo un set para sacar los datos de la tabla padron\n\tape=pa.Apellido \t#capturo el apellido\n\tape=ape+","\t\t\t#le agrego una coma al apellido\n\tnom=pa.Nombre \t\t#capturo el nombre\n\tclase=pa.Clase \t\t#capturo la clase\n\tclase=str(clase) \t#paso la clase a string para ponerlo en el pdf\n\tdni=pa.DocumentoNro\t#capturo el dni\n\tdni=str(dni)\t\t#paso el dni a string para ponerlo en el pdf\n\tpasa=pa.Pasaporte\t#capturo el pasaporte\n\tpasa=str(pasa)\t\t#paso el pasaporte a string\n\tnacion=pa.IdPais\t#saco el id del pais \t\n\tpaises=db(db.paises.id==nacion).select().first()# hago un set para sacar el pais\n\tpais=paises.pais \t#saco el nombre del pais\n\tvil={"S":"SOLTERO/A","C":"CASADO/A","D":"DIVORSIADO/A","V":"VIUDO/A"} #creo un diccionario \t\n\tcivil=pa.EstadoCivil\t# capturo el estado civil\n\te_civil=vil[civil]#reemplazo en el diccionario vil\t\n\tprof=pa.Profesion  #saco la profesion\n\tdirec=pa.Direccion #saco la direccion\n\tclave={\'1\':"A.G.",\'2\':"C.I.",\'3\':"D.C.P.",\'4\':"D.E.",\'5\':"R.C.",\'6\':"S.P.",\'0\':None} #creo un diccionario para los tipos de prontuario\n\ttipo=pa.IdProntuarioTipo #saco el id del tipo de prontuario\n\ttipo=str(tipo)\t#\n\tnpront=pa.ProntuarioNro\n\tnpront=str(npront)\n\tqtipo=clave[tipo]\t\n\tsol=db(db.solicitud.id==ide_soli).select().first()\n\tsolipor=sol.solicitado_por\n\tnum=sol.nro_certificado\n\tcapital=sol.capitalinterior\n\tintervino=sol.intervino\n\tfecha=sol.fecha_solicitada\t\n\tuser=sol.usuario\n\ttiene=sol.t_antecedentes\n\tante=sol.antecedentes\n\t#Importamos los modulos necesarios\n\tfrom reportlab.pdfgen import canvas# clase para crear el documento\n\tfrom reportlab.lib.colors import white,red,green,blue,gray,black#colores\t\n\tfrom os import startfile\n\t\n\tpdf="ej.pdf"#largo,alto#defino como se va a llamar el arhivo pfg\n\tcertificado=(602,620) #configuro los tama\xc3\xb1os de la hoja del certificado\n\n\tdoc = canvas.Canvas(pdf,pagesize=certificado)\n\tmargen=db(db.margenes).select().first()\n\tx = margen.x\n\tlargo=602\n\ty =margen.y\n\talto=620\n\tdoc.setFont("Courier", 10)#fuente de letra y tama\xc3\xb1o\n\tdoc.drawString(110+x,455+y,ape)#para poner texto valores x,y\n\n\tdoc.setFont("Courier",10)\t#fuente de letra y tama\xc3\xb1o\n\tdoc.drawString(155+x,455+y,nom)#para poner texto valores x,y\n\n\tdoc.setFont("Courier",10)\t#fuente de letra y tama\xc3\xb1o\n\tdoc.drawString(270+x,438+y,clase)#para poner texto valores x,y\n\n\tdoc.setFont("Courier",10)\t#fuente de letra y tama\xc3\xb1o\n\tdoc.drawString(373+x,438+y,dni)#para poner texto valores x,y\n\n\tdoc.setFont("Courier",10)\t#fuente de letra y tama\xc3\xb1o\n\tdoc.drawString(173+x,420+y,pais)#para poner texto valores x,y\n\n\tdoc.setFont("Courier",10)\t#fuente de letra y tama\xc3\xb1o\n\tdoc.drawString(380+x,420+y,e_civil)#para poner texto valores x,y\n\n\tdoc.setFont("Courier",10)\t#fuente de letra y tama\xc3\xb1o\n\tdoc.drawString(157+x,406+y,prof)#para poner texto valores x,y\n\n\tdoc.setFont("Courier",10)\t#fuente de letra y tama\xc3\xb1o\n\tdoc.drawString(160+x,390+y,direc)#para poner texto valores x,y\n\n\tdoc.setFont("Courier",10)\t#fuente de letra y tama\xc3\xb1o\n\tdoc.drawString(175+x,360+y,qtipo+npront)#para poner texto valores x,y\n\n\tdoc.setFont("Courier",10)\t#fuente de letra y tama\xc3\xb1o\n\tdoc.drawString(90+x,255+y,solipor)#para poner texto valores x,y\n\n\tdoc.setFont("Courier",10)\t#fuente de letra y tama\xc3\xb1o\n\tdoc.drawString(360+x,240+y,dia)#para poner texto valores x,y\n\n\tdoc.setFont("Courier",10)\t#fuente de letra y tama\xc3\xb1o\n\tdoc.drawString(160+x,225+y,qmes)#para poner texto valores x,y\n\n\tdoc.setFont("Courier",10)\t#fuente de letra y tama\xc3\xb1o\n\tdoc.drawString(360+x,225+y,anio)#para poner texto valores x,y\n\n\tdoc.setFont("Courier",10)\t#fuente de letra y tama\xc3\xb1o\n\tdoc.drawString(160+x,205+y,num)#para poner texto valores x,y\n\n\tdoc.setFont("Courier",10)\t#fuente de letra y tama\xc3\xb1o\n\tdoc.drawString(95+x,120+y,intervino)#para poner texto valores x,y\n\tdoc.showPage()\n\tdoc.save()\n\tstartfile(pdf)                    \n\treturn dict()\n\t\ndef co_antecedentes():\n\t\t#importo para poner la fecha\n\tfrom datetime import *\n    \n    \thoyfecha=datetime.today() #capturo la fecha de hoy\n    \tdia=hoyfecha.day #capturo el dia\n    \tdia=str(dia)#paso el dia a string\n    \tmes=hoyfecha.month #capturo el mes\n    \tmes=str(mes)#paso el dia a string\n    \t#creo un diccionario para reemplazar el numero del mes por el nombre del mes\n    \tmeses={"1":"ENERO","2":"FEBRERO","3":"MARZO","4":"ABRIL","5":"MAYO","6":"JUNIO","7":"JULIO","8":"AGOSTO","9":"SEPTIEMBRE","10":"OCTUBRE","11":"NOVIEMBRE","12":"DICIEMBRE"}\n    \t\n    \tqmes=meses[mes]# reemplazo el numero del mes en el diccionario mes\n    \tanio=hoyfecha.year #capturo el a\xc3\xb1o\n    \tanio=str(anio)\t#paso el a\xc3\xb1o a string para pornerlo en el pdf\n\tide_padron=request.args[1]\t#traigo el argumento del id del padron\n\tide_soli=request.args[0] \t#traigo el argumento del id de la solicitud\n\tdni=request.args[2] \t\t#traigo el dni de la persona\n\tDNI=str(dni)\t\t\t\t#paso el dni a string para ponerlo en el pdf\n\tpa=db(db.padron.id==ide_padron).select().first() #realizo un set para sacar los datos de la tabla padron\n\tape=pa.Apellido \t#capturo el apellido\n\tape=ape+","\t\t\t#le agrego una coma al apellido\n\tnom=pa.Nombre \t\t#capturo el nombre\n\tclase=pa.Clase \t\t#capturo la clase\n\tclase=str(clase) \t#paso la clase a string para ponerlo en el pdf\n\tdni=pa.DocumentoNro\t#capturo el dni\n\tdni=str(dni)\t\t#paso el dni a string para ponerlo en el pdf\n\tpasa=pa.Pasaporte\t#capturo el pasaporte\n\tpasa=str(pasa)\t\t#paso el pasaporte a string\n\tnacion=pa.IdPais\t#saco el id del pais \t\n\tpaises=db(db.paises.id==nacion).select().first()# hago un set para sacar el pais\n\tpais=paises.pais \t#saco el nombre del pais\n\tvil={"S":"SOLTERO/A","C":"CASADO/A","D":"DIVORSIADO/A","V":"VIUDO/A"} #creo un diccionario \t\n\tcivil=pa.EstadoCivil\t# capturo el estado civil\n\te_civil=vil[civil]#reemplazo en el diccionario vil\t\n\tprof=pa.Profesion  #saco la profesion\n\tdirec=pa.Direccion #saco la direccion\n\tclave={\'1\':"A.G.",\'2\':"C.I.",\'3\':"D.C.P.",\'4\':"D.E.",\'5\':"R.C.",\'6\':"S.P.",\'0\':None} #creo un diccionario para los tipos de prontuario\n\ttipo=pa.IdProntuarioTipo #saco el id del tipo de prontuario\n\ttipo=str(tipo)\t#\n\tnpront=pa.ProntuarioNro\n\tnpront=str(npront)\n\tqtipo=clave[tipo]\t\n\tsol=db(db.solicitud.id==ide_soli).select().first()\n\tsolipor=sol.solicitado_por\n\tnum=sol.nro_certificado\n\tcapital=sol.capitalinterior\n\tintervino=sol.intervino\n\tfecha=sol.fecha_solicitada\t\n\tuser=sol.usuario\n\ttiene=sol.t_antecedentes\n\tante=sol.antecedentes\n\t#Importamos los modulos necesarios\n\tfrom reportlab.pdfgen import canvas# clase para crear el documento\n\tfrom reportlab.lib.colors import white,red,green,blue,gray,black#colores\t\n\tfrom os import startfile\n\tfrom reportlab.lib.utils import ImageReader\n\timport StringIO\n\timport PIL.Image\n\tfrom reportlab.lib.styles import getSampleStyleSheet\n\tfrom reportlab.lib.enums import TA_LEFT, TA_RIGHT, TA_CENTER, TA_JUSTIFY\n\tfrom reportlab.platypus import SimpleDocTemplate, Paragraph, Spacer, Image\n\t\n\n\t\n\tpdf="con_antecedentes.pdf"#largo,alto#defino como se va a llamar el arhivo pfg\n\toficio=(612,1010) #configuro los tama\xc3\xb1os de la hoja oficio \n\t#A4=612.0, 792.0 \n\tdoc = canvas.Canvas(pdf,pagesize=oficio)\n\tmargen=db(db.margenes).select().first()\n\tx = margen.x\n\tlargo=612.0\t\n\ty =margen.y\n\talto=1010  \n\testilos = getSampleStyleSheet()\n\t\n\tencabezado=[]\n\theader1=doc.drawImage("d:\\\\web2py\\\\applications\\\\antecedentesplataforma\\\\static\\\\images\\\\escudo1.jpg",80,950,50,50)#insertar imagen\n\tdoc.setFont("Helvetica-Bold", 18)#fuente de letra y tama\xc3\xb1o\n\tencabezado.append(header1)\n\theader2=doc.drawString(150+x,970+y,"CERTIFICADO DE ANTECEDENTES")#para poner texto valores x,y\n\tencabezado.append(header2)\n\theader3=doc.drawImage("d:\\\\web2py\\\\applications\\\\antecedentesplataforma\\\\static\\\\images\\\\escudo_policia.jpg",480,950,50,50)#insertar imagen\n\tencabezado.append(header3)\n\tdoc.setFont("Times-Roman", 11)#fuente de letra y tama\xc3\xb1o\n\tdoc.drawString(210+x,950+y,"VALIDO POR SEIS MESES")#para poner texto valores x,y\n\tdoc.setFont("Times-Roman", 11)#fuente de letra y tama\xc3\xb1o\n\tdoc.drawString(80+x,920+y,"LOS FUNCIONARIOS POLICIALES QUE SUSCRIBEN CERTIFICAN:")#para poner texto valores x,y\n\tdoc.setFont("Times-Roman", 11)#fuente de letra y tama\xc3\xb1o\n\tdoc.drawString(80+x,880+y,"QUE")#para poner texto valores x,y\n\tdoc.setFont("Times-Roman", 11)#fuente de letra y tama\xc3\xb1o\n\tdoc.drawString(110+x,880+y,ape+"  " +nom)#para poner texto valores x,y\n\tdoc.setFont("Times-Roman", 11)#fuente de letra y tama\xc3\xb1o\n\tdoc.drawString(300+x,800+y,"CLASE:")#para poner texto valores x,y\n\tdoc.setFont("Times-Roman", 11)#fuente de letra y tama\xc3\xb1o\n\tdoc.drawString(343+x,800+y,clase)#para poner texto valores x,y\n\tdoc.setFont("Times-Roman", 11)#fuente de letra y tama\xc3\xb1o\n\tdoc.drawString(80+x,800+y,"D.N.I. N\xc2\xba")#para poner texto valores x,y\n\tdoc.setFont("Times-Roman", 11)#fuente de letra y tama\xc3\xb1o\n\tdoc.drawString(370+x,600+y,dni+", DE NACIONALIDAD: ")#para poner texto valores x,y\n\tdoc.setFont("Times-Roman",11)#fuente de letra y tama\xc3\xb1o\n\tdoc.drawString(190+x,600+y,pais)#para poner texto valores x,y\n\tdoc.setFont("Times-Roman",11)#fuente de letra y tama\xc3\xb1o\n\tdoc.drawString(190+x,600+y,", DE ESTADO CIVIL:")#para poner texto valores x,y\n\tdoc.setFont("Times-Roman", 11)#fuente de letra y tama\xc3\xb1o\n\tdoc.drawString(305+x,600+y,e_civil+", ")#para poner texto valores x,y\n\tdoc.setFont("Times-Roman", 11)#fuente de letra y tama\xc3\xb1o\n\tdoc.drawString(380+x,600+y,"DE PROFESION:")#para poner texto valores x,y\n\tdoc.setFont("Times-Roman", 11)#fuente de letra y tama\xc3\xb1o\n\tdoc.drawString(80+x,600+y,prof+", ")#para poner texto valores x,y\n\tdoc.setFont("Times-Roman", 11)#fuente de letra y tama\xc3\xb1o\n\tdoc.drawString(350+x,600+y,"CON DOMICILIO: ")#para poner texto valores x,y\n\tdoc.setFont("Times-Roman", 11)#fuente de letra y tama\xc3\xb1o\n\tdoc.drawString(80+x,600+y,direc+", ")#para poner texto valores x,y\n\tdoc.setFont("Times-Roman", 11)#fuente de letra y tama\xc3\xb1o\n\tdoc.drawString(80+x,600+y,"SE ENCUENTRA IDENTIFICADO/A EN ESTA POLICIA, BAJO EL PRONTUARIO: ")#para poner texto valores x,y\n\tdoc.setFont("Times-Roman", 11)#fuente de letra y tama\xc3\xb1o\n\tdoc.drawString(515+x,600+y,qtipo+" "+npront)#para poner texto valores x,y\n\tdoc.setFont("Times-Roman", 11)#fuente de letra y tama\xc3\xb1o\n\tdoc.setFont("Times-Roman", 8)#fuente de letra y tama\xc3\xb1o\n\tpie=doc.drawString( 300+x,10+y,"PIE")\n\ttext = doc.beginText(80,800)\n\ttext.setFont("Times-Roman", 10)#fuente de letra y tama\xc3\xb1o\n\n\tlista1=[ante]\n\tlista2=[]\n\n\t\n\ta=len(ante)\n\tk=85\n\tcuantas=a/k\n\tcuantas=cuantas+1\n\ttext.textLine(ante[0:k])\t\n\ttext.textLine(ante[k:k*2])\n\ttext.textLine(ante[k*2:k*3])\n\ttext.textLine(ante[k*3:k*4])\n\ttext.textLine(ante[k*4:k*5])\n\ttext.textLine(ante[k*5:k*6])\n\ttext.textLine(ante[k*6:k*7])\n\ttext.textLine(ante[k*7:k*8])\n\ttext.textLine(ante[k*8:k*9])\t\n\n\tdoc.drawText(text)\n\n\tdoc.showPage()\n\tdoc.save()\n\tstartfile(pdf)   \n\n\treturn dict()\ndef encabezado():\n\tpdf="con_antecedentes.pdf"#largo,alto#defino como se va a llamar el arhivo pfg\n\toficio=(612,1010) #configuro los tama\xc3\xb1os de la hoja oficio \n\t#A4=612.0, 792.0 \n\tdoc = canvas.Canvas(pdf,pagesize=oficio)\n\tmargen=db(db.margenes).select().first()\n\tx = margen.x\n\tlargo=612.0\t\n\ty =margen.y\n\talto=1010  \n\t\n\treturn dict()\ndef dame_un_pdf():\n\tfrom datetime import *\n\tfrom reportlab.platypus import *\n\tfrom reportlab.lib.styles import getSampleStyleSheet, ParagraphStyle\n\tfrom reportlab.rl_config import defaultPageSize\n\tfrom reportlab.lib.units import inch, mm\n\tfrom reportlab.lib.enums import TA_LEFT, TA_RIGHT, TA_CENTER, TA_JUSTIFY\n\tfrom reportlab.lib import colors\n\tfrom uuid import uuid4\n\tfrom cgi import escape\n\timport os\n\tpdf="con_antecedentes.pdf"#largo,alto#defino como se va a llamar el arhivo pfg\n\toficio=(612,1010) #configuro los tama\xc3\xb1os de la hoja oficio\n\tdoc = canvas.Canvas(pdf,pagesize=oficio)\n\n\tide_padron=request.args[1]\t#traigo el argumento del id del padron\n\tide_soli=request.args[0] \t#traigo el argumento del id de la solicitud\n\tdni=request.args[2] \n\t\n\thoyfecha=datetime.today() #capturo la fecha de hoy\n    \tdia=hoyfecha.day #capturo el dia\n     \tdia=str(dia)#paso el dia a string\n    \tmes=hoyfecha.month #capturo el mes\n    \tmes=str(mes)#paso el dia a string\n    \t#creo un diccionario para reemplazar el numero del mes por el nombre del mes\n    \tmeses={"1":"ENERO","2":"FEBRERO","3":"MARZO","4":"ABRIL","5":"MAYO","6":"JUNIO","7":"JULIO","8":"AGOSTO","9":"SEPTIEMBRE","10":"OCTUBRE","11":"NOVIEMBRE","12":"DICIEMBRE"}\n    \t\n    \tqmes=meses[mes]# reemplazo el numero del mes en el diccionario mes\n    \tanio=hoyfecha.year #capturo el a\xc3\xb1o\n    \tanio=str(anio)\t#paso el a\xc3\xb1o a string para pornerlo en el pdf\n    \tpa=db(db.padron.id==ide_padron).select().first() #realizo un set para sacar los datos de la tabla padron\n\tape=pa.Apellido \t#capturo el apellido\n\tape=ape+","\t\t\t#le agrego una coma al apellido\n\tnom=pa.Nombre \t\t#capturo el nombre\n\tclase=pa.Clase \t\t#capturo la clase\n\tclase=str(clase) \t#paso la clase a string para ponerlo en el pdf\n\tdni=pa.DocumentoNro\t#capturo el dni\n\tdni=str(dni)\t\t#paso el dni a string para ponerlo en el pdf\n\tpasa=pa.Pasaporte\t#capturo el pasaporte\n\tpasa=str(pasa)\t\t#paso el pasaporte a string\n\tnacion=pa.IdPais\t#saco el id del pais \t\n\tpaises=db(db.paises.id==nacion).select().first()# hago un set para sacar el pais\n\tpais=paises.pais \t#saco el nombre del pais\n\tvil={"S":"SOLTERO/A","C":"CASADO/A","D":"DIVORSIADO/A","V":"VIUDO/A"} #creo un diccionario \t\n\tcivil=pa.EstadoCivil\t# capturo el estado civil\n\te_civil=vil[civil]#reemplazo en el diccionario vil\t\n\tprof=pa.Profesion  #saco la profesion\n\tdirec=pa.Direccion #saco la direccion\n\tclave={\'1\':"A.G.",\'2\':"C.I.",\'3\':"D.C.P.",\'4\':"D.E.",\'5\':"R.C.",\'6\':"S.P.",\'0\':None} #creo un diccionario para los tipos de prontuario\n\ttipo=pa.IdProntuarioTipo #saco el id del tipo de prontuario\n\ttipo=str(tipo)\t#\n\tnpront=pa.ProntuarioNro\n\tnpront=str(npront)\n\tqtipo=clave[tipo]\t\n\tsol=db(db.solicitud.id==ide_soli).select().first()\n\tsolipor=sol.solicitado_por\n\tnum=sol.nro_certificado\n\tcapital=sol.capitalinterior\n\tintervino=sol.intervino\n\tfecha=sol.fecha_solicitada\t\n\tuser=sol.usuario\n\ttiene=sol.t_antecedentes\n\tante=sol.antecedentes\n\n    \t#~ #Una imagen.\n\timagen_logo = Image("d:\\\\web2py\\\\applications\\\\antecedentesplataforma\\\\static\\\\images\\\\encabezado.jpg", width=500, height=60)\n\t\t\n    \t\n    \t\n\n    \tstyles = getSampleStyleSheet()\n    \tstyles.add(ParagraphStyle(name=\'Justify\', alignment=TA_JUSTIFY))\n    \tarchivotmp=os.path.join(request.folder,\'private\',str(uuid4()))\n    \tdoc = SimpleDocTemplate(archivotmp)\n    \tstory = []\n    \tespacio=""\n    \tstory.append(imagen_logo)\n    \t\n    \t#story.append(Paragraph(escape(texto),styles["Justify"]))\n    \tstory.append(Spacer(1,0.5*inch))\n    \tstory.append(Paragraph(escape("Los funcionarios policiales que suscriben Certifican:"),styles["Justify"]))\n    \tstory.append(Spacer(1,0.5*inch))\n    \tstory.append(Paragraph(escape("Que "+ape+nom+" Clase: "+clase+" D.N.I: "+dni+" de nacionalidad "+pais\n    \t\t+" de estado civil: "+e_civil+" de profesi\xc3\xb2n "+prof+" con domicilio: "+direc\n    \t\t+" Se encuentra identificado/a en esta Policia bajo el Prontuario: "+qtipo+" N\xc2\xba "+npront ),styles["Justify"]))\n    \tstory.append(Spacer(1,0.5*inch))\n    \tstory.append(Paragraph(escape("OBSERVACIONES:"),styles["Justify"]))\n    \tstory.append(Spacer(1,0.5*inch))\n    \tstory.append(Paragraph(escape("OBSERVACIONES:"),styles["Justify"]))\n    \tstory.append(Paragraph(escape(ante),styles["Justify"]))\n    \tstory.append(Spacer(1,0.5*inch))\n\n    \tstory.append(Paragraph(escape("A solicitud de la parte interesada y al solo efecto de ser presentada en : "+\n    \t\tsolipor+"."+"Expiden el presente en la Ciudad de San Fernando del Valle de Catamarca(R.A.),con fecha:20/05/2019.-"\n    \t\t+"Cert. N\xc2\xba "+num),styles["Justify"]))\n    \tstory.append(Spacer(1,0.5*inch))\n    \tstory.append(Paragraph(escape("Se expide conforme Ley N\xc2\xba4663, Art.8 Inc.\'C\'.-"),styles["Justify"]))\n    \tstory.append(Spacer(1,1*inch))\n    \tstory.append(Paragraph(escape("----------------------------------------------------------------"\n    \t\t+" "+"----------------------------------------------------------------"),styles["Justify"]))\n    \tstory.append(Paragraph(escape("Jefe Div. Antecedentes Personales    "+"  "+"    Jefe Del Departamento Insvestigaciones Judiciales"),styles["Justify"],styles["Justify"]))\n\n\n    \tdoc.build(story)\n    \tdata = open(archivotmp,"rb").read()\n    \tos.unlink(archivotmp)\n    \tresponse.headers[\'Content-Type\']=\'application/pdf\'\n\n\treturn data\n\n    \t\n    \t\n    \t\n    \t\ndef test():\n\n\t\t# -*- coding:utf-8 -*-\n\timport os\n\tfrom reportlab.lib.pagesizes import A4\n\tfrom reportlab.pdfgen import canvas\n\n\tc=canvas.Canvas("test.pdf", pagesize = A4)\n\n\t#FUENTES EN CANVAS\n\t#-----------------\n\ttexto = "Lorem ipsum dolor sit amet"\n\tx, y = 150, 710\n\tfor fuente in c.getAvailableFonts():  # Lista disponible de fuentes\n\t    c.setFont(fuente, 10)  # Cambiamos la fuente y el tama\xc3\xb1o\n\t    c.drawString(x, y, texto)\n\t    c.setFont("Helvetica", 12) \n\t    c.drawRightString(x-10, y, fuente + ":")\n\t    y -= 20\n\t \n\t#TRABAJANDO CON OBJETO DE TEXTO\n\t#-------------------------------\n\t# Indispensable para textos de varias lineas, ya que el m\xc3\xa9todo drawString \n\t# no podr\xc3\xa1 dibujar m\xc3\xbaltiples l\xc3\xadneas:\n\ttextoArchivo = open("lorem.txt", "r")  # Abrimos un archivo de texto\n\ttexto = "" \n\t \n\ttextobject = c.beginText()  # Iniciamos el textobject\n\ttextobject.setTextOrigin(20, 400)  # Ubicamos el cursor donde dibujar\n\ttextobject.setFont("Helvetica-Oblique", 13)\n\tfor i in textoArchivo:\n\t    i = i.replace("\\n","")  # Remplazamos el salto de linea\n\t    textobject.setCharSpace(0.5)  # Espacio entre caracteres \n\t    textobject.setWordSpace(1)  # Espacio entre palabras\n\t    textobject.textLine(i)  # Dibujamos la linea\n\t    textobject.moveCursor(5, 10)  # Movemos el cursor para luego escribir\n\ttextobject.setFillGray(0.4)  # Rellenamos con Escala de grises\n\ttextobject.setLeading(20)  # Espaciado entre lineas\n\ttextobject.textLines(texto)  # Insertamos el texto y con color gris\n\tc.drawText(textobject)  # Dibujamos el texto pasando un objeto de texto\n\t \n\tc.showPage()  \n\n\tc.save()\n\tos.system("test.pdf")\n\treturn dict()\ndef txt():\n\t\t#importo para poner la fecha\n\tfrom datetime import *\n\timport os\n    \n    \thoyfecha=datetime.today() #capturo la fecha de hoy\n    \tdia=hoyfecha.day #capturo el dia\n    \tdia=str(dia)#paso el dia a string\n    \tmes=hoyfecha.month #capturo el mes\n    \tmes=str(mes)#paso el dia a string\n    \t#creo un diccionario para reemplazar el numero del mes por el nombre del mes\n    \tmeses={"1":"ENERO","2":"FEBRERO","3":"MARZO","4":"ABRIL","5":"MAYO","6":"JUNIO","7":"JULIO","8":"AGOSTO","9":"SEPTIEMBRE","10":"OCTUBRE","11":"NOVIEMBRE","12":"DICIEMBRE"}\n    \t\n    \tqmes=meses[mes]# reemplazo el numero del mes en el diccionario mes\n    \tanio=hoyfecha.year #capturo el a\xc3\xb1o\n    \tanio=str(anio)\t#paso el a\xc3\xb1o a string para pornerlo en el pdf\n\tide_padron=request.args[1]\t#traigo el argumento del id del padron\n\tide_soli=request.args[0] \t#traigo el argumento del id de la solicitud\n\tdni=request.args[2] \t\t#traigo el dni de la persona\n\tDNI=str(dni)\t\t\t\t#paso el dni a string para ponerlo en el pdf\n\tpa=db(db.padron.id==ide_padron).select().first() #realizo un set para sacar los datos de la tabla padron\n\tape=pa.Apellido \t#capturo el apellido\n\tape=ape+","\t\t\t#le agrego una coma al apellido\n\tnom=pa.Nombre \t\t#capturo el nombre\n\tclase=pa.Clase \t\t#capturo la clase\n\tclase=str(clase) \t#paso la clase a string para ponerlo en el pdf\n\tdni=pa.DocumentoNro\t#capturo el dni\n\tdni=str(dni)\t\t#paso el dni a string para ponerlo en el pdf\n\tpasa=pa.Pasaporte\t#capturo el pasaporte\n\tpasa=str(pasa)\t\t#paso el pasaporte a string\n\tnacion=pa.IdPais\t#saco el id del pais \t\n\tpaises=db(db.paises.id==nacion).select().first()# hago un set para sacar el pais\n\tpais=paises.pais \t#saco el nombre del pais\n\tvil={"S":"SOLTERO/A","C":"CASADO/A","D":"DIVORSIADO/A","V":"VIUDO/A"} #creo un diccionario \t\n\tcivil=pa.EstadoCivil\t# capturo el estado civil\n\te_civil=vil[civil]#reemplazo en el diccionario vil\t\n\tprof=pa.Profesion  #saco la profesion\n\tdirec=pa.Direccion #saco la direccion\n\tclave={\'1\':"A.G.",\'2\':"C.I.",\'3\':"D.C.P.",\'4\':"D.E.",\'5\':"R.C.",\'6\':"S.P.",\'0\':None} #creo un diccionario para los tipos de prontuario\n\ttipo=pa.IdProntuarioTipo #saco el id del tipo de prontuario\n\ttipo=str(tipo)\t#\n\tnpront=pa.ProntuarioNro\n\tnpront=str(npront)\n\tqtipo=clave[tipo]\t\n\tsol=db(db.solicitud.id==ide_soli).select().first()\n\tsolipor=sol.solicitado_por\n\tnum=sol.nro_certificado\n\tcapital=sol.capitalinterior\n\tintervino=sol.intervino\n\tfecha=sol.fecha_solicitada\t\n\tuser=sol.usuario\n\ttiene=sol.t_antecedentes\n\tante=sol.antecedentes\n\t\n\tfile = open("txt.txt", "w")\n\tfile.write("Los Funcionarios Policiales que suscriben Certifican: \\n")\n\tfile.write( "\\n" )\n\tfile.write( "" +os.linesep)#espacion en blanco\n\tfile.write("Que "+ ape+ nom + " Clase " +clase +" D.N.I. N\xc2\xba :" +dni +" de nacionalidad:"+ os.linesep)\n\tfile.write(pais+" de estado civil: "+e_civil+" de profesion: "+prof+ os.linesep)\n\tfile.write("con domicilio: "+direc+ os.linesep)\n\n\tfile.write("Se encuentra indentificado/a en esta policia bajo Promtuario:"+ os.linesep )\n\tfile.write(qtipo+" "+npront+ os.linesep )\n\tfile.write("Observaciones:"+os.linesep )\n\t\n\tfile.write(ante)\n\tfile.write("A solicitud de la parte interesada y al solo efecto de ser presentada en: "+ os.linesep)\n\tfile.write( solipor+"." +os.linesep)\n\tfile.write( "Expiden el presente en la Ciudad de San Fernando del Valle de Catamarca(R.A.), con fecha:"+dia+"/"+mes+"/"+anio +os.linesep)\n\tfile.write( "" +os.linesep)\n\tfile.write( "Cert. N\xc2\xba"+num +os.linesep)\n\tfile.write( "" +os.linesep)\n\tfile.write( "Se expide conforme Ley N\xc2\xba4663, Art.8 Inc.\'C\' " +os.linesep)\n\tfile.write( "" +os.linesep)\n\tfile.write( "" +os.linesep)\n\tfile.write( "" +os.linesep)\n\tfile.write( "" +os.linesep)\n\tfile.write( "-----------------------------------------------"+"                          "+"\t------------------------------------------------" +os.linesep)\n\tfile.write( "       Jefe Div. Ant. Personales"+"                          \t"+"Jefe Depto.Inv. Judiciales (D-5)" +os.linesep)\t\n\tfile.close()\n\t#redirect(URL(c=\'imprimir\',f=\'con_antecedentes\',args=[ide_soli,ide_padron,dni]))\n\treturn dict(ante=ante)\ndef con_antecedentes():\n\tide_padron=request.args[1]\t#traigo el argumento del id del padron\n\tide_soli=request.args[0] \t#traigo el argumento del id de la solicitud\n\tdni=request.args[2] \n\tfrom reportlab.pdfgen import canvas# clase para crear el documento\n\tfrom reportlab.lib.colors import white,red,green,blue,gray,black#colores\t\n\tfrom os import startfile\n\tfrom reportlab.lib.utils import ImageReader\n\timport StringIO\n\timport PIL.Image\n\tfrom reportlab.lib.styles import getSampleStyleSheet\n\tfrom reportlab.lib.enums import TA_LEFT, TA_RIGHT, TA_CENTER, TA_JUSTIFY\n\tfrom reportlab.platypus import SimpleDocTemplate, Paragraph, Spacer, Image\n\timport os\n\tfrom io import open\n\timport reportlab.rl_config\n\treportlab.rl_config.warnOnMissingFontGlyphs = 0\n\tfrom reportlab.pdfbase import pdfmetrics\n\tfrom reportlab.pdfbase.ttfonts import TTFont\n\tfrom textwrap import wrap\n\tpdfmetrics.registerFont(TTFont(\'Vera\', \'Vera.ttf\'))\n\tpdfmetrics.registerFont(TTFont(\'VeraBd\', \'VeraBd.ttf\'))\n\tpdfmetrics.registerFont(TTFont(\'VeraIt\', \'VeraIt.ttf\'))\n\tpdfmetrics.registerFont(TTFont(\'VeraBI\', \'VeraBI.ttf\'))\t\n\tpdf="con_antecedentes.pdf"#largo,alto#defino como se va a llamar el arhivo pfg\n\toficio=(612,1010) #configuro los tama\xc3\xb1os de la hoja oficio \n\t#A4=612.0, 792.0 \n\tdoc = canvas.Canvas(pdf,pagesize=oficio)\n\tmargen=db(db.margenes).select().first()\n\tx = margen.x\n\tlargo=612.0\t\n\ty =margen.y\n\talto=1010  \n\testilos = getSampleStyleSheet()\n\tstyle = estilos[\'BodyText\']\t\n\tencabezado=[]\n\theader1=doc.drawImage("d:\\\\web2py\\\\applications\\\\antecedentesplataforma\\\\static\\\\images\\\\escudo1.jpg",80,950,50,50)#insertar imagen\n\tdoc.setFont("Helvetica-Bold", 18)#fuente de letra y tama\xc3\xb1o\n\tencabezado.append(header1)\n\theader2=doc.drawString(150+x,970+y,"CERTIFICADO DE ANTECEDENTES")#para poner texto valores x,y\n\tencabezado.append(header2)\n\theader3=doc.drawImage("d:\\\\web2py\\\\applications\\\\antecedentesplataforma\\\\static\\\\images\\\\escudo_policia.jpg",480,950,50,50)#insertar imagen\n\tencabezado.append(header3)\n\tdoc.setFont("Courier-BoldOblique", 11)#fuente de letra y tama\xc3\xb1o\n\tdoc.drawString(210+x,950+y,"VALIDO POR SEIS MESES")#para poner texto valores x,y\t\n\t#doc.drawText(text)\t\n\tfrom reportlab.platypus import *\n\tstory=[]\t\n\ttextoArchivo = open("txt.txt", "r")  # Abrimos un archivo de texto\n\ttext=""\n\ttextobject = doc.beginText(40,890)  # Iniciamos el textobject\n\ttextobject.setTextOrigin(40, 890)  # Ubicamos el cursor donde dibujar\n\ttextobject.setFont("VeraIt", 8)\n\tfor i in textoArchivo:\n\t\t#i = i.replace("\\n","")  # Remplazamos el salto de linea\n\t\t#textobject.textLine( i)  # Dibujamos la linea\n\t\tp = Paragraph(i, style)\n \t\tstory.append(p)\n \t\tstory.append(Spacer(1,0.2))\n\t  \n\t#textobject.setCharSpace(0.1)  # Espacio entre caracteres \n\t#textobject.setWordSpace(0.2)  # Espacio entre palabras\t   \n\t#wraped_text = "\\n".join(wrap(text, 80)) # 80 is line width\n\tdoc.drawText(textobject)  # Dibujamos el texto pasando un objeto de texto\n\tdoc.build(story)\n\t#doc.showPage()\n\tdoc.save()\t\n\t#startfile(pdf)   \n\treturn dict()\n\n\n\n\n\n\n\n\t\n\n\n\n\t\n\n\n\n\n\t\n\n\t\n \n \n\n\t\n\n    \n\t\n\n\n\n\t\n\t\n\n\n\n\n\n\n\n\n\n\n\n\n\n\n\t\n\nresponse._vars=response._caller(dame_un_pdf)\n'
p7
sS'snapshot'
p8
(dp9
S'exception'
p10
(dp11
S'__hash__'
p12
S"<method-wrapper '__hash__' of exceptions.TypeError object>"
p13
sS'__setattr__'
p14
S"<method-wrapper '__setattr__' of exceptions.TypeError object>"
p15
sS'__reduce_ex__'
p16
S'<built-in method __reduce_ex__ of exceptions.TypeError object>'
p17
sS'__getslice__'
p18
S"<method-wrapper '__getslice__' of exceptions.TypeError object>"
p19
sS'__getitem__'
p20
S"<method-wrapper '__getitem__' of exceptions.TypeError object>"
p21
sS'__setstate__'
p22
S'<built-in method __setstate__ of exceptions.TypeError object>'
p23
sS'__reduce__'
p24
S'<built-in method __reduce__ of exceptions.TypeError object>'
p25
sS'__str__'
p26
S"<method-wrapper '__str__' of exceptions.TypeError object>"
p27
sS'__format__'
p28
S'<built-in method __format__ of exceptions.TypeError object>'
p29
sS'__getattribute__'
p30
S"<method-wrapper '__getattribute__' of exceptions.TypeError object>"
p31
sS'__class__'
p32
S"<type 'exceptions.TypeError'>"
p33
sS'__unicode__'
p34
S'<built-in method __unicode__ of exceptions.TypeError object>'
p35
sS'__delattr__'
p36
S"<method-wrapper '__delattr__' of exceptions.TypeError object>"
p37
sS'__subclasshook__'
p38
S'<built-in method __subclasshook__ of type object>'
p39
sS'__repr__'
p40
S"<method-wrapper '__repr__' of exceptions.TypeError object>"
p41
sS'args'
p42
S"('iteration over non-sequence',)"
p43
sS'__dict__'
p44
S'{}'
p45
sS'__sizeof__'
p46
S'<built-in method __sizeof__ of exceptions.TypeError object>'
p47
sS'__doc__'
p48
S"'Inappropriate argument type.'"
p49
sS'__init__'
p50
S"<method-wrapper '__init__' of exceptions.TypeError object>"
p51
sS'__new__'
p52
S'<built-in method __new__ of type object>'
p53
ssS'evalue'
p54
S'iteration over non-sequence'
p55
sS'request'
p56
cgluon.html
XML_unpickle
p57
(S's\x16_\x00\x00<div><table><tr><td style="font-weight:bold;vertical-align:top;">ajax</td><td style="vertical-align:top;">:</td><td><div>False</div></td></tr><tr><td style="font-weight:bold;vertical-align:top;">application</td><td style="vertical-align:top;">:</td><td><div>antecedentesplataforma</div></td></tr><tr><td style="font-weight:bold;vertical-align:top;">args</td><td style="vertical-align:top;">:</td><td><div><table><tr><td><div>1</div></td></tr><tr><td><div>150519</div></td></tr><tr><td><div>29917029</div></td></tr></table></div></td></tr><tr><td style="font-weight:bold;vertical-align:top;">cid</td><td style="vertical-align:top;">:</td><td><div>None</div></td></tr><tr><td style="font-weight:bold;vertical-align:top;">client</td><td style="vertical-align:top;">:</td><td><div>127.0.0.1</div></td></tr><tr><td style="font-weight:bold;vertical-align:top;">controller</td><td style="vertical-align:top;">:</td><td><div>imprimir</div></td></tr><tr><td style="font-weight:bold;vertical-align:top;">cookies</td><td style="vertical-align:top;">:</td><td><div><table><tr><td style="font-weight:bold;vertical-align:top;">session_id_admin</td><td style="vertical-align:top;">:</td><td><div>127.0.0.1-6e16deac-a441-41c6-8794-65432dcd36c7<table><tr><td style="font-weight:bold;vertical-align:top;">comment</td><td style="vertical-align:top;">:</td><td><div></div></td></tr><tr><td style="font-weight:bold;vertical-align:top;">domain</td><td style="vertical-align:top;">:</td><td><div></div></td></tr><tr><td style="font-weight:bold;vertical-align:top;">expires</td><td style="vertical-align:top;">:</td><td><div></div></td></tr><tr><td style="font-weight:bold;vertical-align:top;">httponly</td><td style="vertical-align:top;">:</td><td><div></div></td></tr><tr><td style="font-weight:bold;vertical-align:top;">max-age</td><td style="vertical-align:top;">:</td><td><div></div></td></tr><tr><td style="font-weight:bold;vertical-align:top;">path</td><td style="vertical-align:top;">:</td><td><div></div></td></tr><tr><td style="font-weight:bold;vertical-align:top;">secure</td><td style="vertical-align:top;">:</td><td><div></div></td></tr><tr><td style="font-weight:bold;vertical-align:top;">version</td><td style="vertical-align:top;">:</td><td><div></div></td></tr></table></div></td></tr><tr><td style="font-weight:bold;vertical-align:top;">session_id_antecedentesplataforma</td><td style="vertical-align:top;">:</td><td><div>127.0.0.1-c6eb17b9-6b4b-4d8c-97f6-a155974989ca<table><tr><td style="font-weight:bold;vertical-align:top;">comment</td><td style="vertical-align:top;">:</td><td><div></div></td></tr><tr><td style="font-weight:bold;vertical-align:top;">domain</td><td style="vertical-align:top;">:</td><td><div></div></td></tr><tr><td style="font-weight:bold;vertical-align:top;">expires</td><td style="vertical-align:top;">:</td><td><div></div></td></tr><tr><td style="font-weight:bold;vertical-align:top;">httponly</td><td style="vertical-align:top;">:</td><td><div></div></td></tr><tr><td style="font-weight:bold;vertical-align:top;">max-age</td><td style="vertical-align:top;">:</td><td><div></div></td></tr><tr><td style="font-weight:bold;vertical-align:top;">path</td><td style="vertical-align:top;">:</td><td><div></div></td></tr><tr><td style="font-weight:bold;vertical-align:top;">secure</td><td style="vertical-align:top;">:</td><td><div></div></td></tr><tr><td style="font-weight:bold;vertical-align:top;">version</td><td style="vertical-align:top;">:</td><td><div></div></td></tr></table></div></td></tr><tr><td style="font-weight:bold;vertical-align:top;">session_id_welcome</td><td style="vertical-align:top;">:</td><td><div>127.0.0.1-36f6f020-fff6-4b70-893c-412178398d9a<table><tr><td style="font-weight:bold;vertical-align:top;">comment</td><td style="vertical-align:top;">:</td><td><div></div></td></tr><tr><td style="font-weight:bold;vertical-align:top;">domain</td><td style="vertical-align:top;">:</td><td><div></div></td></tr><tr><td style="font-weight:bold;vertical-align:top;">expires</td><td style="vertical-align:top;">:</td><td><div></div></td></tr><tr><td style="font-weight:bold;vertical-align:top;">httponly</td><td style="vertical-align:top;">:</td><td><div></div></td></tr><tr><td style="font-weight:bold;vertical-align:top;">max-age</td><td style="vertical-align:top;">:</td><td><div></div></td></tr><tr><td style="font-weight:bold;vertical-align:top;">path</td><td style="vertical-align:top;">:</td><td><div></div></td></tr><tr><td style="font-weight:bold;vertical-align:top;">secure</td><td style="vertical-align:top;">:</td><td><div></div></td></tr><tr><td style="font-weight:bold;vertical-align:top;">version</td><td style="vertical-align:top;">:</td><td><div></div></td></tr></table></div></td></tr></table></div></td></tr><tr><td style="font-weight:bold;vertical-align:top;">env</td><td style="vertical-align:top;">:</td><td><div><table><tr><td style="font-weight:bold;vertical-align:top;">HTTP_ACCEPT</td><td style="vertical-align:top;">:</td><td><div>text/html,application/xhtml+xml,application/xml;q=0.9,image/webp,image/apng,*/*;q=0.8,application/signed-exchange;v=b3</div></td></tr><tr><td style="font-weight:bold;vertical-align:top;">HTTP_ACCEPT_ENCODING</td><td style="vertical-align:top;">:</td><td><div>gzip, deflate, br</div></td></tr><tr><td style="font-weight:bold;vertical-align:top;">HTTP_ACCEPT_LANGUAGE</td><td style="vertical-align:top;">:</td><td><div>es-ES,es;q=0.9,en;q=0.8,gl;q=0.7</div></td></tr><tr><td style="font-weight:bold;vertical-align:top;">HTTP_CACHE_CONTROL</td><td style="vertical-align:top;">:</td><td><div>max-age=0</div></td></tr><tr><td style="font-weight:bold;vertical-align:top;">HTTP_CONNECTION</td><td style="vertical-align:top;">:</td><td><div>keep-alive</div></td></tr><tr><td style="font-weight:bold;vertical-align:top;">HTTP_COOKIE</td><td style="vertical-align:top;">:</td><td><div>session_id_welcome=127.0.0.1-36f6f020-fff6-4b70-893c-412178398d9a; session_id_admin=127.0.0.1-6e16deac-a441-41c6-8794-65432dcd36c7; session_id_antecedentesplataforma=127.0.0.1-c6eb17b9-6b4b-4d8c-97f6-a155974989ca</div></td></tr><tr><td style="font-weight:bold;vertical-align:top;">HTTP_HOST</td><td style="vertical-align:top;">:</td><td><div>127.0.0.1:8000</div></td></tr><tr><td style="font-weight:bold;vertical-align:top;">HTTP_REFERER</td><td style="vertical-align:top;">:</td><td><div>http://127.0.0.1:8000/antecedentesplataforma/confeccion/pre_imprimir/1/150519/29917029</div></td></tr><tr><td style="font-weight:bold;vertical-align:top;">HTTP_UPGRADE_INSECURE_REQUESTS</td><td style="vertical-align:top;">:</td><td><div>1</div></td></tr><tr><td style="font-weight:bold;vertical-align:top;">HTTP_USER_AGENT</td><td style="vertical-align:top;">:</td><td><div>Mozilla/5.0 (Windows NT 6.1) AppleWebKit/537.36 (KHTML, like Gecko) Chrome/74.0.3729.169 Safari/537.36</div></td></tr><tr><td style="font-weight:bold;vertical-align:top;">PATH_INFO</td><td style="vertical-align:top;">:</td><td><div>/antecedentesplataforma/imprimir/dame_un_pdf/1/150519/29917029</div></td></tr><tr><td style="font-weight:bold;vertical-align:top;">QUERY_STRING</td><td style="vertical-align:top;">:</td><td><div></div></td></tr><tr><td style="font-weight:bold;vertical-align:top;">REMOTE_ADDR</td><td style="vertical-align:top;">:</td><td><div>127.0.0.1</div></td></tr><tr><td style="font-weight:bold;vertical-align:top;">REMOTE_PORT</td><td style="vertical-align:top;">:</td><td><div>6339</div></td></tr><tr><td style="font-weight:bold;vertical-align:top;">REQUEST_METHOD</td><td style="vertical-align:top;">:</td><td><div>GET</div></td></tr><tr><td style="font-weight:bold;vertical-align:top;">SCRIPT_NAME</td><td style="vertical-align:top;">:</td><td><div></div></td></tr><tr><td style="font-weight:bold;vertical-align:top;">SERVER_NAME</td><td style="vertical-align:top;">:</td><td><div>HaTaK3-PC</div></td></tr><tr><td style="font-weight:bold;vertical-align:top;">SERVER_PORT</td><td style="vertical-align:top;">:</td><td><div>8000</div></td></tr><tr><td style="font-weight:bold;vertical-align:top;">SERVER_PROTOCOL</td><td style="vertical-align:top;">:</td><td><div>HTTP/1.1</div></td></tr><tr><td style="font-weight:bold;vertical-align:top;">SERVER_SOFTWARE</td><td style="vertical-align:top;">:</td><td><div>Rocket 1.2.6</div></td></tr><tr><td style="font-weight:bold;vertical-align:top;">app_folders</td><td style="vertical-align:top;">:</td><td><div>set([&#x27;D:\\\\web2py\\\\applications\\\\admin\\\\&#x27;, &#x27;D:\\\\web2py\\\\applications\\\\welcome\\\\&#x27;, &#x27;D:\\\\web2py\\\\applications\\\\antecedentesplataforma\\\\&#x27;])</div></td></tr><tr><td style="font-weight:bold;vertical-align:top;">applications_parent</td><td style="vertical-align:top;">:</td><td><div>D:\\web2py</div></td></tr><tr><td style="font-weight:bold;vertical-align:top;">cmd_args</td><td style="vertical-align:top;">:</td><td><div><table></table></div></td></tr><tr><td style="font-weight:bold;vertical-align:top;">cmd_options</td><td style="vertical-align:top;">:</td><td><div>&lt;Values at 0x28bdd50: {&#x27;verbose&#x27;: False, &#x27;ip&#x27;: &#x27;127.0.0.1&#x27;, &#x27;debuglevel&#x27;: 30, &#x27;with_scheduler&#x27;: False, &#x27;shutdown_timeout&#x27;: 5, &#x27;taskbar&#x27;: False, &#x27;with_coverage&#x27;: False, &#x27;pid_filename&#x27;: &#x27;httpserver.pid&#x27;, &#x27;maxthreads&#x27;: None, &#x27;softcron&#x27;: False, &#x27;server_name&#x27;: &#x27;HaTaK3-PC&#x27;, &#x27;bpython&#x27;: False, &#x27;nogui&#x27;: False, &#x27;port&#x27;: 8000, &#x27;print_errors&#x27;: False, &#x27;extcron&#x27;: False, &#x27;runcron&#x27;: False, &#x27;run_system_tests&#x27;: False, &#x27;test&#x27;: None, &#x27;folder&#x27;: &#x27;D:\\\\web2py&#x27;, &#x27;config&#x27;: &#x27;&#x27;, &#x27;minthreads&#x27;: None, &#x27;shell&#x27;: None, &#x27;run&#x27;: &#x27;&#x27;, &#x27;log_filename&#x27;: &#x27;httpserver.log&#x27;, &#x27;profiler_dir&#x27;: None, &#x27;args&#x27;: [&#x27;&#x27;], &#x27;socket_timeout&#x27;: 5, &#x27;ssl_ca_certificate&#x27;: None, &#x27;scheduler&#x27;: None, &#x27;interfaces&#x27;: None, &#x27;ssl_private_key&#x27;: &#x27;&#x27;, &#x27;gae&#x27;: None, &#x27;password&#x27;: &#x27;******&#x27;, &#x27;request_queue_size&#x27;: 5, &#x27;ssl_certificate&#x27;: &#x27;&#x27;, &#x27;cronjob&#x27;: False, &#x27;numthreads&#x27;: None, &#x27;quiet&#x27;: False, &#x27;import_models&#x27;: False, &#x27;timeout&#x27;: 10, &#x27;plain&#x27;: False, &#x27;nobanner&#x27;: False}&gt;</div></td></tr><tr><td style="font-weight:bold;vertical-align:top;">db_sessions</td><td style="vertical-align:top;">:</td><td><div>set([])</div></td></tr><tr><td style="font-weight:bold;vertical-align:top;">debugging</td><td style="vertical-align:top;">:</td><td><div>False</div></td></tr><tr><td style="font-weight:bold;vertical-align:top;">gluon_parent</td><td style="vertical-align:top;">:</td><td><div>D:\\web2py</div></td></tr><tr><td style="font-weight:bold;vertical-align:top;">http_accept</td><td style="vertical-align:top;">:</td><td><div>text/html,application/xhtml+xml,application/xml;q=0.9,image/webp,image/apng,*/*;q=0.8,application/signed-exchange;v=b3</div></td></tr><tr><td style="font-weight:bold;vertical-align:top;">http_accept_encoding</td><td style="vertical-align:top;">:</td><td><div>gzip, deflate, br</div></td></tr><tr><td style="font-weight:bold;vertical-align:top;">http_accept_language</td><td style="vertical-align:top;">:</td><td><div>es-ES,es;q=0.9,en;q=0.8,gl;q=0.7</div></td></tr><tr><td style="font-weight:bold;vertical-align:top;">http_cache_control</td><td style="vertical-align:top;">:</td><td><div>max-age=0</div></td></tr><tr><td style="font-weight:bold;vertical-align:top;">http_connection</td><td style="vertical-align:top;">:</td><td><div>keep-alive</div></td></tr><tr><td style="font-weight:bold;vertical-align:top;">http_cookie</td><td style="vertical-align:top;">:</td><td><div>session_id_welcome=127.0.0.1-36f6f020-fff6-4b70-893c-412178398d9a; session_id_admin=127.0.0.1-6e16deac-a441-41c6-8794-65432dcd36c7; session_id_antecedentesplataforma=127.0.0.1-c6eb17b9-6b4b-4d8c-97f6-a155974989ca</div></td></tr><tr><td style="font-weight:bold;vertical-align:top;">http_host</td><td style="vertical-align:top;">:</td><td><div>127.0.0.1:8000</div></td></tr><tr><td style="font-weight:bold;vertical-align:top;">http_referer</td><td style="vertical-align:top;">:</td><td><div>http://127.0.0.1:8000/antecedentesplataforma/confeccion/pre_imprimir/1/150519/29917029</div></td></tr><tr><td style="font-weight:bold;vertical-align:top;">http_upgrade_insecure_requests</td><td style="vertical-align:top;">:</td><td><div>1</div></td></tr><tr><td style="font-weight:bold;vertical-align:top;">http_user_agent</td><td style="vertical-align:top;">:</td><td><div>Mozilla/5.0 (Windows NT 6.1) AppleWebKit/537.36 (KHTML, like Gecko) Chrome/74.0.3729.169 Safari/537.36</div></td></tr><tr><td style="font-weight:bold;vertical-align:top;">is_jython</td><td style="vertical-align:top;">:</td><td><div>False</div></td></tr><tr><td style="font-weight:bold;vertical-align:top;">is_pypy</td><td style="vertical-align:top;">:</td><td><div>False</div></td></tr><tr><td style="font-weight:bold;vertical-align:top;">is_source</td><td style="vertical-align:top;">:</td><td><div>False</div></td></tr><tr><td style="font-weight:bold;vertical-align:top;">local_hosts</td><td style="vertical-align:top;">:</td><td><div><table><tr><td><div>HaTaK3-PC</div></td></tr><tr><td><div>10.120.0.69</div></td></tr><tr><td><div>::ffff:127.0.0.1</div></td></tr><tr><td><div>::1</div></td></tr><tr><td><div>fe80::65c7:8cfe:1866:2ddb%12</div></td></tr><tr><td><div>fe80::6de3:fa60:8d1c:59aa%11</div></td></tr><tr><td><div>127.0.0.1</div></td></tr><tr><td><div>192.168.56.1</div></td></tr></table></div></td></tr><tr><td style="font-weight:bold;vertical-align:top;">path_info</td><td style="vertical-align:top;">:</td><td><div>/antecedentesplataforma/imprimir/dame_un_pdf/1/150519/29917029</div></td></tr><tr><td style="font-weight:bold;vertical-align:top;">query_string</td><td style="vertical-align:top;">:</td><td><div></div></td></tr><tr><td style="font-weight:bold;vertical-align:top;">remote_addr</td><td style="vertical-align:top;">:</td><td><div>127.0.0.1</div></td></tr><tr><td style="font-weight:bold;vertical-align:top;">remote_port</td><td style="vertical-align:top;">:</td><td><div>6339</div></td></tr><tr><td style="font-weight:bold;vertical-align:top;">request_method</td><td style="vertical-align:top;">:</td><td><div>GET</div></td></tr><tr><td style="font-weight:bold;vertical-align:top;">request_uri</td><td style="vertical-align:top;">:</td><td><div>/antecedentesplataforma/imprimir/dame_un_pdf/1/150519/29917029</div></td></tr><tr><td style="font-weight:bold;vertical-align:top;">script_name</td><td style="vertical-align:top;">:</td><td><div></div></td></tr><tr><td style="font-weight:bold;vertical-align:top;">server_name</td><td style="vertical-align:top;">:</td><td><div>HaTaK3-PC</div></td></tr><tr><td style="font-weight:bold;vertical-align:top;">server_port</td><td style="vertical-align:top;">:</td><td><div>8000</div></td></tr><tr><td style="font-weight:bold;vertical-align:top;">server_protocol</td><td style="vertical-align:top;">:</td><td><div>HTTP/1.1</div></td></tr><tr><td style="font-weight:bold;vertical-align:top;">server_software</td><td style="vertical-align:top;">:</td><td><div>Rocket 1.2.6</div></td></tr><tr><td style="font-weight:bold;vertical-align:top;">web2py_path</td><td style="vertical-align:top;">:</td><td><div>D:\\web2py</div></td></tr><tr><td style="font-weight:bold;vertical-align:top;">web2py_version</td><td style="vertical-align:top;">:</td><td><div>2.14.6-stable+timestamp.2016.05.10.00.21.47</div></td></tr><tr><td style="font-weight:bold;vertical-align:top;">wsgi.errors</td><td style="vertical-align:top;">:</td><td><div>&lt;open file &#x27;&lt;stderr&gt;&#x27;, mode &#x27;w&#x27; at 0x0133D0D0&gt;</div></td></tr><tr><td style="font-weight:bold;vertical-align:top;">wsgi.file_wrapper</td><td style="vertical-align:top;">:</td><td><div>&lt;class wsgiref.util.FileWrapper at 0x029BE4C8&gt;</div></td></tr><tr><td style="font-weight:bold;vertical-align:top;">wsgi.input</td><td style="vertical-align:top;">:</td><td><div>&lt;socket._fileobject object at 0x07C51570&gt;</div></td></tr><tr><td style="font-weight:bold;vertical-align:top;">wsgi.multiprocess</td><td style="vertical-align:top;">:</td><td><div>False</div></td></tr><tr><td style="font-weight:bold;vertical-align:top;">wsgi.multithread</td><td style="vertical-align:top;">:</td><td><div>True</div></td></tr><tr><td style="font-weight:bold;vertical-align:top;">wsgi.run_once</td><td style="vertical-align:top;">:</td><td><div>False</div></td></tr><tr><td style="font-weight:bold;vertical-align:top;">wsgi.url_scheme</td><td style="vertical-align:top;">:</td><td><div>http</div></td></tr><tr><td style="font-weight:bold;vertical-align:top;">wsgi.version</td><td style="vertical-align:top;">:</td><td><div><table><tr><td><div>1</div></td></tr><tr><td><div>0</div></td></tr></table></div></td></tr><tr><td style="font-weight:bold;vertical-align:top;">wsgi_errors</td><td style="vertical-align:top;">:</td><td><div>&lt;open file &#x27;&lt;stderr&gt;&#x27;, mode &#x27;w&#x27; at 0x0133D0D0&gt;</div></td></tr><tr><td style="font-weight:bold;vertical-align:top;">wsgi_file_wrapper</td><td style="vertical-align:top;">:</td><td><div>&lt;class wsgiref.util.FileWrapper at 0x029BE4C8&gt;</div></td></tr><tr><td style="font-weight:bold;vertical-align:top;">wsgi_input</td><td style="vertical-align:top;">:</td><td><div>&lt;socket._fileobject object at 0x07C51570&gt;</div></td></tr><tr><td style="font-weight:bold;vertical-align:top;">wsgi_multiprocess</td><td style="vertical-align:top;">:</td><td><div>False</div></td></tr><tr><td style="font-weight:bold;vertical-align:top;">wsgi_multithread</td><td style="vertical-align:top;">:</td><td><div>True</div></td></tr><tr><td style="font-weight:bold;vertical-align:top;">wsgi_run_once</td><td style="vertical-align:top;">:</td><td><div>False</div></td></tr><tr><td style="font-weight:bold;vertical-align:top;">wsgi_url_scheme</td><td style="vertical-align:top;">:</td><td><div>http</div></td></tr><tr><td style="font-weight:bold;vertical-align:top;">wsgi_version</td><td style="vertical-align:top;">:</td><td><div><table><tr><td><div>1</div></td></tr><tr><td><div>0</div></td></tr></table></div></td></tr></table></div></td></tr><tr><td style="font-weight:bold;vertical-align:top;">extension</td><td style="vertical-align:top;">:</td><td><div>html</div></td></tr><tr><td style="font-weight:bold;vertical-align:top;">folder</td><td style="vertical-align:top;">:</td><td><div>D:\\web2py\\applications\\antecedentesplataforma\\</div></td></tr><tr><td style="font-weight:bold;vertical-align:top;">function</td><td style="vertical-align:top;">:</td><td><div>dame_un_pdf</div></td></tr><tr><td style="font-weight:bold;vertical-align:top;">global_settings</td><td style="vertical-align:top;">:</td><td><div><table><tr><td style="font-weight:bold;vertical-align:top;">app_folders</td><td style="vertical-align:top;">:</td><td><div>set([&#x27;D:\\\\web2py\\\\applications\\\\admin\\\\&#x27;, &#x27;D:\\\\web2py\\\\applications\\\\welcome\\\\&#x27;, &#x27;D:\\\\web2py\\\\applications\\\\antecedentesplataforma\\\\&#x27;])</div></td></tr><tr><td style="font-weight:bold;vertical-align:top;">applications_parent</td><td style="vertical-align:top;">:</td><td><div>D:\\web2py</div></td></tr><tr><td style="font-weight:bold;vertical-align:top;">cmd_args</td><td style="vertical-align:top;">:</td><td><div><table></table></div></td></tr><tr><td style="font-weight:bold;vertical-align:top;">cmd_options</td><td style="vertical-align:top;">:</td><td><div>&lt;Values at 0x28bdd50: {&#x27;verbose&#x27;: False, &#x27;ip&#x27;: &#x27;127.0.0.1&#x27;, &#x27;debuglevel&#x27;: 30, &#x27;with_scheduler&#x27;: False, &#x27;shutdown_timeout&#x27;: 5, &#x27;taskbar&#x27;: False, &#x27;with_coverage&#x27;: False, &#x27;pid_filename&#x27;: &#x27;httpserver.pid&#x27;, &#x27;maxthreads&#x27;: None, &#x27;softcron&#x27;: False, &#x27;server_name&#x27;: &#x27;HaTaK3-PC&#x27;, &#x27;bpython&#x27;: False, &#x27;nogui&#x27;: False, &#x27;port&#x27;: 8000, &#x27;print_errors&#x27;: False, &#x27;extcron&#x27;: False, &#x27;runcron&#x27;: False, &#x27;run_system_tests&#x27;: False, &#x27;test&#x27;: None, &#x27;folder&#x27;: &#x27;D:\\\\web2py&#x27;, &#x27;config&#x27;: &#x27;&#x27;, &#x27;minthreads&#x27;: None, &#x27;shell&#x27;: None, &#x27;run&#x27;: &#x27;&#x27;, &#x27;log_filename&#x27;: &#x27;httpserver.log&#x27;, &#x27;profiler_dir&#x27;: None, &#x27;args&#x27;: [&#x27;&#x27;], &#x27;socket_timeout&#x27;: 5, &#x27;ssl_ca_certificate&#x27;: None, &#x27;scheduler&#x27;: None, &#x27;interfaces&#x27;: None, &#x27;ssl_private_key&#x27;: &#x27;&#x27;, &#x27;gae&#x27;: None, &#x27;password&#x27;: &#x27;******&#x27;, &#x27;request_queue_size&#x27;: 5, &#x27;ssl_certificate&#x27;: &#x27;&#x27;, &#x27;cronjob&#x27;: False, &#x27;numthreads&#x27;: None, &#x27;quiet&#x27;: False, &#x27;import_models&#x27;: False, &#x27;timeout&#x27;: 10, &#x27;plain&#x27;: False, &#x27;nobanner&#x27;: False}&gt;</div></td></tr><tr><td style="font-weight:bold;vertical-align:top;">db_sessions</td><td style="vertical-align:top;">:</td><td><div>set([])</div></td></tr><tr><td style="font-weight:bold;vertical-align:top;">debugging</td><td style="vertical-align:top;">:</td><td><div>False</div></td></tr><tr><td style="font-weight:bold;vertical-align:top;">gluon_parent</td><td style="vertical-align:top;">:</td><td><div>D:\\web2py</div></td></tr><tr><td style="font-weight:bold;vertical-align:top;">is_jython</td><td style="vertical-align:top;">:</td><td><div>False</div></td></tr><tr><td style="font-weight:bold;vertical-align:top;">is_pypy</td><td style="vertical-align:top;">:</td><td><div>False</div></td></tr><tr><td style="font-weight:bold;vertical-align:top;">is_source</td><td style="vertical-align:top;">:</td><td><div>False</div></td></tr><tr><td style="font-weight:bold;vertical-align:top;">local_hosts</td><td style="vertical-align:top;">:</td><td><div><table><tr><td><div>HaTaK3-PC</div></td></tr><tr><td><div>10.120.0.69</div></td></tr><tr><td><div>::ffff:127.0.0.1</div></td></tr><tr><td><div>::1</div></td></tr><tr><td><div>fe80::65c7:8cfe:1866:2ddb%12</div></td></tr><tr><td><div>fe80::6de3:fa60:8d1c:59aa%11</div></td></tr><tr><td><div>127.0.0.1</div></td></tr><tr><td><div>192.168.56.1</div></td></tr></table></div></td></tr><tr><td style="font-weight:bold;vertical-align:top;">web2py_version</td><td style="vertical-align:top;">:</td><td><div>2.14.6-stable+timestamp.2016.05.10.00.21.47</div></td></tr></table></div></td></tr><tr><td style="font-weight:bold;vertical-align:top;">is_https</td><td style="vertical-align:top;">:</td><td><div>False</div></td></tr><tr><td style="font-weight:bold;vertical-align:top;">is_local</td><td style="vertical-align:top;">:</td><td><div>True</div></td></tr><tr><td style="font-weight:bold;vertical-align:top;">is_restful</td><td style="vertical-align:top;">:</td><td><div>False</div></td></tr><tr><td style="font-weight:bold;vertical-align:top;">is_scheduler</td><td style="vertical-align:top;">:</td><td><div>False</div></td></tr><tr><td style="font-weight:bold;vertical-align:top;">is_shell</td><td style="vertical-align:top;">:</td><td><div>False</div></td></tr><tr><td style="font-weight:bold;vertical-align:top;">now</td><td style="vertical-align:top;">:</td><td><div>datetime.datetime(2019, 6, 14, 13, 41, 46, 991000)</div></td></tr><tr><td style="font-weight:bold;vertical-align:top;">raw_args</td><td style="vertical-align:top;">:</td><td><div>1/150519/29917029</div></td></tr><tr><td style="font-weight:bold;vertical-align:top;">raw_extension</td><td style="vertical-align:top;">:</td><td><div>None</div></td></tr><tr><td style="font-weight:bold;vertical-align:top;">url</td><td style="vertical-align:top;">:</td><td><div>/antecedentesplataforma/imprimir/dame_un_pdf/1/150519/29917029</div></td></tr><tr><td style="font-weight:bold;vertical-align:top;">utcnow</td><td style="vertical-align:top;">:</td><td><div>datetime.datetime(2019, 6, 14, 16, 41, 46, 991000)</div></td></tr><tr><td style="font-weight:bold;vertical-align:top;">wsgi</td><td style="vertical-align:top;">:</td><td><div>&lt;gluon.main.LazyWSGI object at 0x0364A470&gt;</div></td></tr></table></div>'
tRp58
sS'frames'
p59
(lp60
(dp61
S'file'
p62
S'D:\\web2py\\gluon\\restricted.py'
p63
sS'dump'
p64
(dp65
S'environment'
p66
S"{'A': <class 'gluon.html.A'>, 'ANY_OF': <class 'gluon.validators.ANY_OF'>, 'ASSIGNJS': <function ASSIGNJS>, 'AppConfig': <function AppConfig>, 'Auth': <class 'gluon.tools.Auth'>, 'B': <class 'gluon.html.B'>, 'BEAUTIFY': <class 'gluon.html.BEAUTIFY'>, 'BODY': <class 'gluon.html.BODY'>, 'BR': <class 'gluon.html.BR'>, 'BUTTON': <class 'gluon.html.BUTTON'>, ...}"
p67
sS'ccode'
p68
S'<code object <module> at 07A94380, file "D:\\web2...entesplataforma\\controllers/imprimir.py", line 2>'
p69
ssS'lnum'
p70
I227
sS'lines'
p71
(dp72
I224
S'            ccode = code'
p73
sI225
S'        else:'
p74
sI226
S'            ccode = compile2(code, layer)'
p75
sI227
S'        exec ccode in environment'
p76
sI228
S'    except HTTP:'
p77
sI229
S'        raise'
p78
sI230
S'    except RestrictedError:'
p79
sI231
S'        # do not encapsulate (obfuscate) the original RestrictedError'
p80
sI222
S'    try:'
p81
sI223
S'        if isinstance(code, types.CodeType):'
p82
ssS'call'
p83
S"(code='\\nfrom reportlab.pdfgen import canvas\\n\\ndef sin_an...\\n\\t\\n\\nresponse._vars=response._caller(dame_un_pdf)\\n', environment={'A': <class 'gluon.html.A'>, 'ANY_OF': <class 'gluon.validators.ANY_OF'>, 'ASSIGNJS': <function ASSIGNJS>, 'AppConfig': <function AppConfig>, 'Auth': <class 'gluon.tools.Auth'>, 'B': <class 'gluon.html.B'>, 'BEAUTIFY': <class 'gluon.html.BEAUTIFY'>, 'BODY': <class 'gluon.html.BODY'>, 'BR': <class 'gluon.html.BR'>, 'BUTTON': <class 'gluon.html.BUTTON'>, ...}, layer=r'D:\\web2py\\applications\\antecedentesplataforma\\controllers/imprimir.py')"
p84
sS'func'
p85
S'restricted'
p86
sa(dp87
g62
S'D:\\web2py\\applications\\antecedentesplataforma\\controllers\\imprimir.py'
p88
sg64
(dp89
sg70
I639
sg71
(dp90
I628
S''
sI629
S''
sI630
S''
sI631
S''
sI632
S''
sI633
S''
sI634
S''
sI635
S''
sI636
S''
sI637
S''
ssg83
S'()'
p91
sg85
S'<module>'
p92
sa(dp93
g62
S'D:\\web2py\\gluon\\globals.py'
p94
sg64
(dp95
S'self'
p96
S'undefined'
p97
sS'f'
S'<function dame_un_pdf>'
p98
ssg70
I417
sg71
(dp99
I416
S'        self._vars = None'
p100
sI417
S'        self._caller = lambda f: f()'
p101
sI418
S'        self._view_environment = None'
p102
sI419
S'        self._custom_commit = None'
p103
sI420
S'        self._custom_rollback = None'
p104
sI421
S"        self.generic_patterns = ['*']"
p105
sI412
S"        self.flash = ''            # used by the default view layout"
p106
sI413
S'        self.meta = Storage()      # used by web2py_ajax.html'
p107
sI414
S'        self.menu = []             # used by the default view layout'
p108
sI415
S'        self.files = []            # used by web2py_ajax.html'
p109
ssg83
S'(f=<function dame_un_pdf>)'
p110
sg85
S'<lambda>'
p111
sa(dp112
g62
S'D:\\web2py\\applications\\antecedentesplataforma\\controllers\\imprimir.py'
p113
sg64
(dp114
S'y'
g97
sS'x'
g97
ssg70
I383
sg71
(dp115
I384
S'    \tdata = open(archivotmp,"rb").read()'
p116
sI385
S'    \tos.unlink(archivotmp)'
p117
sI386
S"    \tresponse.headers['Content-Type']='application/pdf'"
p118
sI387
S''
sI378
S'    \tstory.append(Paragraph(escape("----------------------------------------------------------------"'
p119
sI379
S'    \t\t+" "+"----------------------------------------------------------------"),styles["Justify"]))'
p120
sI380
S'    \tstory.append(Paragraph(escape("Jefe Div. Antecedentes Personales    "+"  "+"    Jefe Del Departamento Insvestigaciones Judiciales"),styles["Justify"],styles["Justify"]))'
p121
sI381
S''
sI382
S''
sI383
S'    \tdoc.build(story)'
p122
ssg83
S'()'
p123
sg85
S'dame_un_pdf'
p124
sa(dp125
g62
S'D:\\web2py\\reportlab\\platypus\\doctemplate.py'
p126
sg64
(dp127
S'BaseDocTemplate.build'
p128
S'<unbound method BaseDocTemplate.build>'
p129
sS'flowables'
p130
S'[]'
p131
sS'self'
p132
S'<reportlab.platypus.doctemplate.SimpleDocTemplate instance>'
p133
sS'global BaseDocTemplate'
p134
S'<class reportlab.platypus.doctemplate.BaseDocTemplate>'
p135
sS'canvasmaker'
p136
S'<class reportlab.pdfgen.canvas.Canvas>'
p137
ssg70
I1292
sg71
(dp138
I1287
S"                        PageTemplate(id='Later',frames=frameT, onPage=onLaterPages,pagesize=self.pagesize)])"
p139
sI1288
S"        if onFirstPage is _doNothing and hasattr(self,'onFirstPage'):"
p140
sI1289
S'            self.pageTemplates[0].beforeDrawPage = self.onFirstPage'
p141
sI1290
S"        if onLaterPages is _doNothing and hasattr(self,'onLaterPages'):"
p142
sI1291
S'            self.pageTemplates[1].beforeDrawPage = self.onLaterPages'
p143
sI1292
S'        BaseDocTemplate.build(self,flowables, canvasmaker=canvasmaker)'
p144
sI1293
S''
sI1294
S'def progressCB(typ, value):'
p145
sI1295
S'    """Example prototype for progress monitoring.'
p146
sI1296
S''
ssg83
S'(self=<reportlab.platypus.doctemplate.SimpleDocTemplate instance>, flowables=[], onFirstPage=<function _doNothing>, onLaterPages=<function _doNothing>, canvasmaker=<class reportlab.pdfgen.canvas.Canvas>)'
p147
sg85
S'build'
p148
sa(dp149
g62
S'D:\\web2py\\reportlab\\platypus\\doctemplate.py'
p150
sg64
(dp151
S'self.handle_flowable'
p152
S'<bound method SimpleDocTemplate.handle_flowable ...platypus.doctemplate.SimpleDocTemplate instance>>'
p153
sS'self'
p154
S'<reportlab.platypus.doctemplate.SimpleDocTemplate instance>'
p155
sS'flowables'
p156
S'[]'
p157
ssg70
I1057
sg71
(dp158
I1056
S'                    first = flowables[0]'
p159
sI1057
S'                    self.handle_flowable(flowables)'
p160
sI1058
S'                    handled += 1'
p161
sI1059
S'                except:'
p162
sI1060
S'                    #if it has trace info, add it to the traceback message.'
p163
sI1061
S"                    if hasattr(first, '_traceInfo') and first._traceInfo:"
p164
sI1052
S'                        self._setPageTemplate()'
p165
sI1053
S'                    del flowables[0]'
p166
sI1054
S'                self.clean_hanging()'
p167
sI1055
S'                try:'
p168
ssg83
S'(self=<reportlab.platypus.doctemplate.SimpleDocTemplate instance>, flowables=[], filename=None, canvasmaker=<class reportlab.pdfgen.canvas.Canvas>)'
p169
sg85
g148
sa(dp170
g62
S'D:\\web2py\\reportlab\\platypus\\doctemplate.py'
p171
sg64
(dp172
S'f'
S"Paragraph(\n'_hyphenations': 0\n'style': <Paragrap....27559055118115, 439.27559055118115]\n) #Paragraph"
p173
sS'frame'
p174
S'<reportlab.platypus.frames.Frame instance>'
p175
sS'trySplit'
p176
g97
sS'canv'
p177
S'<reportlab.pdfgen.canvas.Canvas instance>'
p178
sS'self.allowSplitting'
p179
S'1'
sS'frame.add'
p180
S'<bound method Frame._add of <reportlab.platypus.frames.Frame instance>>'
p181
sS'self'
p182
S'<reportlab.platypus.doctemplate.SimpleDocTemplate instance>'
p183
ssg70
I912
sg71
(dp184
I907
S'            self.afterFlowable(f)'
p185
sI908
S'        else:'
p186
sI909
S'            frame = self.frame'
p187
sI910
S'            canv = self.canv'
p188
sI911
S'            #try to fit it then draw it'
p189
sI912
S'            if frame.add(f, canv, trySplit=self.allowSplitting):'
p190
sI913
S'                if not isinstance(f,FrameActionFlowable):'
p191
sI914
S'                    self._curPageFlowableCount += 1'
p192
sI915
S'                    self.afterFlowable(f)'
p193
sI916
S'                _addGeneratedContent(flowables,frame)'
p194
ssg83
S'(self=<reportlab.platypus.doctemplate.SimpleDocTemplate instance>, flowables=[])'
p195
sg85
S'handle_flowable'
p196
sa(dp197
g62
S'D:\\web2py\\reportlab\\platypus\\frames.py'
p198
sg64
(dp199
S'flowable'
p200
S"Paragraph(\n'_hyphenations': 0\n'style': <Paragrap....27559055118115, 439.27559055118115]\n) #Paragraph"
p201
sS'h'
S'97.8897637795277'
p202
sS'aW'
p203
S'439.27559055118115'
p204
sS'w'
g97
sS'flowable.wrap'
p205
S"<bound method Paragraph.wrap of Paragraph(\n'_hyp...27559055118115, 439.27559055118115]\n) #Paragraph>"
p206
ssg70
I174
sg71
(dp207
I169
S"                    if getattr(flowable,'_SPACETRANSFER',False) or zeroSize:"
p208
sI170
S'                        s = self._prevASpace'
p209
sI171
S'                    s = max(s-self._prevASpace,0)'
p210
sI172
S'            h = y - p - s'
p211
sI173
S'            if h>0 or zeroSize:'
p212
sI174
S'                w, h = flowable.wrap(aW, h)'
p213
sI175
S'            else:'
p214
sI176
S'                return 0'
p215
sI177
S''
sI178
S'            h += s'
p216
ssg83
S"(self=<reportlab.platypus.frames.Frame instance>, flowable=Paragraph(\n'_hyphenations': 0\n'style': <Paragrap....27559055118115, 439.27559055118115]\n) #Paragraph, canv=<reportlab.pdfgen.canvas.Canvas instance>, trySplit=1)"
p217
sg85
S'_add'
p218
sa(dp219
g62
S'D:\\web2py\\reportlab\\platypus\\paragraph.py'
p220
sg64
(dp221
S'self._wrapWidths'
p222
S'[439.27559055118115, 439.27559055118115]'
p223
sS'self'
p224
S"Paragraph(\n'_hyphenations': 0\n'style': <Paragrap....27559055118115, 439.27559055118115]\n) #Paragraph"
p225
sS'self.breakLines'
p226
S'<bound method Paragraph.breakLines of Paragraph(...27559055118115, 439.27559055118115]\n) #Paragraph>'
p227
sS'blPara'
p228
g97
ssg70
I1590
sg71
(dp229
I1585
S'        self._wrapWidths = [first_line_width, later_widths]'
p230
sI1586
S"        if style.wordWrap == 'CJK':"
p231
sI1587
S'            #use Asian text wrap algorithm to break characters'
p232
sI1588
S'            blPara = self.breakLinesCJK(self._wrapWidths)'
p233
sI1589
S'        else:'
p234
sI1590
S'            blPara = self.breakLines(self._wrapWidths)'
p235
sI1591
S'        self.blPara = blPara'
p236
sI1592
S"        autoLeading = getattr(self,'autoLeading',getattr(style,'autoLeading',''))"
p237
sI1593
S'        leading = style.leading'
p238
sI1594
S'        if blPara.kind==1:'
p239
ssg83
S"(self=Paragraph(\n'_hyphenations': 0\n'style': <Paragrap....27559055118115, 439.27559055118115]\n) #Paragraph, availWidth=439.27559055118115, availHeight=97.8897637795277)"
p240
sg85
S'wrap'
p241
sa(dp242
g62
S'D:\\web2py\\reportlab\\platypus\\paragraph.py'
p243
sg64
(dp244
S'maxWidths'
p245
S'[439.27559055118115, 439.27559055118115]'
p246
sS'self'
p247
S"Paragraph(\n'_hyphenations': 0\n'style': <Paragrap....27559055118115, 439.27559055118115]\n) #Paragraph"
p248
sS'style'
p249
S"<ParagraphStyle 'Justify'>"
p250
sS'global _handleBulletWidth'
p251
S'<function _handleBulletWidth>'
p252
sS'self.bulletText'
p253
S"<ParagraphStyle 'Justify'>"
p254
ssg70
I1789
sg71
(dp255
I1792
S''
sI1793
S"        autoLeading = getattr(self,'autoLeading',getattr(style,'autoLeading',''))"
p256
sI1784
S'        if attemptHyphenation:'
p257
sI1785
S"            hymwl = getattr(style,'hyphenationMinWordLength',hyphenationMinWordLength)"
p258
sI1786
S'        self._splitLongWordCount = self._hyphenations = 0'
p259
sI1787
S''
sI1788
S'        #for bullets, work out width and ensure we wrap the right amount onto line one'
p260
sI1789
S'        _handleBulletWidth(self.bulletText,style,maxWidths)'
p261
sI1790
S''
sI1791
S'        maxWidth = maxWidths[0]'
p262
ssg83
S"(self=Paragraph(\n'_hyphenations': 0\n'style': <Paragrap....27559055118115, 439.27559055118115]\n) #Paragraph, width=[439.27559055118115, 439.27559055118115])"
p263
sg85
S'breakLines'
p264
sa(dp265
g62
S'D:\\web2py\\reportlab\\platypus\\paragraph.py'
p266
sg64
(dp267
S'bulletText'
p268
S"<ParagraphStyle 'Justify'>"
p269
sS'f'
g97
ssg70
I1134
sg71
(dp270
I1129
S'        if isStr(bulletText):'
p271
sI1130
S'            bulletWidth = stringWidth( bulletText, style.bulletFontName, style.bulletFontSize)'
p272
sI1131
S'        else:'
p273
sI1132
S"            #it's a list of fragments"
p274
sI1133
S'            bulletWidth = 0'
p275
sI1134
S'            for f in bulletText:'
p276
sI1135
S'                bulletWidth += stringWidth(f.text, f.fontName, f.fontSize)'
p277
sI1136
S'        bulletLen = style.bulletIndent + bulletWidth + 0.6 * style.bulletFontSize'
p278
sI1137
S"        if style.wordWrap=='RTL':"
p279
sI1138
S'            indent = style.rightIndent+style.firstLineIndent'
p280
ssg83
S"(bulletText=<ParagraphStyle 'Justify'>, style=<ParagraphStyle 'Justify'>, maxWidths=[439.27559055118115, 439.27559055118115])"
p281
sg85
S'_handleBulletWidth'
p282
sasS'pyver'
p283
S'Python 2.7.9: D:\\web2py\\web2py.exe (prefix: )'
p284
sS'session'
p285
g57
(S's\x1a\x00\x00\x00<div><table></table></div>'
tRp286
sS'etype'
p287
S"<type 'exceptions.TypeError'>"
p288
sS'date'
p289
S'Fri Jun 14 13:41:47 2019'
p290
sS'response'
p291
g57
(S's\xd4@\x00\x00<div><table><tr><td style="font-weight:bold;vertical-align:top;">body</td><td style="vertical-align:top;">:</td><td><div>&lt;cStringIO.StringO object at 0x07A91DE0&gt;</div></td></tr><tr><td style="font-weight:bold;vertical-align:top;">cookies</td><td style="vertical-align:top;">:</td><td><div><table><tr><td style="font-weight:bold;vertical-align:top;">session_id_antecedentesplataforma</td><td style="vertical-align:top;">:</td><td><div>127.0.0.1-c6eb17b9-6b4b-4d8c-97f6-a155974989ca<table><tr><td style="font-weight:bold;vertical-align:top;">comment</td><td style="vertical-align:top;">:</td><td><div></div></td></tr><tr><td style="font-weight:bold;vertical-align:top;">domain</td><td style="vertical-align:top;">:</td><td><div></div></td></tr><tr><td style="font-weight:bold;vertical-align:top;">expires</td><td style="vertical-align:top;">:</td><td><div></div></td></tr><tr><td style="font-weight:bold;vertical-align:top;">httponly</td><td style="vertical-align:top;">:</td><td><div></div></td></tr><tr><td style="font-weight:bold;vertical-align:top;">max-age</td><td style="vertical-align:top;">:</td><td><div></div></td></tr><tr><td style="font-weight:bold;vertical-align:top;">path</td><td style="vertical-align:top;">:</td><td><div>/</div></td></tr><tr><td style="font-weight:bold;vertical-align:top;">secure</td><td style="vertical-align:top;">:</td><td><div></div></td></tr><tr><td style="font-weight:bold;vertical-align:top;">version</td><td style="vertical-align:top;">:</td><td><div></div></td></tr></table></div></td></tr></table></div></td></tr><tr><td style="font-weight:bold;vertical-align:top;">delimiters</td><td style="vertical-align:top;">:</td><td><div><table><tr><td><div>{{</div></td></tr><tr><td><div>}}</div></td></tr></table></div></td></tr><tr><td style="font-weight:bold;vertical-align:top;">files</td><td style="vertical-align:top;">:</td><td><div><table></table></div></td></tr><tr><td style="font-weight:bold;vertical-align:top;">flash</td><td style="vertical-align:top;">:</td><td><div></div></td></tr><tr><td style="font-weight:bold;vertical-align:top;">form_label_separator</td><td style="vertical-align:top;">:</td><td><div></div></td></tr><tr><td style="font-weight:bold;vertical-align:top;">formstyle</td><td style="vertical-align:top;">:</td><td><div>bootstrap3_inline</div></td></tr><tr><td style="font-weight:bold;vertical-align:top;">generic_patterns</td><td style="vertical-align:top;">:</td><td><div><table><tr><td><div>*</div></td></tr></table></div></td></tr><tr><td style="font-weight:bold;vertical-align:top;">google_analytics_id</td><td style="vertical-align:top;">:</td><td><div>None</div></td></tr><tr><td style="font-weight:bold;vertical-align:top;">headers</td><td style="vertical-align:top;">:</td><td><div><table><tr><td style="font-weight:bold;vertical-align:top;">X-Powered-By</td><td style="vertical-align:top;">:</td><td><div>web2py</div></td></tr></table></div></td></tr><tr><td style="font-weight:bold;vertical-align:top;">logo</td><td style="vertical-align:top;">:</td><td><div><a class="navbar-brand" href="http://www.web2py.com/" id="web2py-logo"><b>web<span>2</span>py</b>&trade;&nbsp;</a></div></td></tr><tr><td style="font-weight:bold;vertical-align:top;">menu</td><td style="vertical-align:top;">:</td><td><div><table><tr><td><div><table><tr><td><div>Inicio</div></td></tr><tr><td><div>False</div></td></tr><tr><td><div>/antecedentesplataforma/default/index</div></td></tr><tr><td><div><table></table></div></td></tr></table></div></td></tr><tr><td><div><table><tr><td><div>Mis Sitios</div></td></tr><tr><td><div>False</div></td></tr><tr><td><div>/admin/default/site</div></td></tr></table></div></td></tr><tr><td><div><table><tr><td><div>Esta Aplicaci\xc3\xb3n</div></td></tr><tr><td><div>False</div></td></tr><tr><td><div>#</div></td></tr><tr><td><div><table><tr><td><div><table><tr><td><div>Design</div></td></tr><tr><td><div>False</div></td></tr><tr><td><div>/admin/default/design/antecedentesplataforma</div></td></tr></table></div></td></tr><tr><td><div><li class="divider"></li></div></td></tr><tr><td><div><table><tr><td><div>Controlador</div></td></tr><tr><td><div>False</div></td></tr><tr><td><div>/admin/default/edit/antecedentesplataforma/controllers/imprimir.py</div></td></tr></table></div></td></tr><tr><td><div><table><tr><td><div>Vista</div></td></tr><tr><td><div>False</div></td></tr><tr><td><div>/admin/default/edit/antecedentesplataforma/views/imprimir/dame_un_pdf.html</div></td></tr></table></div></td></tr><tr><td><div><table><tr><td><div>Modelo BDD</div></td></tr><tr><td><div>False</div></td></tr><tr><td><div>/admin/default/edit/antecedentesplataforma/models/db.py</div></td></tr></table></div></td></tr><tr><td><div><table><tr><td><div>Modelo "menu"</div></td></tr><tr><td><div>False</div></td></tr><tr><td><div>/admin/default/edit/antecedentesplataforma/models/menu.py</div></td></tr></table></div></td></tr><tr><td><div><table><tr><td><div>Config.ini</div></td></tr><tr><td><div>False</div></td></tr><tr><td><div>/admin/default/edit/antecedentesplataforma/private/appconfig.ini</div></td></tr></table></div></td></tr><tr><td><div><table><tr><td><div>Dise\xc3\xb1o de p\xc3\xa1gina</div></td></tr><tr><td><div>False</div></td></tr><tr><td><div>/admin/default/edit/antecedentesplataforma/views/layout.html</div></td></tr></table></div></td></tr><tr><td><div><table><tr><td><div>Hoja de estilo</div></td></tr><tr><td><div>False</div></td></tr><tr><td><div>/admin/default/edit/antecedentesplataforma/static/css/web2py-bootstrap3.css</div></td></tr></table></div></td></tr><tr><td><div><table><tr><td><div>Base de datos</div></td></tr><tr><td><div>False</div></td></tr><tr><td><div>/antecedentesplataforma/appadmin/index</div></td></tr></table></div></td></tr><tr><td><div><table><tr><td><div>Errores</div></td></tr><tr><td><div>False</div></td></tr><tr><td><div>/admin/default/errors/antecedentesplataforma</div></td></tr></table></div></td></tr><tr><td><div><table><tr><td><div>Acerca de</div></td></tr><tr><td><div>False</div></td></tr><tr><td><div>/admin/default/about/antecedentesplataforma</div></td></tr></table></div></td></tr></table></div></td></tr></table></div></td></tr><tr><td><div><table><tr><td><div>web2py.com</div></td></tr><tr><td><div>False</div></td></tr><tr><td><div>#</div></td></tr><tr><td><div><table><tr><td><div><table><tr><td><div>Descargas</div></td></tr><tr><td><div>False</div></td></tr><tr><td><div>http://www.web2py.com/examples/default/download</div></td></tr></table></div></td></tr><tr><td><div><table><tr><td><div>Soporte</div></td></tr><tr><td><div>False</div></td></tr><tr><td><div>http://www.web2py.com/examples/default/support</div></td></tr></table></div></td></tr><tr><td><div><table><tr><td><div>Demostraci\xc3\xb3n</div></td></tr><tr><td><div>False</div></td></tr><tr><td><div>http://web2py.com/demo_admin</div></td></tr></table></div></td></tr><tr><td><div><table><tr><td><div>Ejemplos R\xc3\xa1pidos</div></td></tr><tr><td><div>False</div></td></tr><tr><td><div>http://web2py.com/examples/default/examples</div></td></tr></table></div></td></tr><tr><td><div><table><tr><td><div>FAQ</div></td></tr><tr><td><div>False</div></td></tr><tr><td><div>http://web2py.com/AlterEgo</div></td></tr></table></div></td></tr><tr><td><div><table><tr><td><div>V\xc3\xaddeos</div></td></tr><tr><td><div>False</div></td></tr><tr><td><div>http://www.web2py.com/examples/default/videos/</div></td></tr></table></div></td></tr><tr><td><div><table><tr><td><div>Aplicaciones Libres</div></td></tr><tr><td><div>False</div></td></tr><tr><td><div>http://web2py.com/appliances</div></td></tr></table></div></td></tr><tr><td><div><table><tr><td><div>Plugins</div></td></tr><tr><td><div>False</div></td></tr><tr><td><div>http://web2py.com/plugins</div></td></tr></table></div></td></tr><tr><td><div><table><tr><td><div>Recetas</div></td></tr><tr><td><div>False</div></td></tr><tr><td><div>http://web2pyslices.com/</div></td></tr></table></div></td></tr></table></div></td></tr></table></div></td></tr><tr><td><div><table><tr><td><div>Documentaci\xc3\xb3n</div></td></tr><tr><td><div>False</div></td></tr><tr><td><div>#</div></td></tr><tr><td><div><table><tr><td><div><table><tr><td><div>Online book</div></td></tr><tr><td><div>False</div></td></tr><tr><td><div>http://www.web2py.com/book</div></td></tr></table></div></td></tr><tr><td><div><li class="divider"></li></div></td></tr><tr><td><div><table><tr><td><div>Prefacio</div></td></tr><tr><td><div>False</div></td></tr><tr><td><div>http://www.web2py.com/book/default/chapter/00</div></td></tr></table></div></td></tr><tr><td><div><table><tr><td><div>Introducci\xc3\xb3n</div></td></tr><tr><td><div>False</div></td></tr><tr><td><div>http://www.web2py.com/book/default/chapter/01</div></td></tr></table></div></td></tr><tr><td><div><table><tr><td><div>Python</div></td></tr><tr><td><div>False</div></td></tr><tr><td><div>http://www.web2py.com/book/default/chapter/02</div></td></tr></table></div></td></tr><tr><td><div><table><tr><td><div>Resumen</div></td></tr><tr><td><div>False</div></td></tr><tr><td><div>http://www.web2py.com/book/default/chapter/03</div></td></tr></table></div></td></tr><tr><td><div><table><tr><td><div>El N\xc3\xbacleo</div></td></tr><tr><td><div>False</div></td></tr><tr><td><div>http://www.web2py.com/book/default/chapter/04</div></td></tr></table></div></td></tr><tr><td><div><table><tr><td><div>Las Vistas</div></td></tr><tr><td><div>False</div></td></tr><tr><td><div>http://www.web2py.com/book/default/chapter/05</div></td></tr></table></div></td></tr><tr><td><div><table><tr><td><div>Base de datos</div></td></tr><tr><td><div>False</div></td></tr><tr><td><div>http://www.web2py.com/book/default/chapter/06</div></td></tr></table></div></td></tr><tr><td><div><table><tr><td><div>Formularios y validadores</div></td></tr><tr><td><div>False</div></td></tr><tr><td><div>http://www.web2py.com/book/default/chapter/07</div></td></tr></table></div></td></tr><tr><td><div><table><tr><td><div>Correo electr\xc3\xb3nico y SMS</div></td></tr><tr><td><div>False</div></td></tr><tr><td><div>http://www.web2py.com/book/default/chapter/08</div></td></tr></table></div></td></tr><tr><td><div><table><tr><td><div>Control de Acceso</div></td></tr><tr><td><div>False</div></td></tr><tr><td><div>http://www.web2py.com/book/default/chapter/09</div></td></tr></table></div></td></tr><tr><td><div><table><tr><td><div>Servicios</div></td></tr><tr><td><div>False</div></td></tr><tr><td><div>http://www.web2py.com/book/default/chapter/10</div></td></tr></table></div></td></tr><tr><td><div><table><tr><td><div>Recetas AJAX</div></td></tr><tr><td><div>False</div></td></tr><tr><td><div>http://www.web2py.com/book/default/chapter/11</div></td></tr></table></div></td></tr><tr><td><div><table><tr><td><div>Componentes y Plugins</div></td></tr><tr><td><div>False</div></td></tr><tr><td><div>http://www.web2py.com/book/default/chapter/12</div></td></tr></table></div></td></tr><tr><td><div><table><tr><td><div>Recetas de despliegue</div></td></tr><tr><td><div>False</div></td></tr><tr><td><div>http://www.web2py.com/book/default/chapter/13</div></td></tr></table></div></td></tr><tr><td><div><table><tr><td><div>Otras Recetas</div></td></tr><tr><td><div>False</div></td></tr><tr><td><div>http://www.web2py.com/book/default/chapter/14</div></td></tr></table></div></td></tr><tr><td><div><table><tr><td><div>Helping web2py</div></td></tr><tr><td><div>False</div></td></tr><tr><td><div>http://www.web2py.com/book/default/chapter/15</div></td></tr></table></div></td></tr><tr><td><div><table><tr><td><div>Buy web2py\'s book</div></td></tr><tr><td><div>False</div></td></tr><tr><td><div>http://stores.lulu.com/web2py</div></td></tr></table></div></td></tr></table></div></td></tr></table></div></td></tr><tr><td><div><table><tr><td><div>Comunidad</div></td></tr><tr><td><div>False</div></td></tr><tr><td><div>None</div></td></tr><tr><td><div><table><tr><td><div><table><tr><td><div>Grupos</div></td></tr><tr><td><div>False</div></td></tr><tr><td><div>http://www.web2py.com/examples/default/usergroups</div></td></tr></table></div></td></tr><tr><td><div><table><tr><td><div>Twitter</div></td></tr><tr><td><div>False</div></td></tr><tr><td><div>http://twitter.com/web2py</div></td></tr></table></div></td></tr><tr><td><div><table><tr><td><div>Chat en vivo</div></td></tr><tr><td><div>False</div></td></tr><tr><td><div>http://webchat.freenode.net/?channels=web2py</div></td></tr></table></div></td></tr></table></div></td></tr></table></div></td></tr></table></div></td></tr><tr><td style="font-weight:bold;vertical-align:top;">meta</td><td style="vertical-align:top;">:</td><td><div><table><tr><td style="font-weight:bold;vertical-align:top;">author</td><td style="vertical-align:top;">:</td><td><div>Your Name &lt;you@example.com&gt;</div></td></tr><tr><td style="font-weight:bold;vertical-align:top;">description</td><td style="vertical-align:top;">:</td><td><div>a cool new app</div></td></tr><tr><td style="font-weight:bold;vertical-align:top;">generator</td><td style="vertical-align:top;">:</td><td><div>Web2py Web Framework</div></td></tr><tr><td style="font-weight:bold;vertical-align:top;">keywords</td><td style="vertical-align:top;">:</td><td><div><table><tr><td><div>web2py</div></td></tr><tr><td><div>python</div></td></tr><tr><td><div>framework</div></td></tr></table></div></td></tr></table></div></td></tr><tr><td style="font-weight:bold;vertical-align:top;">models_to_run</td><td style="vertical-align:top;">:</td><td><div><table><tr><td><div>^\\w+\\.py$</div></td></tr><tr><td><div>^imprimir/\\w+\\.py$</div></td></tr><tr><td><div>^imprimir/dame_un_pdf/\\w+\\.py$</div></td></tr></table></div></td></tr><tr><td style="font-weight:bold;vertical-align:top;">postprocessing</td><td style="vertical-align:top;">:</td><td><div><table></table></div></td></tr><tr><td style="font-weight:bold;vertical-align:top;">session_client</td><td style="vertical-align:top;">:</td><td><div>127.0.0.1</div></td></tr><tr><td style="font-weight:bold;vertical-align:top;">session_cookie_compression_level</td><td style="vertical-align:top;">:</td><td><div>None</div></td></tr><tr><td style="font-weight:bold;vertical-align:top;">session_cookie_expires</td><td style="vertical-align:top;">:</td><td><div>None</div></td></tr><tr><td style="font-weight:bold;vertical-align:top;">session_data_name</td><td style="vertical-align:top;">:</td><td><div>session_data_antecedentesplataforma</div></td></tr><tr><td style="font-weight:bold;vertical-align:top;">session_file</td><td style="vertical-align:top;">:</td><td><div>&lt;open file &#x27;D:\\\\web2py\\\\applications\\\\antecedentesplataforma\\\\sessions\\\\0fc\\\\01e\\\\127.0.0.1-c6eb17b9-6b4b-4d8c-97f6-a155974989ca&#x27;, mode &#x27;rb+&#x27; at 0x029D6B78&gt;</div></td></tr><tr><td style="font-weight:bold;vertical-align:top;">session_filename</td><td style="vertical-align:top;">:</td><td><div>D:\\web2py\\applications\\antecedentesplataforma\\sessions\\127.0.0.1-c6eb17b9-6b4b-4d8c-97f6-a155974989ca</div></td></tr><tr><td style="font-weight:bold;vertical-align:top;">session_hash</td><td style="vertical-align:top;">:</td><td><div>c0762cbf4baf7f9af97c051e7fcb8083</div></td></tr><tr><td style="font-weight:bold;vertical-align:top;">session_id</td><td style="vertical-align:top;">:</td><td><div>127.0.0.1-c6eb17b9-6b4b-4d8c-97f6-a155974989ca</div></td></tr><tr><td style="font-weight:bold;vertical-align:top;">session_id_name</td><td style="vertical-align:top;">:</td><td><div>session_id_antecedentesplataforma</div></td></tr><tr><td style="font-weight:bold;vertical-align:top;">session_locked</td><td style="vertical-align:top;">:</td><td><div>True</div></td></tr><tr><td style="font-weight:bold;vertical-align:top;">session_masterapp</td><td style="vertical-align:top;">:</td><td><div>antecedentesplataforma</div></td></tr><tr><td style="font-weight:bold;vertical-align:top;">session_new</td><td style="vertical-align:top;">:</td><td><div>False</div></td></tr><tr><td style="font-weight:bold;vertical-align:top;">session_storage_type</td><td style="vertical-align:top;">:</td><td><div>file</div></td></tr><tr><td style="font-weight:bold;vertical-align:top;">status</td><td style="vertical-align:top;">:</td><td><div>200</div></td></tr><tr><td style="font-weight:bold;vertical-align:top;">subtitle</td><td style="vertical-align:top;">:</td><td><div></div></td></tr><tr><td style="font-weight:bold;vertical-align:top;">title</td><td style="vertical-align:top;">:</td><td><div>Antecedentesplataforma</div></td></tr><tr><td style="font-weight:bold;vertical-align:top;">view</td><td style="vertical-align:top;">:</td><td><div>imprimir/dame_un_pdf.html</div></td></tr></table></div>'
tRp292
sS'locals'
p293
(dp294
S'maxWidths'
p295
S'[439.27559055118115, 439.27559055118115]'
p296
sS'style'
p297
S"<ParagraphStyle 'Justify'>"
p298
sS'bulletWidth'
p299
S'0'
sS'bulletText'
p300
S"<ParagraphStyle 'Justify'>"
p301
sssS'traceback'
p302
S'Traceback (most recent call last):\n  File "D:\\web2py\\gluon\\restricted.py", line 227, in restricted\n    exec ccode in environment\n  File "D:\\web2py\\applications\\antecedentesplataforma\\controllers/imprimir.py", line 639, in <module>\n  File "D:\\web2py\\gluon\\globals.py", line 417, in <lambda>\n    self._caller = lambda f: f()\n  File "D:\\web2py\\applications\\antecedentesplataforma\\controllers/imprimir.py", line 383, in dame_un_pdf\n    doc.build(story)\n  File "reportlab\\platypus\\doctemplate.py", line 1292, in build\n    BaseDocTemplate.build(self,flowables, canvasmaker=canvasmaker)\n  File "reportlab\\platypus\\doctemplate.py", line 1057, in build\n    self.handle_flowable(flowables)\n  File "reportlab\\platypus\\doctemplate.py", line 912, in handle_flowable\n    if frame.add(f, canv, trySplit=self.allowSplitting):\n  File "reportlab\\platypus\\frames.py", line 174, in _add\n    w, h = flowable.wrap(aW, h)\n  File "reportlab\\platypus\\paragraph.py", line 1590, in wrap\n    blPara = self.breakLines(self._wrapWidths)\n  File "reportlab\\platypus\\paragraph.py", line 1789, in breakLines\n    _handleBulletWidth(self.bulletText,style,maxWidths)\n  File "reportlab\\platypus\\paragraph.py", line 1134, in _handleBulletWidth\n    for f in bulletText:\nTypeError: iteration over non-sequence\n'
p303
s.