(dp1
S'output'
p2
S"<type 'exceptions.ValueError'> invalid literal for long() with base 10: ''"
p3
sS'layer'
p4
S'D:\\web2py\\applications\\antecedentesplataforma\\controllers/confeccion.py'
p5
sS'code'
p6
S'def confeccion():\n\treturn dict()\ndef por_sistema():\n\tfrom gluon.serializers import json\t\t\t#importo json\n\tsetsoli=db(db.solicitud.estado_solicitud=="Confeccion").select()\t#realizo un set de los registros con estado confeccion\n\tco=json(setsoli)\t\t\t\t\t\t\t\t\t\t\t\t\t#trasformo el set a formato json\n\n\treturn dict(co=co)\ndef procesar():\t\n\tfrom datetime import date,time,datetime\n\tfecha=datetime.now()\t\n\tquien=auth.user.id            #atrapo el usuario logueado\n    \tuser=db(db.auth_user.id==quien).select().first()#pregunto quien esta logueado\n    \tusuario_nombre=user.first_name\n    \tusuario_apellido=user.last_name\n    \tusuario=usuario_nombre+" "+usuario_apellido#concateno cadena para generar el nombre del usuario\n    \tiniciales=user.iniciales\n\n\n    \t\n\tclave={\'1\':"A.G.",\'2\':"C.I.",\'3\':"D.C.P",\'4\':"D.E",\'5\':"R.C",\'6\':"S.P.",\'0\':None}\n\tvalor={\'A.G.\':"1",\'C.I.\':"2",\'D.C.P.\':"3",\'D.E.\':"4",\'R.C.\':"5",\'S.P.\':"6",None:\'0\'}\n\n    \t#ultimo=db(db.solicitud).select().last()\t\n    \t#u=ultimo.id\t\t\t\t\t\t\t\t\t\n\tide_soli=int(request.args[0])#atrapo id\n\tsetsoli=db(db.solicitud.id==ide_soli).select().last()\t#realizo un ser para sacar datos de la tabla\n\tdnpa_soli=setsoli.dni  \t#dni/pasaporte de la tabla solicitud\n\tsoli_por_soli=setsoli.solicitado_por\t\t\t\t\t#solicitado por de la tabla solicitud\n\tcapital_soli=setsoli.capitalinterior\n\ttiene=setsoli.t_antecedentes\n\tanteceden=setsoli.antecedentes\t\t\t\t\t\n\tsetpadron=db((db.padron.DocumentoNro==dnpa_soli)|(db.padron.Pasaporte==dnpa_soli)).select().first()\n\tide_padron=setpadron.id \t\t\t\t\t\t\t\t#saco el id de la persona en la tabla padron\n\tdni_padron=setpadron.DocumentoNro\n\tpasa_padron=setpadron.Pasaporte\n\tapellido_padron=setpadron.Apellido\n\tnombre_padron=setpadron.Nombre\n\tProfesion_padron=setpadron.Profesion\n\tte=setpadron.IdProntuarioTipo\t\t#tipo de padron\n\tte=str(te)#convierto a string\n\ttipo=clave[te]#reemplazo en el diccionario para sacar el tipo a mostrar en el formulario\n\ttipo=str(tipo)#paso a cadena el tipo de prontuario para mostrar en el formulario\t\n\tnum_padron=setpadron.ProntuarioNro\n\tdomi_padron=setpadron.Direccion\n\tprof_padron=setpadron.Profesion\n\tcivil_padron=setpadron.EstadoCivil\n\tclase_padron=setpadron.Clase\n\tpais_padron=setpadron.IdPais\n\tpais_padron=pais_padron\t\n\ttpront=""\n\tqtipo=""\n\t#realizo un set para sacar el ultimo numero de certificado\n\n\t\n\t\n\t#realizo un factory para modificar los valores a imprimir\n\t\n\n\t\n\n    \t\n\n\tform=SQLFORM.factory(\n\tField(\'dni\',\'int\',label="Ingrese el Dni",requires=IS_NOT_EMPTY(error_message=\'El campo puede estar vac\xc3\xado\'),default=dnpa_soli),\n\tField(\'pasaporte\',label="Ingrese el Pasaporte",default=pasa_padron),\n\tField(\'tipo\',label="Tipo de Prontuario",requires=IS_IN_SET(["A.G.","C.I.","D.C.P.","D.E.","R.C.","S.P."],error_message=\'Error escoja una opcion\'),default=tipo),\n\tField(\'nprontuario\',label="N\xc2\xba de Prontuario",default=num_padron),\n\tField(\'apellido\',label="Apellido",default=apellido_padron),\n\tField(\'nombre\',label=\'Nombre\',default=nombre_padron),\n\tField(\'domicilio\',label=\'Domicilio\',default=domi_padron),\n\tField(\'e_civil\',label=\'Estado Civil\',requires=IS_IN_SET(["S","C","D","V"],error_message=\'Elija una opcion\'),default=civil_padron),\n\tField(\'clase\',\'int\',label=\'Clase\',default=clase_padron,requires=IS_INT_IN_RANGE(1900,2100,error_message=\'Error la clase debe ser ej: 1942\')),\n\tField(\'Profesion\',default=Profesion_padron),\n\tField(\'pais\',label=\'Pais\',requires=IS_IN_DB(db,\'paises.id\', \'%(pais)s\',zero=T(\'Seleccione la Nacionalidad\')),default=pais_padron),\n\t\n                                 \n\tField(\'soli_por\',label=\'Solicitado Por\',default=soli_por_soli),\n\tField(\'intervino\',label=\'Intervino\',default=iniciales),\n\tField(\'donde\',label="Localidad",requires=IS_IN_SET(["CAPITAL","INTERIOR"],error_message=\'Error escoja una opcion\'),default=capital_soli),\n\tField(\'t_antece\',label="Tiene Antecedentes",requires=IS_IN_SET(["SI","NO"],error_message=\'Error escoja una opcion\'),default=tiene),\n\tField(\'antecedentes\',\'text\',default=anteceden,label=\'Antecedentes\'),\n\n    )   \t\n           \n    \tif form.accepts(request,session):\n    \t\t#tomo el valor q toma el campo del form tipo \n\n    \t\ttpront=form.vars.tipo\n    \t\ttpront=str(tpront)\n    \t\tqtipo=valor[tpront]\n    \t\tqtipo=str(qtipo)\n    \t\t\n    \t\t\n        \t#actualizo los campos en la tabla padron\n        \tsetpadron.update_record(IdProntuarioTipo=qtipo,\n        \t\tProntuarioNro=form.vars.nprontuario,Direccion=form.vars.domicilio,Clase=form.vars.clase,\n        \t\tIdPais=form.vars.pais,Profesion=form.vars.Profesion)\n\n        \tsetsoli.update_record(apellido=form.vars.apellido,nombre=form.vars.nombre,tipo_prontuario=tipo,\n        \t\tprontuario=form.vars.nprontuario,solicitado_por=form.vars.soli_por,intervino=form.vars.intervino\n        \t\t,capitalinterior=form.vars.donde,estado_solicitud="Completado",usuario=usuario,\n        \t\tantecedentes=form.vars.antecedentes,t_antecedentes=form.vars.t_antece,fecha_solicitada=fecha,hora=fecha)\n\n        \tdb.historial.insert(dni=form.vars.dni,pasaporte=form.vars.pasaporte,nombre=form.vars.nombre,\n        \t\tapellido=form.vars.apellido,capitalinterior=form.vars.donde,intervino=form.vars.intervino,\n        \t\tt_antecedentes=form.vars.t_antece,antecedentes=form.vars.antecedentes,fecha=fecha,hora=fecha\n         #redirect(URL(c=\'confeccion\',f=\'pre_imprimir\'))          \t\t\n        \t\t)  \n\n\n    \telif form.errors:\n            response.flash = \'el formulario tiene errores\'\n    \telse:\n            response.flash = \'por favor complete el formulario\'\n\n\n\t\n\n\treturn dict(dnpa_soli=dnpa_soli,iniciales=iniciales,dni_padron=dni_padron\n \t,pasa_padron=pasa_padron,apellido_padron=apellido_padron,nombre_padron=nombre_padron,tipo=tipo\n \t,num_padron=num_padron,domi_padron=domi_padron,prof_padron=prof_padron,civil_padron=civil_padron\n \t,clase_padron=clase_padron,pais_padron=pais_padron,ide_soli=ide_soli,capital_soli=capital_soli,\n \tsoli_por_soli=soli_por_soli,ide_padron=ide_padron,form=form,clave=clave,valor=valor,qtipo=qtipo\n\n \t)\n \t\ndef pre_imprimir():\n\tultimo=db(db.solicitud.id==71088).select().first()\n\tu=ultimo.fecha_solicitada\n\tv=ultimo.fecha_solicitada\n\n\n\treturn dict(ultimo=ultimo,u=u,v=v) \t\n\t\n\n\t\t\nresponse._vars=response._caller(pre_imprimir)\n'
p7
sS'snapshot'
p8
(dp9
S'exception'
p10
(dp11
S'__hash__'
p12
S"<method-wrapper '__hash__' of exceptions.ValueError object>"
p13
sS'__setattr__'
p14
S"<method-wrapper '__setattr__' of exceptions.ValueError object>"
p15
sS'__reduce_ex__'
p16
S'<built-in method __reduce_ex__ of exceptions.ValueError object>'
p17
sS'__getslice__'
p18
S"<method-wrapper '__getslice__' of exceptions.ValueError object>"
p19
sS'__getitem__'
p20
S"<method-wrapper '__getitem__' of exceptions.ValueError object>"
p21
sS'__setstate__'
p22
S'<built-in method __setstate__ of exceptions.ValueError object>'
p23
sS'__reduce__'
p24
S'<built-in method __reduce__ of exceptions.ValueError object>'
p25
sS'__str__'
p26
S"<method-wrapper '__str__' of exceptions.ValueError object>"
p27
sS'__format__'
p28
S'<built-in method __format__ of exceptions.ValueError object>'
p29
sS'__getattribute__'
p30
S"<method-wrapper '__getattribute__' of exceptions.ValueError object>"
p31
sS'__class__'
p32
S"<type 'exceptions.ValueError'>"
p33
sS'__unicode__'
p34
S'<built-in method __unicode__ of exceptions.ValueError object>'
p35
sS'__delattr__'
p36
S"<method-wrapper '__delattr__' of exceptions.ValueError object>"
p37
sS'__subclasshook__'
p38
S'<built-in method __subclasshook__ of type object>'
p39
sS'__repr__'
p40
S"<method-wrapper '__repr__' of exceptions.ValueError object>"
p41
sS'args'
p42
S'("invalid literal for long() with base 10: \'\'",)'
p43
sS'__dict__'
p44
S'{}'
p45
sS'__sizeof__'
p46
S'<built-in method __sizeof__ of exceptions.ValueError object>'
p47
sS'__doc__'
p48
S"'Inappropriate argument value (of correct type).'"
p49
sS'__init__'
p50
S"<method-wrapper '__init__' of exceptions.ValueError object>"
p51
sS'__new__'
p52
S'<built-in method __new__ of type object>'
p53
ssS'evalue'
p54
S"invalid literal for long() with base 10: ''"
p55
sS'request'
p56
cgluon.html
XML_unpickle
p57
(S's\x9e\\\x00\x00<div><table><tr><td style="font-weight:bold;vertical-align:top;">ajax</td><td style="vertical-align:top;">:</td><td><div>False</div></td></tr><tr><td style="font-weight:bold;vertical-align:top;">application</td><td style="vertical-align:top;">:</td><td><div>antecedentesplataforma</div></td></tr><tr><td style="font-weight:bold;vertical-align:top;">args</td><td style="vertical-align:top;">:</td><td><div><table></table></div></td></tr><tr><td style="font-weight:bold;vertical-align:top;">cid</td><td style="vertical-align:top;">:</td><td><div>None</div></td></tr><tr><td style="font-weight:bold;vertical-align:top;">client</td><td style="vertical-align:top;">:</td><td><div>127.0.0.1</div></td></tr><tr><td style="font-weight:bold;vertical-align:top;">controller</td><td style="vertical-align:top;">:</td><td><div>confeccion</div></td></tr><tr><td style="font-weight:bold;vertical-align:top;">cookies</td><td style="vertical-align:top;">:</td><td><div><table><tr><td style="font-weight:bold;vertical-align:top;">session_id_admin</td><td style="vertical-align:top;">:</td><td><div>127.0.0.1-a3bf07a4-4f13-46ca-870e-b250a4f707fd<table><tr><td style="font-weight:bold;vertical-align:top;">comment</td><td style="vertical-align:top;">:</td><td><div></div></td></tr><tr><td style="font-weight:bold;vertical-align:top;">domain</td><td style="vertical-align:top;">:</td><td><div></div></td></tr><tr><td style="font-weight:bold;vertical-align:top;">expires</td><td style="vertical-align:top;">:</td><td><div></div></td></tr><tr><td style="font-weight:bold;vertical-align:top;">httponly</td><td style="vertical-align:top;">:</td><td><div></div></td></tr><tr><td style="font-weight:bold;vertical-align:top;">max-age</td><td style="vertical-align:top;">:</td><td><div></div></td></tr><tr><td style="font-weight:bold;vertical-align:top;">path</td><td style="vertical-align:top;">:</td><td><div></div></td></tr><tr><td style="font-weight:bold;vertical-align:top;">secure</td><td style="vertical-align:top;">:</td><td><div></div></td></tr><tr><td style="font-weight:bold;vertical-align:top;">version</td><td style="vertical-align:top;">:</td><td><div></div></td></tr></table></div></td></tr><tr><td style="font-weight:bold;vertical-align:top;">session_id_antecedentesplataforma</td><td style="vertical-align:top;">:</td><td><div>127.0.0.1-9fd3fe3c-dda4-4589-bb56-14df99b5a51f<table><tr><td style="font-weight:bold;vertical-align:top;">comment</td><td style="vertical-align:top;">:</td><td><div></div></td></tr><tr><td style="font-weight:bold;vertical-align:top;">domain</td><td style="vertical-align:top;">:</td><td><div></div></td></tr><tr><td style="font-weight:bold;vertical-align:top;">expires</td><td style="vertical-align:top;">:</td><td><div></div></td></tr><tr><td style="font-weight:bold;vertical-align:top;">httponly</td><td style="vertical-align:top;">:</td><td><div></div></td></tr><tr><td style="font-weight:bold;vertical-align:top;">max-age</td><td style="vertical-align:top;">:</td><td><div></div></td></tr><tr><td style="font-weight:bold;vertical-align:top;">path</td><td style="vertical-align:top;">:</td><td><div></div></td></tr><tr><td style="font-weight:bold;vertical-align:top;">secure</td><td style="vertical-align:top;">:</td><td><div></div></td></tr><tr><td style="font-weight:bold;vertical-align:top;">version</td><td style="vertical-align:top;">:</td><td><div></div></td></tr></table></div></td></tr><tr><td style="font-weight:bold;vertical-align:top;">session_id_welcome</td><td style="vertical-align:top;">:</td><td><div>127.0.0.1-e12215ac-ea6b-4058-bef2-8bad4711289c<table><tr><td style="font-weight:bold;vertical-align:top;">comment</td><td style="vertical-align:top;">:</td><td><div></div></td></tr><tr><td style="font-weight:bold;vertical-align:top;">domain</td><td style="vertical-align:top;">:</td><td><div></div></td></tr><tr><td style="font-weight:bold;vertical-align:top;">expires</td><td style="vertical-align:top;">:</td><td><div></div></td></tr><tr><td style="font-weight:bold;vertical-align:top;">httponly</td><td style="vertical-align:top;">:</td><td><div></div></td></tr><tr><td style="font-weight:bold;vertical-align:top;">max-age</td><td style="vertical-align:top;">:</td><td><div></div></td></tr><tr><td style="font-weight:bold;vertical-align:top;">path</td><td style="vertical-align:top;">:</td><td><div></div></td></tr><tr><td style="font-weight:bold;vertical-align:top;">secure</td><td style="vertical-align:top;">:</td><td><div></div></td></tr><tr><td style="font-weight:bold;vertical-align:top;">version</td><td style="vertical-align:top;">:</td><td><div></div></td></tr></table></div></td></tr></table></div></td></tr><tr><td style="font-weight:bold;vertical-align:top;">env</td><td style="vertical-align:top;">:</td><td><div><table><tr><td style="font-weight:bold;vertical-align:top;">HTTP_ACCEPT</td><td style="vertical-align:top;">:</td><td><div>text/html,application/xhtml+xml,application/xml;q=0.9,image/webp,image/apng,*/*;q=0.8,application/signed-exchange;v=b3</div></td></tr><tr><td style="font-weight:bold;vertical-align:top;">HTTP_ACCEPT_ENCODING</td><td style="vertical-align:top;">:</td><td><div>gzip, deflate, br</div></td></tr><tr><td style="font-weight:bold;vertical-align:top;">HTTP_ACCEPT_LANGUAGE</td><td style="vertical-align:top;">:</td><td><div>es-ES,es;q=0.9,en;q=0.8</div></td></tr><tr><td style="font-weight:bold;vertical-align:top;">HTTP_CACHE_CONTROL</td><td style="vertical-align:top;">:</td><td><div>max-age=0</div></td></tr><tr><td style="font-weight:bold;vertical-align:top;">HTTP_CONNECTION</td><td style="vertical-align:top;">:</td><td><div>keep-alive</div></td></tr><tr><td style="font-weight:bold;vertical-align:top;">HTTP_COOKIE</td><td style="vertical-align:top;">:</td><td><div>session_id_welcome=127.0.0.1-e12215ac-ea6b-4058-bef2-8bad4711289c; session_id_admin=127.0.0.1-a3bf07a4-4f13-46ca-870e-b250a4f707fd; session_id_antecedentesplataforma=127.0.0.1-9fd3fe3c-dda4-4589-bb56-14df99b5a51f</div></td></tr><tr><td style="font-weight:bold;vertical-align:top;">HTTP_HOST</td><td style="vertical-align:top;">:</td><td><div>127.0.0.1:8000</div></td></tr><tr><td style="font-weight:bold;vertical-align:top;">HTTP_UPGRADE_INSECURE_REQUESTS</td><td style="vertical-align:top;">:</td><td><div>1</div></td></tr><tr><td style="font-weight:bold;vertical-align:top;">HTTP_USER_AGENT</td><td style="vertical-align:top;">:</td><td><div>Mozilla/5.0 (Windows NT 6.1) AppleWebKit/537.36 (KHTML, like Gecko) Chrome/73.0.3683.103 Safari/537.36</div></td></tr><tr><td style="font-weight:bold;vertical-align:top;">PATH_INFO</td><td style="vertical-align:top;">:</td><td><div>/antecedentesplataforma/confeccion/pre_imprimir</div></td></tr><tr><td style="font-weight:bold;vertical-align:top;">QUERY_STRING</td><td style="vertical-align:top;">:</td><td><div></div></td></tr><tr><td style="font-weight:bold;vertical-align:top;">REMOTE_ADDR</td><td style="vertical-align:top;">:</td><td><div>127.0.0.1</div></td></tr><tr><td style="font-weight:bold;vertical-align:top;">REMOTE_PORT</td><td style="vertical-align:top;">:</td><td><div>6929</div></td></tr><tr><td style="font-weight:bold;vertical-align:top;">REQUEST_METHOD</td><td style="vertical-align:top;">:</td><td><div>GET</div></td></tr><tr><td style="font-weight:bold;vertical-align:top;">SCRIPT_NAME</td><td style="vertical-align:top;">:</td><td><div></div></td></tr><tr><td style="font-weight:bold;vertical-align:top;">SERVER_NAME</td><td style="vertical-align:top;">:</td><td><div>HaTaK3-PC</div></td></tr><tr><td style="font-weight:bold;vertical-align:top;">SERVER_PORT</td><td style="vertical-align:top;">:</td><td><div>8000</div></td></tr><tr><td style="font-weight:bold;vertical-align:top;">SERVER_PROTOCOL</td><td style="vertical-align:top;">:</td><td><div>HTTP/1.1</div></td></tr><tr><td style="font-weight:bold;vertical-align:top;">SERVER_SOFTWARE</td><td style="vertical-align:top;">:</td><td><div>Rocket 1.2.6</div></td></tr><tr><td style="font-weight:bold;vertical-align:top;">app_folders</td><td style="vertical-align:top;">:</td><td><div>set([&#x27;D:\\\\web2py\\\\applications\\\\admin\\\\&#x27;, &#x27;D:\\\\web2py\\\\applications\\\\welcome\\\\&#x27;, &#x27;D:\\\\web2py\\\\applications\\\\antecedentesplataforma\\\\&#x27;])</div></td></tr><tr><td style="font-weight:bold;vertical-align:top;">applications_parent</td><td style="vertical-align:top;">:</td><td><div>D:\\web2py</div></td></tr><tr><td style="font-weight:bold;vertical-align:top;">cmd_args</td><td style="vertical-align:top;">:</td><td><div><table></table></div></td></tr><tr><td style="font-weight:bold;vertical-align:top;">cmd_options</td><td style="vertical-align:top;">:</td><td><div>&lt;Values at 0x27edd50: {&#x27;verbose&#x27;: False, &#x27;ip&#x27;: &#x27;127.0.0.1&#x27;, &#x27;debuglevel&#x27;: 30, &#x27;with_scheduler&#x27;: False, &#x27;shutdown_timeout&#x27;: 5, &#x27;taskbar&#x27;: False, &#x27;with_coverage&#x27;: False, &#x27;pid_filename&#x27;: &#x27;httpserver.pid&#x27;, &#x27;maxthreads&#x27;: None, &#x27;softcron&#x27;: False, &#x27;server_name&#x27;: &#x27;HaTaK3-PC&#x27;, &#x27;bpython&#x27;: False, &#x27;nogui&#x27;: False, &#x27;port&#x27;: 8000, &#x27;print_errors&#x27;: False, &#x27;extcron&#x27;: False, &#x27;runcron&#x27;: False, &#x27;run_system_tests&#x27;: False, &#x27;test&#x27;: None, &#x27;folder&#x27;: &#x27;D:\\\\web2py&#x27;, &#x27;config&#x27;: &#x27;&#x27;, &#x27;minthreads&#x27;: None, &#x27;shell&#x27;: None, &#x27;run&#x27;: &#x27;&#x27;, &#x27;log_filename&#x27;: &#x27;httpserver.log&#x27;, &#x27;profiler_dir&#x27;: None, &#x27;args&#x27;: [&#x27;&#x27;], &#x27;socket_timeout&#x27;: 5, &#x27;ssl_ca_certificate&#x27;: None, &#x27;scheduler&#x27;: None, &#x27;interfaces&#x27;: None, &#x27;ssl_private_key&#x27;: &#x27;&#x27;, &#x27;gae&#x27;: None, &#x27;password&#x27;: &#x27;******&#x27;, &#x27;request_queue_size&#x27;: 5, &#x27;ssl_certificate&#x27;: &#x27;&#x27;, &#x27;cronjob&#x27;: False, &#x27;numthreads&#x27;: None, &#x27;quiet&#x27;: False, &#x27;import_models&#x27;: False, &#x27;timeout&#x27;: 10, &#x27;plain&#x27;: False, &#x27;nobanner&#x27;: False}&gt;</div></td></tr><tr><td style="font-weight:bold;vertical-align:top;">db_sessions</td><td style="vertical-align:top;">:</td><td><div>set([])</div></td></tr><tr><td style="font-weight:bold;vertical-align:top;">debugging</td><td style="vertical-align:top;">:</td><td><div>False</div></td></tr><tr><td style="font-weight:bold;vertical-align:top;">gluon_parent</td><td style="vertical-align:top;">:</td><td><div>D:\\web2py</div></td></tr><tr><td style="font-weight:bold;vertical-align:top;">http_accept</td><td style="vertical-align:top;">:</td><td><div>text/html,application/xhtml+xml,application/xml;q=0.9,image/webp,image/apng,*/*;q=0.8,application/signed-exchange;v=b3</div></td></tr><tr><td style="font-weight:bold;vertical-align:top;">http_accept_encoding</td><td style="vertical-align:top;">:</td><td><div>gzip, deflate, br</div></td></tr><tr><td style="font-weight:bold;vertical-align:top;">http_accept_language</td><td style="vertical-align:top;">:</td><td><div>es-ES,es;q=0.9,en;q=0.8</div></td></tr><tr><td style="font-weight:bold;vertical-align:top;">http_cache_control</td><td style="vertical-align:top;">:</td><td><div>max-age=0</div></td></tr><tr><td style="font-weight:bold;vertical-align:top;">http_connection</td><td style="vertical-align:top;">:</td><td><div>keep-alive</div></td></tr><tr><td style="font-weight:bold;vertical-align:top;">http_cookie</td><td style="vertical-align:top;">:</td><td><div>session_id_welcome=127.0.0.1-e12215ac-ea6b-4058-bef2-8bad4711289c; session_id_admin=127.0.0.1-a3bf07a4-4f13-46ca-870e-b250a4f707fd; session_id_antecedentesplataforma=127.0.0.1-9fd3fe3c-dda4-4589-bb56-14df99b5a51f</div></td></tr><tr><td style="font-weight:bold;vertical-align:top;">http_host</td><td style="vertical-align:top;">:</td><td><div>127.0.0.1:8000</div></td></tr><tr><td style="font-weight:bold;vertical-align:top;">http_upgrade_insecure_requests</td><td style="vertical-align:top;">:</td><td><div>1</div></td></tr><tr><td style="font-weight:bold;vertical-align:top;">http_user_agent</td><td style="vertical-align:top;">:</td><td><div>Mozilla/5.0 (Windows NT 6.1) AppleWebKit/537.36 (KHTML, like Gecko) Chrome/73.0.3683.103 Safari/537.36</div></td></tr><tr><td style="font-weight:bold;vertical-align:top;">is_jython</td><td style="vertical-align:top;">:</td><td><div>False</div></td></tr><tr><td style="font-weight:bold;vertical-align:top;">is_pypy</td><td style="vertical-align:top;">:</td><td><div>False</div></td></tr><tr><td style="font-weight:bold;vertical-align:top;">is_source</td><td style="vertical-align:top;">:</td><td><div>False</div></td></tr><tr><td style="font-weight:bold;vertical-align:top;">local_hosts</td><td style="vertical-align:top;">:</td><td><div><table><tr><td><div>HaTaK3-PC</div></td></tr><tr><td><div>::ffff:127.0.0.1</div></td></tr><tr><td><div>::1</div></td></tr><tr><td><div>fe80::65c7:8cfe:1866:2ddb%12</div></td></tr><tr><td><div>10.150.0.69</div></td></tr><tr><td><div>fe80::6de3:fa60:8d1c:59aa%11</div></td></tr><tr><td><div>127.0.0.1</div></td></tr><tr><td><div>192.168.56.1</div></td></tr></table></div></td></tr><tr><td style="font-weight:bold;vertical-align:top;">path_info</td><td style="vertical-align:top;">:</td><td><div>/antecedentesplataforma/confeccion/pre_imprimir</div></td></tr><tr><td style="font-weight:bold;vertical-align:top;">query_string</td><td style="vertical-align:top;">:</td><td><div></div></td></tr><tr><td style="font-weight:bold;vertical-align:top;">remote_addr</td><td style="vertical-align:top;">:</td><td><div>127.0.0.1</div></td></tr><tr><td style="font-weight:bold;vertical-align:top;">remote_port</td><td style="vertical-align:top;">:</td><td><div>6929</div></td></tr><tr><td style="font-weight:bold;vertical-align:top;">request_method</td><td style="vertical-align:top;">:</td><td><div>GET</div></td></tr><tr><td style="font-weight:bold;vertical-align:top;">request_uri</td><td style="vertical-align:top;">:</td><td><div>/antecedentesplataforma/confeccion/pre_imprimir</div></td></tr><tr><td style="font-weight:bold;vertical-align:top;">script_name</td><td style="vertical-align:top;">:</td><td><div></div></td></tr><tr><td style="font-weight:bold;vertical-align:top;">server_name</td><td style="vertical-align:top;">:</td><td><div>HaTaK3-PC</div></td></tr><tr><td style="font-weight:bold;vertical-align:top;">server_port</td><td style="vertical-align:top;">:</td><td><div>8000</div></td></tr><tr><td style="font-weight:bold;vertical-align:top;">server_protocol</td><td style="vertical-align:top;">:</td><td><div>HTTP/1.1</div></td></tr><tr><td style="font-weight:bold;vertical-align:top;">server_software</td><td style="vertical-align:top;">:</td><td><div>Rocket 1.2.6</div></td></tr><tr><td style="font-weight:bold;vertical-align:top;">web2py_path</td><td style="vertical-align:top;">:</td><td><div>D:\\web2py</div></td></tr><tr><td style="font-weight:bold;vertical-align:top;">web2py_version</td><td style="vertical-align:top;">:</td><td><div>2.14.6-stable+timestamp.2016.05.10.00.21.47</div></td></tr><tr><td style="font-weight:bold;vertical-align:top;">wsgi.errors</td><td style="vertical-align:top;">:</td><td><div>&lt;open file &#x27;&lt;stderr&gt;&#x27;, mode &#x27;w&#x27; at 0x0124D0D0&gt;</div></td></tr><tr><td style="font-weight:bold;vertical-align:top;">wsgi.file_wrapper</td><td style="vertical-align:top;">:</td><td><div>&lt;class wsgiref.util.FileWrapper at 0x028EE4C8&gt;</div></td></tr><tr><td style="font-weight:bold;vertical-align:top;">wsgi.input</td><td style="vertical-align:top;">:</td><td><div>&lt;socket._fileobject object at 0x03D392F0&gt;</div></td></tr><tr><td style="font-weight:bold;vertical-align:top;">wsgi.multiprocess</td><td style="vertical-align:top;">:</td><td><div>False</div></td></tr><tr><td style="font-weight:bold;vertical-align:top;">wsgi.multithread</td><td style="vertical-align:top;">:</td><td><div>True</div></td></tr><tr><td style="font-weight:bold;vertical-align:top;">wsgi.run_once</td><td style="vertical-align:top;">:</td><td><div>False</div></td></tr><tr><td style="font-weight:bold;vertical-align:top;">wsgi.url_scheme</td><td style="vertical-align:top;">:</td><td><div>http</div></td></tr><tr><td style="font-weight:bold;vertical-align:top;">wsgi.version</td><td style="vertical-align:top;">:</td><td><div><table><tr><td><div>1</div></td></tr><tr><td><div>0</div></td></tr></table></div></td></tr><tr><td style="font-weight:bold;vertical-align:top;">wsgi_errors</td><td style="vertical-align:top;">:</td><td><div>&lt;open file &#x27;&lt;stderr&gt;&#x27;, mode &#x27;w&#x27; at 0x0124D0D0&gt;</div></td></tr><tr><td style="font-weight:bold;vertical-align:top;">wsgi_file_wrapper</td><td style="vertical-align:top;">:</td><td><div>&lt;class wsgiref.util.FileWrapper at 0x028EE4C8&gt;</div></td></tr><tr><td style="font-weight:bold;vertical-align:top;">wsgi_input</td><td style="vertical-align:top;">:</td><td><div>&lt;socket._fileobject object at 0x03D392F0&gt;</div></td></tr><tr><td style="font-weight:bold;vertical-align:top;">wsgi_multiprocess</td><td style="vertical-align:top;">:</td><td><div>False</div></td></tr><tr><td style="font-weight:bold;vertical-align:top;">wsgi_multithread</td><td style="vertical-align:top;">:</td><td><div>True</div></td></tr><tr><td style="font-weight:bold;vertical-align:top;">wsgi_run_once</td><td style="vertical-align:top;">:</td><td><div>False</div></td></tr><tr><td style="font-weight:bold;vertical-align:top;">wsgi_url_scheme</td><td style="vertical-align:top;">:</td><td><div>http</div></td></tr><tr><td style="font-weight:bold;vertical-align:top;">wsgi_version</td><td style="vertical-align:top;">:</td><td><div><table><tr><td><div>1</div></td></tr><tr><td><div>0</div></td></tr></table></div></td></tr></table></div></td></tr><tr><td style="font-weight:bold;vertical-align:top;">extension</td><td style="vertical-align:top;">:</td><td><div>html</div></td></tr><tr><td style="font-weight:bold;vertical-align:top;">folder</td><td style="vertical-align:top;">:</td><td><div>D:\\web2py\\applications\\antecedentesplataforma\\</div></td></tr><tr><td style="font-weight:bold;vertical-align:top;">function</td><td style="vertical-align:top;">:</td><td><div>pre_imprimir</div></td></tr><tr><td style="font-weight:bold;vertical-align:top;">global_settings</td><td style="vertical-align:top;">:</td><td><div><table><tr><td style="font-weight:bold;vertical-align:top;">app_folders</td><td style="vertical-align:top;">:</td><td><div>set([&#x27;D:\\\\web2py\\\\applications\\\\admin\\\\&#x27;, &#x27;D:\\\\web2py\\\\applications\\\\welcome\\\\&#x27;, &#x27;D:\\\\web2py\\\\applications\\\\antecedentesplataforma\\\\&#x27;])</div></td></tr><tr><td style="font-weight:bold;vertical-align:top;">applications_parent</td><td style="vertical-align:top;">:</td><td><div>D:\\web2py</div></td></tr><tr><td style="font-weight:bold;vertical-align:top;">cmd_args</td><td style="vertical-align:top;">:</td><td><div><table></table></div></td></tr><tr><td style="font-weight:bold;vertical-align:top;">cmd_options</td><td style="vertical-align:top;">:</td><td><div>&lt;Values at 0x27edd50: {&#x27;verbose&#x27;: False, &#x27;ip&#x27;: &#x27;127.0.0.1&#x27;, &#x27;debuglevel&#x27;: 30, &#x27;with_scheduler&#x27;: False, &#x27;shutdown_timeout&#x27;: 5, &#x27;taskbar&#x27;: False, &#x27;with_coverage&#x27;: False, &#x27;pid_filename&#x27;: &#x27;httpserver.pid&#x27;, &#x27;maxthreads&#x27;: None, &#x27;softcron&#x27;: False, &#x27;server_name&#x27;: &#x27;HaTaK3-PC&#x27;, &#x27;bpython&#x27;: False, &#x27;nogui&#x27;: False, &#x27;port&#x27;: 8000, &#x27;print_errors&#x27;: False, &#x27;extcron&#x27;: False, &#x27;runcron&#x27;: False, &#x27;run_system_tests&#x27;: False, &#x27;test&#x27;: None, &#x27;folder&#x27;: &#x27;D:\\\\web2py&#x27;, &#x27;config&#x27;: &#x27;&#x27;, &#x27;minthreads&#x27;: None, &#x27;shell&#x27;: None, &#x27;run&#x27;: &#x27;&#x27;, &#x27;log_filename&#x27;: &#x27;httpserver.log&#x27;, &#x27;profiler_dir&#x27;: None, &#x27;args&#x27;: [&#x27;&#x27;], &#x27;socket_timeout&#x27;: 5, &#x27;ssl_ca_certificate&#x27;: None, &#x27;scheduler&#x27;: None, &#x27;interfaces&#x27;: None, &#x27;ssl_private_key&#x27;: &#x27;&#x27;, &#x27;gae&#x27;: None, &#x27;password&#x27;: &#x27;******&#x27;, &#x27;request_queue_size&#x27;: 5, &#x27;ssl_certificate&#x27;: &#x27;&#x27;, &#x27;cronjob&#x27;: False, &#x27;numthreads&#x27;: None, &#x27;quiet&#x27;: False, &#x27;import_models&#x27;: False, &#x27;timeout&#x27;: 10, &#x27;plain&#x27;: False, &#x27;nobanner&#x27;: False}&gt;</div></td></tr><tr><td style="font-weight:bold;vertical-align:top;">db_sessions</td><td style="vertical-align:top;">:</td><td><div>set([])</div></td></tr><tr><td style="font-weight:bold;vertical-align:top;">debugging</td><td style="vertical-align:top;">:</td><td><div>False</div></td></tr><tr><td style="font-weight:bold;vertical-align:top;">gluon_parent</td><td style="vertical-align:top;">:</td><td><div>D:\\web2py</div></td></tr><tr><td style="font-weight:bold;vertical-align:top;">is_jython</td><td style="vertical-align:top;">:</td><td><div>False</div></td></tr><tr><td style="font-weight:bold;vertical-align:top;">is_pypy</td><td style="vertical-align:top;">:</td><td><div>False</div></td></tr><tr><td style="font-weight:bold;vertical-align:top;">is_source</td><td style="vertical-align:top;">:</td><td><div>False</div></td></tr><tr><td style="font-weight:bold;vertical-align:top;">local_hosts</td><td style="vertical-align:top;">:</td><td><div><table><tr><td><div>HaTaK3-PC</div></td></tr><tr><td><div>::ffff:127.0.0.1</div></td></tr><tr><td><div>::1</div></td></tr><tr><td><div>fe80::65c7:8cfe:1866:2ddb%12</div></td></tr><tr><td><div>10.150.0.69</div></td></tr><tr><td><div>fe80::6de3:fa60:8d1c:59aa%11</div></td></tr><tr><td><div>127.0.0.1</div></td></tr><tr><td><div>192.168.56.1</div></td></tr></table></div></td></tr><tr><td style="font-weight:bold;vertical-align:top;">web2py_version</td><td style="vertical-align:top;">:</td><td><div>2.14.6-stable+timestamp.2016.05.10.00.21.47</div></td></tr></table></div></td></tr><tr><td style="font-weight:bold;vertical-align:top;">is_https</td><td style="vertical-align:top;">:</td><td><div>False</div></td></tr><tr><td style="font-weight:bold;vertical-align:top;">is_local</td><td style="vertical-align:top;">:</td><td><div>True</div></td></tr><tr><td style="font-weight:bold;vertical-align:top;">is_restful</td><td style="vertical-align:top;">:</td><td><div>False</div></td></tr><tr><td style="font-weight:bold;vertical-align:top;">is_scheduler</td><td style="vertical-align:top;">:</td><td><div>False</div></td></tr><tr><td style="font-weight:bold;vertical-align:top;">is_shell</td><td style="vertical-align:top;">:</td><td><div>False</div></td></tr><tr><td style="font-weight:bold;vertical-align:top;">now</td><td style="vertical-align:top;">:</td><td><div>datetime.datetime(2019, 4, 19, 10, 29, 16, 686000)</div></td></tr><tr><td style="font-weight:bold;vertical-align:top;">raw_args</td><td style="vertical-align:top;">:</td><td><div></div></td></tr><tr><td style="font-weight:bold;vertical-align:top;">raw_extension</td><td style="vertical-align:top;">:</td><td><div>None</div></td></tr><tr><td style="font-weight:bold;vertical-align:top;">url</td><td style="vertical-align:top;">:</td><td><div>/antecedentesplataforma/confeccion/pre_imprimir</div></td></tr><tr><td style="font-weight:bold;vertical-align:top;">utcnow</td><td style="vertical-align:top;">:</td><td><div>datetime.datetime(2019, 4, 19, 13, 29, 16, 686000)</div></td></tr><tr><td style="font-weight:bold;vertical-align:top;">wsgi</td><td style="vertical-align:top;">:</td><td><div>&lt;gluon.main.LazyWSGI object at 0x0789F030&gt;</div></td></tr></table></div>'
tRp58
sS'frames'
p59
(lp60
(dp61
S'file'
p62
S'D:\\web2py\\gluon\\restricted.py'
p63
sS'dump'
p64
(dp65
S'environment'
p66
S"{'A': <class 'gluon.html.A'>, 'ANY_OF': <class 'gluon.validators.ANY_OF'>, 'ASSIGNJS': <function ASSIGNJS>, 'AppConfig': <function AppConfig>, 'Auth': <class 'gluon.tools.Auth'>, 'B': <class 'gluon.html.B'>, 'BEAUTIFY': <class 'gluon.html.BEAUTIFY'>, 'BODY': <class 'gluon.html.BODY'>, 'BR': <class 'gluon.html.BR'>, 'BUTTON': <class 'gluon.html.BUTTON'>, ...}"
p67
sS'ccode'
p68
S'<code object <module> at 037E90F8, file "D:\\web2...tesplataforma\\controllers/confeccion.py", line 1>'
p69
ssS'lnum'
p70
I227
sS'lines'
p71
(dp72
I224
S'            ccode = code'
p73
sI225
S'        else:'
p74
sI226
S'            ccode = compile2(code, layer)'
p75
sI227
S'        exec ccode in environment'
p76
sI228
S'    except HTTP:'
p77
sI229
S'        raise'
p78
sI230
S'    except RestrictedError:'
p79
sI231
S'        # do not encapsulate (obfuscate) the original RestrictedError'
p80
sI222
S'    try:'
p81
sI223
S'        if isinstance(code, types.CodeType):'
p82
ssS'call'
p83
S"(code='def confeccion():\\n\\treturn dict()\\ndef por_sistema...\\t\\t\\nresponse._vars=response._caller(pre_imprimir)\\n', environment={'A': <class 'gluon.html.A'>, 'ANY_OF': <class 'gluon.validators.ANY_OF'>, 'ASSIGNJS': <function ASSIGNJS>, 'AppConfig': <function AppConfig>, 'Auth': <class 'gluon.tools.Auth'>, 'B': <class 'gluon.html.B'>, 'BEAUTIFY': <class 'gluon.html.BEAUTIFY'>, 'BODY': <class 'gluon.html.BODY'>, 'BR': <class 'gluon.html.BR'>, 'BUTTON': <class 'gluon.html.BUTTON'>, ...}, layer=r'D:\\web2py\\applications\\antecedentesplataforma\\controllers/confeccion.py')"
p84
sS'func'
p85
S'restricted'
p86
sa(dp87
g62
S'D:\\web2py\\applications\\antecedentesplataforma\\controllers\\confeccion.py'
p88
sg64
(dp89
sg70
I138
sg71
(dp90
I128
S'def pre_imprimir():'
p91
sI129
S'\tultimo=db(db.solicitud.id==71088).select().first()'
p92
sI130
S'\tu=ultimo.fecha_solicitada'
p93
sI131
S'\tv=ultimo.fecha_solicitada'
p94
sI132
S''
sI133
S''
sI134
S'\treturn dict(ultimo=ultimo,u=u,v=v)'
p95
sI135
S''
sI136
S''
sI137
S''
ssg83
S'()'
p96
sg85
S'<module>'
p97
sa(dp98
g62
S'D:\\web2py\\gluon\\globals.py'
p99
sg64
(dp100
S'self'
p101
S'undefined'
p102
sS'f'
S'<function pre_imprimir>'
p103
ssg70
I417
sg71
(dp104
I416
S'        self._vars = None'
p105
sI417
S'        self._caller = lambda f: f()'
p106
sI418
S'        self._view_environment = None'
p107
sI419
S'        self._custom_commit = None'
p108
sI420
S'        self._custom_rollback = None'
p109
sI421
S"        self.generic_patterns = ['*']"
p110
sI412
S"        self.flash = ''            # used by the default view layout"
p111
sI413
S'        self.meta = Storage()      # used by web2py_ajax.html'
p112
sI414
S'        self.menu = []             # used by the default view layout'
p113
sI415
S'        self.files = []            # used by web2py_ajax.html'
p114
ssg83
S'(f=<function pre_imprimir>)'
p115
sg85
S'<lambda>'
p116
sa(dp117
g62
S'D:\\web2py\\applications\\antecedentesplataforma\\controllers\\confeccion.py'
p118
sg64
(dp119
sg70
I129
sg71
(dp120
I128
S'def pre_imprimir():'
p121
sI129
S'\tultimo=db(db.solicitud.id==71088).select().first()'
p122
sI130
S'\tu=ultimo.fecha_solicitada'
p123
sI131
S'\tv=ultimo.fecha_solicitada'
p124
sI132
S''
sI133
S''
sI124
S' \tsoli_por_soli=soli_por_soli,ide_padron=ide_padron,form=form,clave=clave,valor=valor,qtipo=qtipo'
p125
sI125
S''
sI126
S' \t)'
p126
sI127
S''
ssg83
S'()'
p127
sg85
S'pre_imprimir'
p128
sa(dp129
g62
S'D:\\web2py\\gluon\\packages\\dal\\pydal\\objects.py'
p130
sg64
(dp131
S'self.query'
p132
S'<Query (solicitud.id = 71088)>'
p133
sS'adapter.select'
p134
S'<bound method SQLiteAdapter.select of <pydal.adapters.sqlite.SQLiteAdapter object>>'
p135
sS'fields'
p136
S'[<pydal.objects.Field object>, <pydal.objects.Field object>, <pydal.objects.Field object>, <pydal.objects.Field object>, <pydal.objects.Field object>, <pydal.objects.Field object>, <pydal.objects.Field object>, <pydal.objects.Field object>, <pydal.objects.Field object>, <pydal.objects.Field object>, <pydal.objects.Field object>, <pydal.objects.Field object>, <pydal.objects.Field object>, <pydal.objects.Field object>, <pydal.objects.Field object>, <pydal.objects.Field object>, <pydal.objects.Field object>, <pydal.objects.Field object>, <pydal.objects.Field object>]'
p137
sS'adapter'
p138
S'<pydal.adapters.sqlite.SQLiteAdapter object>'
p139
sS'attributes'
p140
g45
sS'self'
p141
S'<Set (solicitud.id = 71088)>'
p142
ssg70
I2020
sg71
(dp143
I2016
S"                                    attributes.get('left', None),"
p144
sI2017
S"                                    attributes.get('orderby', None),"
p145
sI2018
S"                                    attributes.get('groupby', None))"
p146
sI2019
S'        fields = adapter.expand_all(fields, tablenames)'
p147
sI2020
S'        return adapter.select(self.query, fields, attributes)'
p148
sI2021
S''
sI2022
S'    def iterselect(self, *fields, **attributes):'
p149
sI2023
S'        adapter = self.db._adapter'
p150
sI2024
S'        tablenames = adapter.tables(self.query,'
p151
sI2015
S"                                    attributes.get('join', None),"
p152
ssg83
S'(self=<Set (solicitud.id = 71088)>, *fields=[<pydal.objects.Field object>, <pydal.objects.Field object>, <pydal.objects.Field object>, <pydal.objects.Field object>, <pydal.objects.Field object>, <pydal.objects.Field object>, <pydal.objects.Field object>, <pydal.objects.Field object>, <pydal.objects.Field object>, <pydal.objects.Field object>, <pydal.objects.Field object>, <pydal.objects.Field object>, <pydal.objects.Field object>, <pydal.objects.Field object>, <pydal.objects.Field object>, <pydal.objects.Field object>, <pydal.objects.Field object>, <pydal.objects.Field object>, <pydal.objects.Field object>], **attributes={})'
p153
sg85
S'select'
p154
sa(dp155
g62
S'D:\\web2py\\gluon\\packages\\dal\\pydal\\adapters\\sqlite.py'
p156
sg64
(dp157
S'fields'
p158
S'[<pydal.objects.Field object>, <pydal.objects.Field object>, <pydal.objects.Field object>, <pydal.objects.Field object>, <pydal.objects.Field object>, <pydal.objects.Field object>, <pydal.objects.Field object>, <pydal.objects.Field object>, <pydal.objects.Field object>, <pydal.objects.Field object>, <pydal.objects.Field object>, <pydal.objects.Field object>, <pydal.objects.Field object>, <pydal.objects.Field object>, <pydal.objects.Field object>, <pydal.objects.Field object>, <pydal.objects.Field object>, <pydal.objects.Field object>, <pydal.objects.Field object>]'
p159
sS'self'
p160
S'<pydal.adapters.sqlite.SQLiteAdapter object>'
p161
sS').select'
p162
S'<bound method SQLiteAdapter.select of <pydal.adapters.sqlite.SQLiteAdapter object>>'
p163
sS'attributes'
p164
g45
sS'global SQLiteAdapter'
p165
S"<class 'pydal.adapters.sqlite.SQLiteAdapter'>"
p166
sS'query'
p167
S'<Query (solicitud.id = 71088)>'
p168
sS'builtinsuper'
p169
S"<type 'super'>"
p170
ssg70
I123
sg71
(dp171
I118
S'        Note that the entire database, rather than one record, is locked'
p172
sI119
S'        (it will be locked eventually anyway by the following UPDATE).'
p173
sI120
S'        """'
p174
sI121
S"        if attributes.get('for_update', False) and not 'cache' in attributes:"
p175
sI122
S"            self.execute('BEGIN IMMEDIATE TRANSACTION;')"
p176
sI123
S'        return super(SQLiteAdapter, self).select(query, fields, attributes)'
p177
sI124
S''
sI125
S''
sI126
S'SPATIALLIBS = {'
p178
sI127
S"    'Windows':'mod_spatialite.dll',"
p179
ssg83
S'(self=<pydal.adapters.sqlite.SQLiteAdapter object>, query=<Query (solicitud.id = 71088)>, fields=[<pydal.objects.Field object>, <pydal.objects.Field object>, <pydal.objects.Field object>, <pydal.objects.Field object>, <pydal.objects.Field object>, <pydal.objects.Field object>, <pydal.objects.Field object>, <pydal.objects.Field object>, <pydal.objects.Field object>, <pydal.objects.Field object>, <pydal.objects.Field object>, <pydal.objects.Field object>, <pydal.objects.Field object>, <pydal.objects.Field object>, <pydal.objects.Field object>, <pydal.objects.Field object>, <pydal.objects.Field object>, <pydal.objects.Field object>, <pydal.objects.Field object>], attributes={})'
p180
sg85
g154
sa(dp181
g62
S'D:\\web2py\\gluon\\packages\\dal\\pydal\\adapters\\base.py'
p182
sg64
(dp183
S'fields'
p184
S'[<pydal.objects.Field object>, <pydal.objects.Field object>, <pydal.objects.Field object>, <pydal.objects.Field object>, <pydal.objects.Field object>, <pydal.objects.Field object>, <pydal.objects.Field object>, <pydal.objects.Field object>, <pydal.objects.Field object>, <pydal.objects.Field object>, <pydal.objects.Field object>, <pydal.objects.Field object>, <pydal.objects.Field object>, <pydal.objects.Field object>, <pydal.objects.Field object>, <pydal.objects.Field object>, <pydal.objects.Field object>, <pydal.objects.Field object>, <pydal.objects.Field object>]'
p185
sS'self'
p186
S'<pydal.adapters.sqlite.SQLiteAdapter object>'
p187
sS'attributes'
p188
g45
sS'self._select_aux'
p189
S'<bound method SQLiteAdapter._select_aux of <pydal.adapters.sqlite.SQLiteAdapter object>>'
p190
sS'sql'
p191
S"'SELECT  solicitud.id, solicitud.dni, solicitud.a...ntes FROM solicitud WHERE (solicitud.id = 71088);'"
p192
ssg70
I1296
sg71
(dp193
I1291
S'            return cache_model('
p194
sI1292
S'                key,'
p195
sI1293
S'                lambda self=self,args=args:self._select_aux(*args),'
p196
sI1294
S'                time_expire)'
p197
sI1295
S'        else:'
p198
sI1296
S'            return self._select_aux(sql,fields,attributes)'
p199
sI1297
S''
sI1298
S'    def iterselect(self, query, fields, attributes):'
p200
sI1299
S'        sql = self._select(query, fields, attributes)'
p201
sI1300
S"        cacheable = attributes.get('cacheable', False)"
p202
ssg83
S'(self=<pydal.adapters.sqlite.SQLiteAdapter object>, query=<Query (solicitud.id = 71088)>, fields=[<pydal.objects.Field object>, <pydal.objects.Field object>, <pydal.objects.Field object>, <pydal.objects.Field object>, <pydal.objects.Field object>, <pydal.objects.Field object>, <pydal.objects.Field object>, <pydal.objects.Field object>, <pydal.objects.Field object>, <pydal.objects.Field object>, <pydal.objects.Field object>, <pydal.objects.Field object>, <pydal.objects.Field object>, <pydal.objects.Field object>, <pydal.objects.Field object>, <pydal.objects.Field object>, <pydal.objects.Field object>, <pydal.objects.Field object>, <pydal.objects.Field object>], attributes={})'
p203
sg85
g154
sa(dp204
g62
S'D:\\web2py\\gluon\\packages\\dal\\pydal\\adapters\\base.py'
p205
sg64
(dp206
S'rows'
p207
S"[(71088, u'29917029', u'ULIVAR', u'JUAN ANTONIO', u'M', u'A.G.', u'164440', u'', u'Completado', u'2019-04-19 09:34:21', u'2019-04-19 09:34:21', u'', u'INTERIOR', u'J.U.', u'juan ulivar', u'', u'', u'NO', u'')]"
p208
sS'fields'
p209
S'[<pydal.objects.Field object>, <pydal.objects.Field object>, <pydal.objects.Field object>, <pydal.objects.Field object>, <pydal.objects.Field object>, <pydal.objects.Field object>, <pydal.objects.Field object>, <pydal.objects.Field object>, <pydal.objects.Field object>, <pydal.objects.Field object>, <pydal.objects.Field object>, <pydal.objects.Field object>, <pydal.objects.Field object>, <pydal.objects.Field object>, <pydal.objects.Field object>, <pydal.objects.Field object>, <pydal.objects.Field object>, <pydal.objects.Field object>, <pydal.objects.Field object>]'
p210
sS'self'
p211
S'<pydal.adapters.sqlite.SQLiteAdapter object>'
p212
sS'cacheable'
p213
S'False'
p214
sS'self._colnames'
p215
S"['solicitud.id', 'solicitud.dni', 'solicitud.apellido', 'solicitud.nombre', 'solicitud.genero', 'solicitud.tipo_prontuario', 'solicitud.prontuario', 'solicitud.nro_certificado', 'solicitud.estado_solicitud', 'solicitud.fecha_solicitada', 'solicitud.hora', 'solicitud.solicitado_por', 'solicitud.capitalinterior', 'solicitud.intervino', 'solicitud.usuario', 'solicitud.ip_solicitante', 'solicitud.ip_confeccion', 'solicitud.t_antecedentes', 'solicitud.antecedentes']"
p216
sS'processor'
p217
S'<bound method SQLiteAdapter.parse of <pydal.adapters.sqlite.SQLiteAdapter object>>'
p218
ssg70
I1277
sg71
(dp219
I1280
S'        """'
p220
sI1281
S'        Always returns a Rows object, possibly empty.'
p221
sI1272
S'            rows = list(rows)'
p222
sI1273
S"        limitby = args_get('limitby', None) or (0,)"
p223
sI1274
S'        rows = self.rowslice(rows,limitby[0],None)'
p224
sI1275
S"        processor = args_get('processor', self.parse)"
p225
sI1276
S"        cacheable = args_get('cacheable',False)"
p226
sI1277
S'        return processor(rows,fields,self._colnames,cacheable=cacheable)'
p227
sI1278
S''
sI1279
S'    def select(self, query, fields, attributes):'
p228
ssg83
S"(self=<pydal.adapters.sqlite.SQLiteAdapter object>, sql='SELECT  solicitud.id, solicitud.dni, solicitud.a...ntes FROM solicitud WHERE (solicitud.id = 71088);', fields=[<pydal.objects.Field object>, <pydal.objects.Field object>, <pydal.objects.Field object>, <pydal.objects.Field object>, <pydal.objects.Field object>, <pydal.objects.Field object>, <pydal.objects.Field object>, <pydal.objects.Field object>, <pydal.objects.Field object>, <pydal.objects.Field object>, <pydal.objects.Field object>, <pydal.objects.Field object>, <pydal.objects.Field object>, <pydal.objects.Field object>, <pydal.objects.Field object>, <pydal.objects.Field object>, <pydal.objects.Field object>, <pydal.objects.Field object>, <pydal.objects.Field object>], attributes={})"
p229
sg85
S'_select_aux'
p230
sa(dp231
g62
S'D:\\web2py\\gluon\\packages\\dal\\pydal\\adapters\\base.py'
p232
sg64
(dp233
S'rows'
p234
S"[(71088, u'29917029', u'ULIVAR', u'JUAN ANTONIO', u'M', u'A.G.', u'164440', u'', u'Completado', u'2019-04-19 09:34:21', u'2019-04-19 09:34:21', u'', u'INTERIOR', u'J.U.', u'juan ulivar', u'', u'', u'NO', u'')]"
p235
sS'row'
p236
S"(71088, u'29917029', u'ULIVAR', u'JUAN ANTONIO', u'M', u'A.G.', u'164440', u'', u'Completado', u'2019-04-19 09:34:21', u'2019-04-19 09:34:21', u'', u'INTERIOR', u'J.U.', u'juan ulivar', u'', u'', u'NO', u'')"
p237
ssg70
I1767
sg71
(dp238
I1762
S''
sI1763
S'    def parse(self, rows, fields, colnames, blob_decode=True, cacheable=False):'
p239
sI1764
S'        (fields_virtual, fields_lazy, tmps) = self._parse_expand_colnames(colnames)'
p240
sI1765
S'        new_rows = [self._parse(row, tmps, fields, colnames, blob_decode,'
p241
sI1766
S'                                cacheable, fields_virtual, fields_lazy)'
p242
sI1767
S'                    for row in rows]'
p243
sI1768
S''
sI1769
S'        rowsobj = Rows(self.db, new_rows, colnames, rawrows=rows)'
p244
sI1770
S''
sI1771
S'        # Old stype virtual fields'
p245
ssg83
S"(self=<pydal.adapters.sqlite.SQLiteAdapter object>, rows=[(71088, u'29917029', u'ULIVAR', u'JUAN ANTONIO', u'M', u'A.G.', u'164440', u'', u'Completado', u'2019-04-19 09:34:21', u'2019-04-19 09:34:21', u'', u'INTERIOR', u'J.U.', u'juan ulivar', u'', u'', u'NO', u'')], fields=[<pydal.objects.Field object>, <pydal.objects.Field object>, <pydal.objects.Field object>, <pydal.objects.Field object>, <pydal.objects.Field object>, <pydal.objects.Field object>, <pydal.objects.Field object>, <pydal.objects.Field object>, <pydal.objects.Field object>, <pydal.objects.Field object>, <pydal.objects.Field object>, <pydal.objects.Field object>, <pydal.objects.Field object>, <pydal.objects.Field object>, <pydal.objects.Field object>, <pydal.objects.Field object>, <pydal.objects.Field object>, <pydal.objects.Field object>, <pydal.objects.Field object>], colnames=['solicitud.id', 'solicitud.dni', 'solicitud.apellido', 'solicitud.nombre', 'solicitud.genero', 'solicitud.tipo_prontuario', 'solicitud.prontuario', 'solicitud.nro_certificado', 'solicitud.estado_solicitud', 'solicitud.fecha_solicitada', 'solicitud.hora', 'solicitud.solicitado_por', 'solicitud.capitalinterior', 'solicitud.intervino', 'solicitud.usuario', 'solicitud.ip_solicitante', 'solicitud.ip_confeccion', 'solicitud.t_antecedentes', 'solicitud.antecedentes'], blob_decode=True, cacheable=False)"
p246
sg85
S'parse'
p247
sa(dp248
g62
S'D:\\web2py\\gluon\\packages\\dal\\pydal\\adapters\\base.py'
p249
sg64
(dp250
S'blob_decode'
p251
S'True'
p252
sS'self'
p253
S'<pydal.adapters.sqlite.SQLiteAdapter object>'
p254
sS'ft'
p255
S"'integer'"
p256
sS'value'
p257
S"u''"
p258
sS'self.parse_value'
p259
S'<bound method SQLiteAdapter.parse_value of <pydal.adapters.sqlite.SQLiteAdapter object>>'
p260
ssg70
I1677
sg71
(dp261
I1672
S'                (tablename, fieldname, table, field, ft) = tmp'
p262
sI1673
S'                colset = new_row.get(tablename, None)'
p263
sI1674
S'                if colset is None:'
p264
sI1675
S'                    colset = new_row[tablename] = self.db.Row()'
p265
sI1676
S''
sI1677
S'                value = self.parse_value(value, ft, blob_decode)'
p266
sI1678
S'                if field.filter_out:'
p267
sI1679
S'                    value = field.filter_out(value)'
p268
sI1680
S'                colset[fieldname] = value'
p269
sI1681
S''
ssg83
S"(self=<pydal.adapters.sqlite.SQLiteAdapter object>, row=(71088, u'29917029', u'ULIVAR', u'JUAN ANTONIO', u'M', u'A.G.', u'164440', u'', u'Completado', u'2019-04-19 09:34:21', u'2019-04-19 09:34:21', u'', u'INTERIOR', u'J.U.', u'juan ulivar', u'', u'', u'NO', u''), tmps=[('solicitud', 'id', <Table solicitud (id, dni, apellido, nombre, gen...te, ip_confeccion, t_antecedentes, antecedentes)>, <pydal.objects.Field object>, 'id'), ('solicitud', 'dni', <Table solicitud (id, dni, apellido, nombre, gen...te, ip_confeccion, t_antecedentes, antecedentes)>, <pydal.objects.Field object>, 'integer'), ('solicitud', 'apellido', <Table solicitud (id, dni, apellido, nombre, gen...te, ip_confeccion, t_antecedentes, antecedentes)>, <pydal.objects.Field object>, 'string'), ('solicitud', 'nombre', <Table solicitud (id, dni, apellido, nombre, gen...te, ip_confeccion, t_antecedentes, antecedentes)>, <pydal.objects.Field object>, 'string'), ('solicitud', 'genero', <Table solicitud (id, dni, apellido, nombre, gen...te, ip_confeccion, t_antecedentes, antecedentes)>, <pydal.objects.Field object>, 'string'), ('solicitud', 'tipo_prontuario', <Table solicitud (id, dni, apellido, nombre, gen...te, ip_confeccion, t_antecedentes, antecedentes)>, <pydal.objects.Field object>, 'string'), ('solicitud', 'prontuario', <Table solicitud (id, dni, apellido, nombre, gen...te, ip_confeccion, t_antecedentes, antecedentes)>, <pydal.objects.Field object>, 'string'), ('solicitud', 'nro_certificado', <Table solicitud (id, dni, apellido, nombre, gen...te, ip_confeccion, t_antecedentes, antecedentes)>, <pydal.objects.Field object>, 'integer'), ('solicitud', 'estado_solicitud', <Table solicitud (id, dni, apellido, nombre, gen...te, ip_confeccion, t_antecedentes, antecedentes)>, <pydal.objects.Field object>, 'string'), ('solicitud', 'fecha_solicitada', <Table solicitud (id, dni, apellido, nombre, gen...te, ip_confeccion, t_antecedentes, antecedentes)>, <pydal.objects.Field object>, 'datetime'), ('solicitud', 'hora', <Table solicitud (id, dni, apellido, nombre, gen...te, ip_confeccion, t_antecedentes, antecedentes)>, <pydal.objects.Field object>, 'datetime'), ('solicitud', 'solicitado_por', <Table solicitud (id, dni, apellido, nombre, gen...te, ip_confeccion, t_antecedentes, antecedentes)>, <pydal.objects.Field object>, 'string'), ('solicitud', 'capitalinterior', <Table solicitud (id, dni, apellido, nombre, gen...te, ip_confeccion, t_antecedentes, antecedentes)>, <pydal.objects.Field object>, 'string'), ('solicitud', 'intervino', <Table solicitud (id, dni, apellido, nombre, gen...te, ip_confeccion, t_antecedentes, antecedentes)>, <pydal.objects.Field object>, 'string'), ('solicitud', 'usuario', <Table solicitud (id, dni, apellido, nombre, gen...te, ip_confeccion, t_antecedentes, antecedentes)>, <pydal.objects.Field object>, 'string'), ('solicitud', 'ip_solicitante', <Table solicitud (id, dni, apellido, nombre, gen...te, ip_confeccion, t_antecedentes, antecedentes)>, <pydal.objects.Field object>, 'string'), ('solicitud', 'ip_confeccion', <Table solicitud (id, dni, apellido, nombre, gen...te, ip_confeccion, t_antecedentes, antecedentes)>, <pydal.objects.Field object>, 'string'), ('solicitud', 't_antecedentes', <Table solicitud (id, dni, apellido, nombre, gen...te, ip_confeccion, t_antecedentes, antecedentes)>, <pydal.objects.Field object>, 'string'), ('solicitud', 'antecedentes', <Table solicitud (id, dni, apellido, nombre, gen...te, ip_confeccion, t_antecedentes, antecedentes)>, <pydal.objects.Field object>, 'text')], fields=[<pydal.objects.Field object>, <pydal.objects.Field object>, <pydal.objects.Field object>, <pydal.objects.Field object>, <pydal.objects.Field object>, <pydal.objects.Field object>, <pydal.objects.Field object>, <pydal.objects.Field object>, <pydal.objects.Field object>, <pydal.objects.Field object>, <pydal.objects.Field object>, <pydal.objects.Field object>, <pydal.objects.Field object>, <pydal.objects.Field object>, <pydal.objects.Field object>, <pydal.objects.Field object>, <pydal.objects.Field object>, <pydal.objects.Field object>, <pydal.objects.Field object>], colnames=['solicitud.id', 'solicitud.dni', 'solicitud.apellido', 'solicitud.nombre', 'solicitud.genero', 'solicitud.tipo_prontuario', 'solicitud.prontuario', 'solicitud.nro_certificado', 'solicitud.estado_solicitud', 'solicitud.fecha_solicitada', 'solicitud.hora', 'solicitud.solicitado_por', 'solicitud.capitalinterior', 'solicitud.intervino', 'solicitud.usuario', 'solicitud.ip_solicitante', 'solicitud.ip_confeccion', 'solicitud.t_antecedentes', 'solicitud.antecedentes'], blob_decode=True, cacheable=False, fields_virtual={'solicitud': []}, fields_lazy={'solicitud': []})"
p270
sg85
S'_parse'
p271
sa(dp272
g62
S'D:\\web2py\\gluon\\packages\\dal\\pydal\\adapters\\base.py'
p273
sg64
(dp274
S'field_type'
p275
S"'integer'"
p276
sS'self'
p277
S'<pydal.adapters.sqlite.SQLiteAdapter object>'
p278
sS'self.parsemap'
p279
S"{'bigint': <bound method SQLiteAdapter.parse_integer of <pydal.adapters.sqlite.SQLiteAdapter object>>, 'blob': <bound method SQLiteAdapter.parse_blob of <pydal.adapters.sqlite.SQLiteAdapter object>>, 'boolean': <bound method SQLiteAdapter.parse_boolean of <pydal.adapters.sqlite.SQLiteAdapter object>>, 'date': <bound method SQLiteAdapter.parse_date of <pydal.adapters.sqlite.SQLiteAdapter object>>, 'datetime': <bound method SQLiteAdapter.parse_datetime of <pydal.adapters.sqlite.SQLiteAdapter object>>, 'decimal': <bound method SQLiteAdapter.parse_decimal of <pydal.adapters.sqlite.SQLiteAdapter object>>, 'double': <bound method SQLiteAdapter.parse_double of <pydal.adapters.sqlite.SQLiteAdapter object>>, 'float': <bound method SQLiteAdapter.parse_double of <pydal.adapters.sqlite.SQLiteAdapter object>>, 'id': <bound method SQLiteAdapter.parse_id of <pydal.adapters.sqlite.SQLiteAdapter object>>, 'integer': <bound method SQLiteAdapter.parse_integer of <pydal.adapters.sqlite.SQLiteAdapter object>>, ...}"
p280
sS'value'
p281
S"''"
p282
sS'key'
p283
S"'integer'"
p284
ssg70
I1527
sg71
(dp285
I1522
S'            return value'
p286
sI1523
S"        elif field_type == 'blob' and not blob_decode:"
p287
sI1524
S'            return value'
p288
sI1525
S'        else:'
p289
sI1526
S'            key = REGEX_TYPE.match(field_type).group(0)'
p290
sI1527
S'            return self.parsemap[key](value,field_type)'
p291
sI1528
S''
sI1529
S'    def parse_reference(self, value, field_type):'
p292
sI1530
S'        referee = field_type[10:].strip()'
p293
sI1531
S"        if not '.' in referee:"
p294
ssg83
S"(self=<pydal.adapters.sqlite.SQLiteAdapter object>, value='', field_type='integer', blob_decode=True)"
p295
sg85
S'parse_value'
p296
sa(dp297
g62
S'D:\\web2py\\gluon\\packages\\dal\\pydal\\adapters\\base.py'
p298
sg64
(dp299
S'global long'
p300
S"<type 'long'>"
p301
sS'value'
p302
S"''"
p303
ssg70
I1625
sg71
(dp304
I1620
S''
sI1621
S'    def parse_id(self, value, field_type):'
p305
sI1622
S'        return long(value)'
p306
sI1623
S''
sI1624
S'    def parse_integer(self, value, field_type):'
p307
sI1625
S'        return long(value)'
p308
sI1626
S''
sI1627
S'    def parse_double(self, value, field_type):'
p309
sI1628
S'        return float(value)'
p310
sI1629
S''
ssg83
S"(self=<pydal.adapters.sqlite.SQLiteAdapter object>, value='', field_type='integer')"
p311
sg85
S'parse_integer'
p312
sasS'pyver'
p313
S'Python 2.7.9: D:\\web2py\\web2py.exe (prefix: )'
p314
sS'session'
p315
g57
(S's\x1b\x0c\x00\x00<div><table><tr><td style="font-weight:bold;vertical-align:top;">auth</td><td style="vertical-align:top;">:</td><td><div><table><tr><td style="font-weight:bold;vertical-align:top;">expiration</td><td style="vertical-align:top;">:</td><td><div>3600</div></td></tr><tr><td style="font-weight:bold;vertical-align:top;">hmac_key</td><td style="vertical-align:top;">:</td><td><div>0cbdc9ae-ae6d-422b-b3ee-17d7fe848e03</div></td></tr><tr><td style="font-weight:bold;vertical-align:top;">last_visit</td><td style="vertical-align:top;">:</td><td><div>datetime.datetime(2019, 4, 19, 10, 28, 56, 772000)</div></td></tr><tr><td style="font-weight:bold;vertical-align:top;">remember_me</td><td style="vertical-align:top;">:</td><td><div>False</div></td></tr><tr><td style="font-weight:bold;vertical-align:top;">user</td><td style="vertical-align:top;">:</td><td><div><table><tr><td style="font-weight:bold;vertical-align:top;">dni</td><td style="vertical-align:top;">:</td><td><div>29917029</div></td></tr><tr><td style="font-weight:bold;vertical-align:top;">email</td><td style="vertical-align:top;">:</td><td><div>juan@ulivar.com</div></td></tr><tr><td style="font-weight:bold;vertical-align:top;">first_name</td><td style="vertical-align:top;">:</td><td><div>juan</div></td></tr><tr><td style="font-weight:bold;vertical-align:top;">id</td><td style="vertical-align:top;">:</td><td><div>1L</div></td></tr><tr><td style="font-weight:bold;vertical-align:top;">iniciales</td><td style="vertical-align:top;">:</td><td><div>J.U.</div></td></tr><tr><td style="font-weight:bold;vertical-align:top;">last_name</td><td style="vertical-align:top;">:</td><td><div>ulivar</div></td></tr><tr><td style="font-weight:bold;vertical-align:top;">oficina</td><td style="vertical-align:top;">:</td><td><div>Super</div></td></tr><tr><td style="font-weight:bold;vertical-align:top;">registration_id</td><td style="vertical-align:top;">:</td><td><div></div></td></tr><tr><td style="font-weight:bold;vertical-align:top;">registration_key</td><td style="vertical-align:top;">:</td><td><div></div></td></tr><tr><td style="font-weight:bold;vertical-align:top;">reset_password_key</td><td style="vertical-align:top;">:</td><td><div></div></td></tr><tr><td style="font-weight:bold;vertical-align:top;">username</td><td style="vertical-align:top;">:</td><td><div>uli</div></td></tr></table></div></td></tr><tr><td style="font-weight:bold;vertical-align:top;">user_groups</td><td style="vertical-align:top;">:</td><td><div><table><tr><td style="font-weight:bold;vertical-align:top;">1</td><td style="vertical-align:top;">:</td><td><div>Super</div></td></tr></table></div></td></tr></table></div></td></tr><tr><td style="font-weight:bold;vertical-align:top;">flash</td><td style="vertical-align:top;">:</td><td><div>None</div></td></tr><tr><td style="font-weight:bold;vertical-align:top;">last_orderby</td><td style="vertical-align:top;">:</td><td><div>None</div></td></tr><tr><td style="font-weight:bold;vertical-align:top;">last_query</td><td style="vertical-align:top;">:</td><td><div>db.solicitud.hora!=None</div></td></tr></table></div>'
tRp316
sS'etype'
p317
S"<type 'exceptions.ValueError'>"
p318
sS'date'
p319
S'Fri Apr 19 10:29:16 2019'
p320
sS'response'
p321
g57
(S's\xe1@\x00\x00<div><table><tr><td style="font-weight:bold;vertical-align:top;">body</td><td style="vertical-align:top;">:</td><td><div>&lt;cStringIO.StringO object at 0x28B43800&gt;</div></td></tr><tr><td style="font-weight:bold;vertical-align:top;">cookies</td><td style="vertical-align:top;">:</td><td><div><table><tr><td style="font-weight:bold;vertical-align:top;">session_id_antecedentesplataforma</td><td style="vertical-align:top;">:</td><td><div>127.0.0.1-9fd3fe3c-dda4-4589-bb56-14df99b5a51f<table><tr><td style="font-weight:bold;vertical-align:top;">comment</td><td style="vertical-align:top;">:</td><td><div></div></td></tr><tr><td style="font-weight:bold;vertical-align:top;">domain</td><td style="vertical-align:top;">:</td><td><div></div></td></tr><tr><td style="font-weight:bold;vertical-align:top;">expires</td><td style="vertical-align:top;">:</td><td><div></div></td></tr><tr><td style="font-weight:bold;vertical-align:top;">httponly</td><td style="vertical-align:top;">:</td><td><div></div></td></tr><tr><td style="font-weight:bold;vertical-align:top;">max-age</td><td style="vertical-align:top;">:</td><td><div></div></td></tr><tr><td style="font-weight:bold;vertical-align:top;">path</td><td style="vertical-align:top;">:</td><td><div>/</div></td></tr><tr><td style="font-weight:bold;vertical-align:top;">secure</td><td style="vertical-align:top;">:</td><td><div></div></td></tr><tr><td style="font-weight:bold;vertical-align:top;">version</td><td style="vertical-align:top;">:</td><td><div></div></td></tr></table></div></td></tr></table></div></td></tr><tr><td style="font-weight:bold;vertical-align:top;">delimiters</td><td style="vertical-align:top;">:</td><td><div><table><tr><td><div>{{</div></td></tr><tr><td><div>}}</div></td></tr></table></div></td></tr><tr><td style="font-weight:bold;vertical-align:top;">files</td><td style="vertical-align:top;">:</td><td><div><table></table></div></td></tr><tr><td style="font-weight:bold;vertical-align:top;">flash</td><td style="vertical-align:top;">:</td><td><div></div></td></tr><tr><td style="font-weight:bold;vertical-align:top;">form_label_separator</td><td style="vertical-align:top;">:</td><td><div></div></td></tr><tr><td style="font-weight:bold;vertical-align:top;">formstyle</td><td style="vertical-align:top;">:</td><td><div>bootstrap3_inline</div></td></tr><tr><td style="font-weight:bold;vertical-align:top;">generic_patterns</td><td style="vertical-align:top;">:</td><td><div><table><tr><td><div>*</div></td></tr></table></div></td></tr><tr><td style="font-weight:bold;vertical-align:top;">google_analytics_id</td><td style="vertical-align:top;">:</td><td><div>None</div></td></tr><tr><td style="font-weight:bold;vertical-align:top;">headers</td><td style="vertical-align:top;">:</td><td><div><table><tr><td style="font-weight:bold;vertical-align:top;">X-Powered-By</td><td style="vertical-align:top;">:</td><td><div>web2py</div></td></tr></table></div></td></tr><tr><td style="font-weight:bold;vertical-align:top;">logo</td><td style="vertical-align:top;">:</td><td><div><a class="navbar-brand" href="http://www.web2py.com/" id="web2py-logo"><b>web<span>2</span>py</b>&trade;&nbsp;</a></div></td></tr><tr><td style="font-weight:bold;vertical-align:top;">menu</td><td style="vertical-align:top;">:</td><td><div><table><tr><td><div><table><tr><td><div>Inicio</div></td></tr><tr><td><div>False</div></td></tr><tr><td><div>/antecedentesplataforma/default/index</div></td></tr><tr><td><div><table></table></div></td></tr></table></div></td></tr><tr><td><div><table><tr><td><div>Mis Sitios</div></td></tr><tr><td><div>False</div></td></tr><tr><td><div>/admin/default/site</div></td></tr></table></div></td></tr><tr><td><div><table><tr><td><div>Esta Aplicaci\xc3\xb3n</div></td></tr><tr><td><div>False</div></td></tr><tr><td><div>#</div></td></tr><tr><td><div><table><tr><td><div><table><tr><td><div>Design</div></td></tr><tr><td><div>False</div></td></tr><tr><td><div>/admin/default/design/antecedentesplataforma</div></td></tr></table></div></td></tr><tr><td><div><li class="divider"></li></div></td></tr><tr><td><div><table><tr><td><div>Controlador</div></td></tr><tr><td><div>False</div></td></tr><tr><td><div>/admin/default/edit/antecedentesplataforma/controllers/confeccion.py</div></td></tr></table></div></td></tr><tr><td><div><table><tr><td><div>Vista</div></td></tr><tr><td><div>False</div></td></tr><tr><td><div>/admin/default/edit/antecedentesplataforma/views/confeccion/pre_imprimir.html</div></td></tr></table></div></td></tr><tr><td><div><table><tr><td><div>Modelo BDD</div></td></tr><tr><td><div>False</div></td></tr><tr><td><div>/admin/default/edit/antecedentesplataforma/models/db.py</div></td></tr></table></div></td></tr><tr><td><div><table><tr><td><div>Modelo "menu"</div></td></tr><tr><td><div>False</div></td></tr><tr><td><div>/admin/default/edit/antecedentesplataforma/models/menu.py</div></td></tr></table></div></td></tr><tr><td><div><table><tr><td><div>Config.ini</div></td></tr><tr><td><div>False</div></td></tr><tr><td><div>/admin/default/edit/antecedentesplataforma/private/appconfig.ini</div></td></tr></table></div></td></tr><tr><td><div><table><tr><td><div>Dise\xc3\xb1o de p\xc3\xa1gina</div></td></tr><tr><td><div>False</div></td></tr><tr><td><div>/admin/default/edit/antecedentesplataforma/views/layout.html</div></td></tr></table></div></td></tr><tr><td><div><table><tr><td><div>Hoja de estilo</div></td></tr><tr><td><div>False</div></td></tr><tr><td><div>/admin/default/edit/antecedentesplataforma/static/css/web2py-bootstrap3.css</div></td></tr></table></div></td></tr><tr><td><div><table><tr><td><div>Base de datos</div></td></tr><tr><td><div>False</div></td></tr><tr><td><div>/antecedentesplataforma/appadmin/index</div></td></tr></table></div></td></tr><tr><td><div><table><tr><td><div>Errores</div></td></tr><tr><td><div>False</div></td></tr><tr><td><div>/admin/default/errors/antecedentesplataforma</div></td></tr></table></div></td></tr><tr><td><div><table><tr><td><div>Acerca de</div></td></tr><tr><td><div>False</div></td></tr><tr><td><div>/admin/default/about/antecedentesplataforma</div></td></tr></table></div></td></tr></table></div></td></tr></table></div></td></tr><tr><td><div><table><tr><td><div>web2py.com</div></td></tr><tr><td><div>False</div></td></tr><tr><td><div>#</div></td></tr><tr><td><div><table><tr><td><div><table><tr><td><div>Descargas</div></td></tr><tr><td><div>False</div></td></tr><tr><td><div>http://www.web2py.com/examples/default/download</div></td></tr></table></div></td></tr><tr><td><div><table><tr><td><div>Soporte</div></td></tr><tr><td><div>False</div></td></tr><tr><td><div>http://www.web2py.com/examples/default/support</div></td></tr></table></div></td></tr><tr><td><div><table><tr><td><div>Demostraci\xc3\xb3n</div></td></tr><tr><td><div>False</div></td></tr><tr><td><div>http://web2py.com/demo_admin</div></td></tr></table></div></td></tr><tr><td><div><table><tr><td><div>Ejemplos R\xc3\xa1pidos</div></td></tr><tr><td><div>False</div></td></tr><tr><td><div>http://web2py.com/examples/default/examples</div></td></tr></table></div></td></tr><tr><td><div><table><tr><td><div>FAQ</div></td></tr><tr><td><div>False</div></td></tr><tr><td><div>http://web2py.com/AlterEgo</div></td></tr></table></div></td></tr><tr><td><div><table><tr><td><div>V\xc3\xaddeos</div></td></tr><tr><td><div>False</div></td></tr><tr><td><div>http://www.web2py.com/examples/default/videos/</div></td></tr></table></div></td></tr><tr><td><div><table><tr><td><div>Aplicaciones Libres</div></td></tr><tr><td><div>False</div></td></tr><tr><td><div>http://web2py.com/appliances</div></td></tr></table></div></td></tr><tr><td><div><table><tr><td><div>Plugins</div></td></tr><tr><td><div>False</div></td></tr><tr><td><div>http://web2py.com/plugins</div></td></tr></table></div></td></tr><tr><td><div><table><tr><td><div>Recetas</div></td></tr><tr><td><div>False</div></td></tr><tr><td><div>http://web2pyslices.com/</div></td></tr></table></div></td></tr></table></div></td></tr></table></div></td></tr><tr><td><div><table><tr><td><div>Documentaci\xc3\xb3n</div></td></tr><tr><td><div>False</div></td></tr><tr><td><div>#</div></td></tr><tr><td><div><table><tr><td><div><table><tr><td><div>Online book</div></td></tr><tr><td><div>False</div></td></tr><tr><td><div>http://www.web2py.com/book</div></td></tr></table></div></td></tr><tr><td><div><li class="divider"></li></div></td></tr><tr><td><div><table><tr><td><div>Prefacio</div></td></tr><tr><td><div>False</div></td></tr><tr><td><div>http://www.web2py.com/book/default/chapter/00</div></td></tr></table></div></td></tr><tr><td><div><table><tr><td><div>Introducci\xc3\xb3n</div></td></tr><tr><td><div>False</div></td></tr><tr><td><div>http://www.web2py.com/book/default/chapter/01</div></td></tr></table></div></td></tr><tr><td><div><table><tr><td><div>Python</div></td></tr><tr><td><div>False</div></td></tr><tr><td><div>http://www.web2py.com/book/default/chapter/02</div></td></tr></table></div></td></tr><tr><td><div><table><tr><td><div>Resumen</div></td></tr><tr><td><div>False</div></td></tr><tr><td><div>http://www.web2py.com/book/default/chapter/03</div></td></tr></table></div></td></tr><tr><td><div><table><tr><td><div>El N\xc3\xbacleo</div></td></tr><tr><td><div>False</div></td></tr><tr><td><div>http://www.web2py.com/book/default/chapter/04</div></td></tr></table></div></td></tr><tr><td><div><table><tr><td><div>Las Vistas</div></td></tr><tr><td><div>False</div></td></tr><tr><td><div>http://www.web2py.com/book/default/chapter/05</div></td></tr></table></div></td></tr><tr><td><div><table><tr><td><div>Base de datos</div></td></tr><tr><td><div>False</div></td></tr><tr><td><div>http://www.web2py.com/book/default/chapter/06</div></td></tr></table></div></td></tr><tr><td><div><table><tr><td><div>Formularios y validadores</div></td></tr><tr><td><div>False</div></td></tr><tr><td><div>http://www.web2py.com/book/default/chapter/07</div></td></tr></table></div></td></tr><tr><td><div><table><tr><td><div>Correo electr\xc3\xb3nico y SMS</div></td></tr><tr><td><div>False</div></td></tr><tr><td><div>http://www.web2py.com/book/default/chapter/08</div></td></tr></table></div></td></tr><tr><td><div><table><tr><td><div>Control de Acceso</div></td></tr><tr><td><div>False</div></td></tr><tr><td><div>http://www.web2py.com/book/default/chapter/09</div></td></tr></table></div></td></tr><tr><td><div><table><tr><td><div>Servicios</div></td></tr><tr><td><div>False</div></td></tr><tr><td><div>http://www.web2py.com/book/default/chapter/10</div></td></tr></table></div></td></tr><tr><td><div><table><tr><td><div>Recetas AJAX</div></td></tr><tr><td><div>False</div></td></tr><tr><td><div>http://www.web2py.com/book/default/chapter/11</div></td></tr></table></div></td></tr><tr><td><div><table><tr><td><div>Componentes y Plugins</div></td></tr><tr><td><div>False</div></td></tr><tr><td><div>http://www.web2py.com/book/default/chapter/12</div></td></tr></table></div></td></tr><tr><td><div><table><tr><td><div>Recetas de despliegue</div></td></tr><tr><td><div>False</div></td></tr><tr><td><div>http://www.web2py.com/book/default/chapter/13</div></td></tr></table></div></td></tr><tr><td><div><table><tr><td><div>Otras Recetas</div></td></tr><tr><td><div>False</div></td></tr><tr><td><div>http://www.web2py.com/book/default/chapter/14</div></td></tr></table></div></td></tr><tr><td><div><table><tr><td><div>Helping web2py</div></td></tr><tr><td><div>False</div></td></tr><tr><td><div>http://www.web2py.com/book/default/chapter/15</div></td></tr></table></div></td></tr><tr><td><div><table><tr><td><div>Buy web2py\'s book</div></td></tr><tr><td><div>False</div></td></tr><tr><td><div>http://stores.lulu.com/web2py</div></td></tr></table></div></td></tr></table></div></td></tr></table></div></td></tr><tr><td><div><table><tr><td><div>Comunidad</div></td></tr><tr><td><div>False</div></td></tr><tr><td><div>None</div></td></tr><tr><td><div><table><tr><td><div><table><tr><td><div>Grupos</div></td></tr><tr><td><div>False</div></td></tr><tr><td><div>http://www.web2py.com/examples/default/usergroups</div></td></tr></table></div></td></tr><tr><td><div><table><tr><td><div>Twitter</div></td></tr><tr><td><div>False</div></td></tr><tr><td><div>http://twitter.com/web2py</div></td></tr></table></div></td></tr><tr><td><div><table><tr><td><div>Chat en vivo</div></td></tr><tr><td><div>False</div></td></tr><tr><td><div>http://webchat.freenode.net/?channels=web2py</div></td></tr></table></div></td></tr></table></div></td></tr></table></div></td></tr></table></div></td></tr><tr><td style="font-weight:bold;vertical-align:top;">meta</td><td style="vertical-align:top;">:</td><td><div><table><tr><td style="font-weight:bold;vertical-align:top;">author</td><td style="vertical-align:top;">:</td><td><div>Your Name &lt;you@example.com&gt;</div></td></tr><tr><td style="font-weight:bold;vertical-align:top;">description</td><td style="vertical-align:top;">:</td><td><div>a cool new app</div></td></tr><tr><td style="font-weight:bold;vertical-align:top;">generator</td><td style="vertical-align:top;">:</td><td><div>Web2py Web Framework</div></td></tr><tr><td style="font-weight:bold;vertical-align:top;">keywords</td><td style="vertical-align:top;">:</td><td><div><table><tr><td><div>web2py</div></td></tr><tr><td><div>python</div></td></tr><tr><td><div>framework</div></td></tr></table></div></td></tr></table></div></td></tr><tr><td style="font-weight:bold;vertical-align:top;">models_to_run</td><td style="vertical-align:top;">:</td><td><div><table><tr><td><div>^\\w+\\.py$</div></td></tr><tr><td><div>^confeccion/\\w+\\.py$</div></td></tr><tr><td><div>^confeccion/pre_imprimir/\\w+\\.py$</div></td></tr></table></div></td></tr><tr><td style="font-weight:bold;vertical-align:top;">postprocessing</td><td style="vertical-align:top;">:</td><td><div><table></table></div></td></tr><tr><td style="font-weight:bold;vertical-align:top;">session_client</td><td style="vertical-align:top;">:</td><td><div>127.0.0.1</div></td></tr><tr><td style="font-weight:bold;vertical-align:top;">session_cookie_compression_level</td><td style="vertical-align:top;">:</td><td><div>None</div></td></tr><tr><td style="font-weight:bold;vertical-align:top;">session_cookie_expires</td><td style="vertical-align:top;">:</td><td><div>None</div></td></tr><tr><td style="font-weight:bold;vertical-align:top;">session_data_name</td><td style="vertical-align:top;">:</td><td><div>session_data_antecedentesplataforma</div></td></tr><tr><td style="font-weight:bold;vertical-align:top;">session_file</td><td style="vertical-align:top;">:</td><td><div>&lt;open file &#x27;D:\\\\web2py\\\\applications\\\\antecedentesplataforma\\\\sessions\\\\1a6\\\\01b\\\\127.0.0.1-9fd3fe3c-dda4-4589-bb56-14df99b5a51f&#x27;, mode &#x27;rb+&#x27; at 0x32C06F40&gt;</div></td></tr><tr><td style="font-weight:bold;vertical-align:top;">session_filename</td><td style="vertical-align:top;">:</td><td><div>D:\\web2py\\applications\\antecedentesplataforma\\sessions\\127.0.0.1-9fd3fe3c-dda4-4589-bb56-14df99b5a51f</div></td></tr><tr><td style="font-weight:bold;vertical-align:top;">session_hash</td><td style="vertical-align:top;">:</td><td><div>e93d768bfaa08a168fa3964d4d2b8101</div></td></tr><tr><td style="font-weight:bold;vertical-align:top;">session_id</td><td style="vertical-align:top;">:</td><td><div>127.0.0.1-9fd3fe3c-dda4-4589-bb56-14df99b5a51f</div></td></tr><tr><td style="font-weight:bold;vertical-align:top;">session_id_name</td><td style="vertical-align:top;">:</td><td><div>session_id_antecedentesplataforma</div></td></tr><tr><td style="font-weight:bold;vertical-align:top;">session_locked</td><td style="vertical-align:top;">:</td><td><div>True</div></td></tr><tr><td style="font-weight:bold;vertical-align:top;">session_masterapp</td><td style="vertical-align:top;">:</td><td><div>antecedentesplataforma</div></td></tr><tr><td style="font-weight:bold;vertical-align:top;">session_new</td><td style="vertical-align:top;">:</td><td><div>False</div></td></tr><tr><td style="font-weight:bold;vertical-align:top;">session_storage_type</td><td style="vertical-align:top;">:</td><td><div>file</div></td></tr><tr><td style="font-weight:bold;vertical-align:top;">status</td><td style="vertical-align:top;">:</td><td><div>200</div></td></tr><tr><td style="font-weight:bold;vertical-align:top;">subtitle</td><td style="vertical-align:top;">:</td><td><div></div></td></tr><tr><td style="font-weight:bold;vertical-align:top;">title</td><td style="vertical-align:top;">:</td><td><div>Antecedentesplataforma</div></td></tr><tr><td style="font-weight:bold;vertical-align:top;">view</td><td style="vertical-align:top;">:</td><td><div>confeccion/pre_imprimir.html</div></td></tr></table></div>'
tRp322
sS'locals'
p323
(dp324
S'field_type'
p325
S"'integer'"
p326
sS'self'
p327
S'<pydal.adapters.sqlite.SQLiteAdapter object>'
p328
sS'value'
p329
S"''"
p330
sssS'traceback'
p331
S'Traceback (most recent call last):\n  File "D:\\web2py\\gluon\\restricted.py", line 227, in restricted\n    exec ccode in environment\n  File "D:\\web2py\\applications\\antecedentesplataforma\\controllers/confeccion.py", line 138, in <module>\n  File "D:\\web2py\\gluon\\globals.py", line 417, in <lambda>\n    self._caller = lambda f: f()\n  File "D:\\web2py\\applications\\antecedentesplataforma\\controllers/confeccion.py", line 129, in pre_imprimir\n    ultimo=db(db.solicitud.id==71088).select().first()\n  File "D:\\web2py\\gluon\\packages\\dal\\pydal\\objects.py", line 2020, in select\n    return adapter.select(self.query, fields, attributes)\n  File "D:\\web2py\\gluon\\packages\\dal\\pydal\\adapters\\sqlite.py", line 123, in select\n    return super(SQLiteAdapter, self).select(query, fields, attributes)\n  File "D:\\web2py\\gluon\\packages\\dal\\pydal\\adapters\\base.py", line 1296, in select\n    return self._select_aux(sql,fields,attributes)\n  File "D:\\web2py\\gluon\\packages\\dal\\pydal\\adapters\\base.py", line 1277, in _select_aux\n    return processor(rows,fields,self._colnames,cacheable=cacheable)\n  File "D:\\web2py\\gluon\\packages\\dal\\pydal\\adapters\\base.py", line 1767, in parse\n    for row in rows]\n  File "D:\\web2py\\gluon\\packages\\dal\\pydal\\adapters\\base.py", line 1677, in _parse\n    value = self.parse_value(value, ft, blob_decode)\n  File "D:\\web2py\\gluon\\packages\\dal\\pydal\\adapters\\base.py", line 1527, in parse_value\n    return self.parsemap[key](value,field_type)\n  File "D:\\web2py\\gluon\\packages\\dal\\pydal\\adapters\\base.py", line 1625, in parse_integer\n    return long(value)\nValueError: invalid literal for long() with base 10: \'\'\n'
p332
s.