(dp1
S'output'
p2
S"<type 'exceptions.AttributeError'> 'module' object has no attribute 'drawString'"
p3
sS'layer'
p4
S'D:\\web2py\\applications\\antecedentesplataforma\\controllers/imprimir.py'
p5
sS'code'
p6
S'\nfrom reportlab.pdfgen import canvas\n\ndef sin_antecedentes():\n\t\t#importo para poner la fecha\n\tfrom datetime import *\n    \n    \thoyfecha=datetime.today() #capturo la fecha de hoy\n    \tdia=hoyfecha.day #capturo el dia\n    \tdia=str(dia)#paso el dia a string\n    \tmes=hoyfecha.month #capturo el mes\n    \tmes=str(mes)#paso el dia a string\n    \t#creo un diccionario para reemplazar el numero del mes por el nombre del mes\n    \tmeses={"1":"ENERO","2":"FEBRERO","3":"MARZO","4":"ABRIL","5":"MAYO","6":"JUNIO","7":"JULIO","8":"AGOSTO","9":"SEPTIEMBRE","10":"OCTUBRE","11":"NOVIEMBRE","12":"DICIEMBRE"}\n    \t\n    \tqmes=meses[mes]# reemplazo el numero del mes en el diccionario mes\n    \tanio=hoyfecha.year #capturo el a\xc3\xb1o\n    \tanio=str(anio)\t#paso el a\xc3\xb1o a string para pornerlo en el pdf\n\tide_padron=request.args[1]\t#traigo el argumento del id del padron\n\tide_soli=request.args[0] \t#traigo el argumento del id de la solicitud\n\tdni=request.args[2] \t\t#traigo el dni de la persona\n\tDNI=str(dni)\t\t\t\t#paso el dni a string para ponerlo en el pdf\n\tpa=db(db.padron.id==ide_padron).select().first() #realizo un set para sacar los datos de la tabla padron\n\tape=pa.Apellido \t#capturo el apellido\n\tape=ape+","\t\t\t#le agrego una coma al apellido\n\tnom=pa.Nombre \t\t#capturo el nombre\n\tclase=pa.Clase \t\t#capturo la clase\n\tclase=str(clase) \t#paso la clase a string para ponerlo en el pdf\n\tdni=pa.DocumentoNro\t#capturo el dni\n\tdni=str(dni)\t\t#paso el dni a string para ponerlo en el pdf\n\tpasa=pa.Pasaporte\t#capturo el pasaporte\n\tpasa=str(pasa)\t\t#paso el pasaporte a string\n\tnacion=pa.IdPais\t#saco el id del pais \t\n\tpaises=db(db.paises.id==nacion).select().first()# hago un set para sacar el pais\n\tpais=paises.pais \t#saco el nombre del pais\n\tvil={"S":"SOLTERO/A","C":"CASADO/A","D":"DIVORSIADO/A","V":"VIUDO/A"} #creo un diccionario \t\n\tcivil=pa.EstadoCivil\t# capturo el estado civil\n\te_civil=vil[civil]#reemplazo en el diccionario vil\t\n\tprof=pa.Profesion  #saco la profesion\n\tdirec=pa.Direccion #saco la direccion\n\tclave={\'1\':"A.G.",\'2\':"C.I.",\'3\':"D.C.P.",\'4\':"D.E.",\'5\':"R.C.",\'6\':"S.P.",\'0\':None} #creo un diccionario para los tipos de prontuario\n\ttipo=pa.IdProntuarioTipo #saco el id del tipo de prontuario\n\ttipo=str(tipo)\t#\n\tnpront=pa.ProntuarioNro\n\tnpront=str(npront)\n\tqtipo=clave[tipo]\t\n\tsol=db(db.solicitud.id==ide_soli).select().first()\n\tsolipor=sol.solicitado_por\n\tnum=sol.nro_certificado\n\tcapital=sol.capitalinterior\n\tintervino=sol.intervino\n\tfecha=sol.fecha_solicitada\t\n\tuser=sol.usuario\n\ttiene=sol.t_antecedentes\n\tante=sol.antecedentes\n\t#Importamos los modulos necesarios\n\tfrom reportlab.pdfgen import canvas# clase para crear el documento\n\tfrom reportlab.lib.colors import white,red,green,blue,gray,black#colores\t\n\tfrom os import startfile\n\t\n\tpdf="ej.pdf"#largo,alto#defino como se va a llamar el arhivo pfg\n\tcertificado=(602,620) #configuro los tama\xc3\xb1os de la hoja del certificado\n\n\tdoc = canvas.Canvas(pdf,pagesize=certificado)\n\tmargen=db(db.margenes).select().first()\n\tx = margen.x\n\tlargo=602\n\ty =margen.y\n\talto=620\n\tdoc.setFont("Courier", 10)#fuente de letra y tama\xc3\xb1o\n\tdoc.drawString(110+x,455+y,ape)#para poner texto valores x,y\n\n\tdoc.setFont("Courier",10)\t#fuente de letra y tama\xc3\xb1o\n\tdoc.drawString(155+x,455+y,nom)#para poner texto valores x,y\n\n\tdoc.setFont("Courier",10)\t#fuente de letra y tama\xc3\xb1o\n\tdoc.drawString(270+x,438+y,clase)#para poner texto valores x,y\n\n\tdoc.setFont("Courier",10)\t#fuente de letra y tama\xc3\xb1o\n\tdoc.drawString(373+x,438+y,dni)#para poner texto valores x,y\n\n\tdoc.setFont("Courier",10)\t#fuente de letra y tama\xc3\xb1o\n\tdoc.drawString(173+x,420+y,pais)#para poner texto valores x,y\n\n\tdoc.setFont("Courier",10)\t#fuente de letra y tama\xc3\xb1o\n\tdoc.drawString(380+x,420+y,e_civil)#para poner texto valores x,y\n\n\tdoc.setFont("Courier",10)\t#fuente de letra y tama\xc3\xb1o\n\tdoc.drawString(157+x,406+y,prof)#para poner texto valores x,y\n\n\tdoc.setFont("Courier",10)\t#fuente de letra y tama\xc3\xb1o\n\tdoc.drawString(160+x,390+y,direc)#para poner texto valores x,y\n\n\tdoc.setFont("Courier",10)\t#fuente de letra y tama\xc3\xb1o\n\tdoc.drawString(175+x,360+y,qtipo+npront)#para poner texto valores x,y\n\n\tdoc.setFont("Courier",10)\t#fuente de letra y tama\xc3\xb1o\n\tdoc.drawString(90+x,255+y,solipor)#para poner texto valores x,y\n\n\tdoc.setFont("Courier",10)\t#fuente de letra y tama\xc3\xb1o\n\tdoc.drawString(360+x,240+y,dia)#para poner texto valores x,y\n\n\tdoc.setFont("Courier",10)\t#fuente de letra y tama\xc3\xb1o\n\tdoc.drawString(160+x,225+y,qmes)#para poner texto valores x,y\n\n\tdoc.setFont("Courier",10)\t#fuente de letra y tama\xc3\xb1o\n\tdoc.drawString(360+x,225+y,anio)#para poner texto valores x,y\n\n\tdoc.setFont("Courier",10)\t#fuente de letra y tama\xc3\xb1o\n\tdoc.drawString(160+x,205+y,num)#para poner texto valores x,y\n\n\tdoc.setFont("Courier",10)\t#fuente de letra y tama\xc3\xb1o\n\tdoc.drawString(95+x,120+y,intervino)#para poner texto valores x,y\n\n\n\n\n\n\n\n\n\n\n\n\n\n\n\n\n\n\n\tdoc.showPage()\n\tdoc.save()\n\tstartfile(pdf)                    \n\treturn dict()\n\n    \t\n\t\n\n\t\n\t\ndef con_antecedentes():\n\t\t#importo para poner la fecha\n\tfrom datetime import *\n    \n    \thoyfecha=datetime.today() #capturo la fecha de hoy\n    \tdia=hoyfecha.day #capturo el dia\n    \tdia=str(dia)#paso el dia a string\n    \tmes=hoyfecha.month #capturo el mes\n    \tmes=str(mes)#paso el dia a string\n    \t#creo un diccionario para reemplazar el numero del mes por el nombre del mes\n    \tmeses={"1":"ENERO","2":"FEBRERO","3":"MARZO","4":"ABRIL","5":"MAYO","6":"JUNIO","7":"JULIO","8":"AGOSTO","9":"SEPTIEMBRE","10":"OCTUBRE","11":"NOVIEMBRE","12":"DICIEMBRE"}\n    \t\n    \tqmes=meses[mes]# reemplazo el numero del mes en el diccionario mes\n    \tanio=hoyfecha.year #capturo el a\xc3\xb1o\n    \tanio=str(anio)\t#paso el a\xc3\xb1o a string para pornerlo en el pdf\n\tide_padron=request.args[1]\t#traigo el argumento del id del padron\n\tide_soli=request.args[0] \t#traigo el argumento del id de la solicitud\n\tdni=request.args[2] \t\t#traigo el dni de la persona\n\tDNI=str(dni)\t\t\t\t#paso el dni a string para ponerlo en el pdf\n\tpa=db(db.padron.id==ide_padron).select().first() #realizo un set para sacar los datos de la tabla padron\n\tape=pa.Apellido \t#capturo el apellido\n\tape=ape+","\t\t\t#le agrego una coma al apellido\n\tnom=pa.Nombre \t\t#capturo el nombre\n\tclase=pa.Clase \t\t#capturo la clase\n\tclase=str(clase) \t#paso la clase a string para ponerlo en el pdf\n\tdni=pa.DocumentoNro\t#capturo el dni\n\tdni=str(dni)\t\t#paso el dni a string para ponerlo en el pdf\n\tpasa=pa.Pasaporte\t#capturo el pasaporte\n\tpasa=str(pasa)\t\t#paso el pasaporte a string\n\tnacion=pa.IdPais\t#saco el id del pais \t\n\tpaises=db(db.paises.id==nacion).select().first()# hago un set para sacar el pais\n\tpais=paises.pais \t#saco el nombre del pais\n\tvil={"S":"SOLTERO/A","C":"CASADO/A","D":"DIVORSIADO/A","V":"VIUDO/A"} #creo un diccionario \t\n\tcivil=pa.EstadoCivil\t# capturo el estado civil\n\te_civil=vil[civil]#reemplazo en el diccionario vil\t\n\tprof=pa.Profesion  #saco la profesion\n\tdirec=pa.Direccion #saco la direccion\n\tclave={\'1\':"A.G.",\'2\':"C.I.",\'3\':"D.C.P.",\'4\':"D.E.",\'5\':"R.C.",\'6\':"S.P.",\'0\':None} #creo un diccionario para los tipos de prontuario\n\ttipo=pa.IdProntuarioTipo #saco el id del tipo de prontuario\n\ttipo=str(tipo)\t#\n\tnpront=pa.ProntuarioNro\n\tnpront=str(npront)\n\tqtipo=clave[tipo]\t\n\tsol=db(db.solicitud.id==ide_soli).select().first()\n\tsolipor=sol.solicitado_por\n\tnum=sol.nro_certificado\n\tcapital=sol.capitalinterior\n\tintervino=sol.intervino\n\tfecha=sol.fecha_solicitada\t\n\tuser=sol.usuario\n\ttiene=sol.t_antecedentes\n\tante=sol.antecedentes\n\t#Importamos los modulos necesarios\n\tfrom reportlab.pdfgen import canvas# clase para crear el documento\n\tfrom reportlab.lib.colors import white,red,green,blue,gray,black#colores\t\n\tfrom os import startfile\n\tfrom reportlab.lib.utils import ImageReader\n\timport StringIO\n\timport PIL.Image\n\tfrom reportlab.lib.styles import getSampleStyleSheet\n\tfrom reportlab.lib.enums import TA_LEFT, TA_RIGHT, TA_CENTER, TA_JUSTIFY\n\tfrom reportlab.platypus import SimpleDocTemplate, Paragraph, Spacer, Image\n\n\t\n\tpdf="con_antecedentes.pdf"#largo,alto#defino como se va a llamar el arhivo pfg\n\toficio=(612,1010) #configuro los tama\xc3\xb1os de la hoja oficio \n\t#A4=612.0, 792.0 \n\tdoc = canvas.Canvas(pdf,pagesize=oficio,)\n\tmargen=db(db.margenes).select().first()\n\tx = margen.x\n\tlargo=612.0\t\n\ty =margen.y\n\talto=1010  \n\testilos = getSampleStyleSheet()\n\t\n\tStory = [] \n\tdoc.drawImage("d:\\\\web2py\\\\applications\\\\antecedentesplataforma\\\\static\\\\images\\\\escudo1.jpg",80,950,50,50)#insertar imagen\n\tdoc.setFont("Helvetica-Bold", 18)#fuente de letra y tama\xc3\xb1o\n\tdoc.drawString(150+x,970+y,"CERTIFICADO DE ANTECEDENTES")#para poner texto valores x,y\n\tdoc.drawImage("d:\\\\web2py\\\\applications\\\\antecedentesplataforma\\\\static\\\\images\\\\escudo_policia.jpg",480,950,50,50)#insertar imagen\n\n\tdoc.setFont("Times-Roman", 12)#fuente de letra y tama\xc3\xb1o\n\tdoc.drawString(80+x,920+y,"LOS FUNCIONARIOS POLICIALES QUE SUSCRIBEN CERTIFICAN:")#para poner texto valores x,y\n\tdoc.setFont("Times-Roman", 12)#fuente de letra y tama\xc3\xb1o\n\tdoc.drawString(80+x,900+y,"QUE")#para poner texto valores x,y\n\tdoc.setFont("Times-Roman", 12)#fuente de letra y tama\xc3\xb1o\n\tdoc.drawString(110+x,900+y,nom+"  " +ape)#para poner texto valores x,y\n\tdoc.setFont("Times-Roman", 12)#fuente de letra y tama\xc3\xb1o\n\tdoc.drawString(300+x,900+y,"CLASE:")#para poner texto valores x,y\n\tdoc.setFont("Times-Roman", 12)#fuente de letra y tama\xc3\xb1o\n\tdoc.drawString(343+x,900+y,clase)#para poner texto valores x,y\n\tdoc.setFont("Times-Roman", 12)#fuente de letra y tama\xc3\xb1o\n\tdoc.drawString(370+x,900+y,"D.N.I. N\xc2\xba")#para poner texto valores x,y\n\tdoc.setFont("Times-Roman", 12)#fuente de letra y tama\xc3\xb1o\n\tdoc.drawString(425+x,900+y,dni+", DE NACIONALIDAD: ")#para poner texto valores x,y\n\tdoc.setFont("Times-Roman",12)#fuente de letra y tama\xc3\xb1o\n\tdoc.drawString(80+x,885+y,pais)#para poner texto valores x,y\n\tdoc.setFont("Times-Roman",12)#fuente de letra y tama\xc3\xb1o\n\tdoc.drawString(190+x,885+y,", DE ESTADO CIVIL:")#para poner texto valores x,y\n\tdoc.setFont("Times-Roman", 12)#fuente de letra y tama\xc3\xb1o\n\tdoc.drawString(305+x,885+y,e_civil+", ")#para poner texto valores x,y\n\tdoc.setFont("Times-Roman", 12)#fuente de letra y tama\xc3\xb1o\n\tdoc.drawString(380+x,885+y,"DE PROFESION:")#para poner texto valores x,y\n\tdoc.setFont("Times-Roman", 12)#fuente de letra y tama\xc3\xb1o\n\tdoc.drawString(80+x,870+y,prof+", ")#para poner texto valores x,y\n\tdoc.setFont("Times-Roman", 12)#fuente de letra y tama\xc3\xb1o\n\tdoc.drawString(350+x,870+y,"CON DOMICILIO: ")#para poner texto valores x,y\n\tdoc.setFont("Times-Roman", 12)#fuente de letra y tama\xc3\xb1o\n\tdoc.drawString(80+x,855+y,direc+", ")#para poner texto valores x,y\n\tdoc.setFont("Times-Roman", 12)#fuente de letra y tama\xc3\xb1o\n\tdoc.drawString(80+x,840+y,"SE ENCUENTRA IDENTIFICADO/A EN ESTA POLICIA, BAJO EL PROMTUARIO: ")#para poner texto valores x,y\n\tdoc.setFont("Times-Roman", 12)#fuente de letra y tama\xc3\xb1o\n\tdoc.drawString(515+x,840+y,qtipo+" "+npront)#para poner texto valores x,y\n\tcanvas.drawString( inch, 0.5*inch, \'Page %d\' % ( doc.page ) )\n    \tcanvas.restoreState()\n\n\t\n\n\n\n\n\n\n\n\n\n\n\n\n\n\n\n\n\n\n\n\n\n\n\n\n\n\t\n\n\t\n\n\n\tdoc.showPage()\n\tdoc.save()\n\tstartfile(pdf)   \n\n\treturn dict()\ndef reporte():\n\tfrom reportlab.platypus import *\n\tfrom reportlab.lib.styles import getSampleStyleSheet\n\tfrom reportlab.rl_config import defaultPageSize\n\tfrom reportlab.lib.units import inch, mm\n\tfrom reportlab.lib.enums import TA_LEFT, TA_RIGHT, TA_CENTER, TA_JUSTIFY\n\tfrom reportlab.lib import colors\n\tfrom uuid import uuid4\n\tfrom cgi import escape\n\timport os\n\tfrom reportlab.lib.utils import ImageReader\n\tdoc.drawImage("d:\\\\web2py\\\\applications\\\\antecedentesplataforma\\\\static\\\\images\\\\escudo1.jpg",50,950,50,50)#insertar imagen\n\n\n    \ttitle = "Certificado CON ANTECEDENTES"\n    \theading = "First Paragraph"\n    \ttext = \'bla \' * 10000\n\t\n\n    \tstyles = getSampleStyleSheet()\n    \ttmpfilename = os.path.join(request.folder, \'private\', str(uuid4()))\n    \tdoc = SimpleDocTemplate(tmpfilename)\n    \tstory = []\n    \tstory.append(Paragraph(escape(title), styles["Title"]))\n    \tstory.append(Paragraph(escape(heading), styles["Heading2"]))\n    \tstory.append(Paragraph(escape(text), styles["Normal"]))\n    \tstory.append(Spacer(1,2 * inch))\n    \tdoc.build(story)\n    \tdata = open(tmpfilename, "rb").read()\n    \tos.unlink(tmpfilename)\n    \tresponse.headers[\'Content-Type\'] = \'application/pdf\'\n    \treturn data\n\n\n\n\n\t\n\n\t\n \n \n\n\t\n\n    \n\t\n\n\n\n\t\n\t\n\n\n\n\n\n\n\n\n\n\n\n\n\n\n\t\n\nresponse._vars=response._caller(con_antecedentes)\n'
p7
sS'snapshot'
p8
(dp9
S'exception'
p10
(dp11
S'__hash__'
p12
S"<method-wrapper '__hash__' of exceptions.AttributeError object>"
p13
sS'__setattr__'
p14
S"<method-wrapper '__setattr__' of exceptions.AttributeError object>"
p15
sS'__reduce_ex__'
p16
S'<built-in method __reduce_ex__ of exceptions.AttributeError object>'
p17
sS'__getslice__'
p18
S"<method-wrapper '__getslice__' of exceptions.AttributeError object>"
p19
sS'__getitem__'
p20
S"<method-wrapper '__getitem__' of exceptions.AttributeError object>"
p21
sS'__setstate__'
p22
S'<built-in method __setstate__ of exceptions.AttributeError object>'
p23
sS'__reduce__'
p24
S'<built-in method __reduce__ of exceptions.AttributeError object>'
p25
sS'__str__'
p26
S"<method-wrapper '__str__' of exceptions.AttributeError object>"
p27
sS'__format__'
p28
S'<built-in method __format__ of exceptions.AttributeError object>'
p29
sS'__getattribute__'
p30
S"<method-wrapper '__getattribute__' of exceptions.AttributeError object>"
p31
sS'__class__'
p32
S"<type 'exceptions.AttributeError'>"
p33
sS'__unicode__'
p34
S'<built-in method __unicode__ of exceptions.AttributeError object>'
p35
sS'__delattr__'
p36
S"<method-wrapper '__delattr__' of exceptions.AttributeError object>"
p37
sS'__subclasshook__'
p38
S'<built-in method __subclasshook__ of type object>'
p39
sS'__repr__'
p40
S"<method-wrapper '__repr__' of exceptions.AttributeError object>"
p41
sS'args'
p42
S'("\'module\' object has no attribute \'drawString\'",)'
p43
sS'__dict__'
p44
S'{}'
p45
sS'__sizeof__'
p46
S'<built-in method __sizeof__ of exceptions.AttributeError object>'
p47
sS'__doc__'
p48
S"'Attribute not found.'"
p49
sS'__init__'
p50
S"<method-wrapper '__init__' of exceptions.AttributeError object>"
p51
sS'__new__'
p52
S'<built-in method __new__ of type object>'
p53
ssS'evalue'
p54
S"'module' object has no attribute 'drawString'"
p55
sS'request'
p56
cgluon.html
XML_unpickle
p57
(S's\x1c_\x00\x00<div><table><tr><td style="font-weight:bold;vertical-align:top;">ajax</td><td style="vertical-align:top;">:</td><td><div>False</div></td></tr><tr><td style="font-weight:bold;vertical-align:top;">application</td><td style="vertical-align:top;">:</td><td><div>antecedentesplataforma</div></td></tr><tr><td style="font-weight:bold;vertical-align:top;">args</td><td style="vertical-align:top;">:</td><td><div><table><tr><td><div>5</div></td></tr><tr><td><div>129575</div></td></tr><tr><td><div>24309604</div></td></tr></table></div></td></tr><tr><td style="font-weight:bold;vertical-align:top;">cid</td><td style="vertical-align:top;">:</td><td><div>None</div></td></tr><tr><td style="font-weight:bold;vertical-align:top;">client</td><td style="vertical-align:top;">:</td><td><div>127.0.0.1</div></td></tr><tr><td style="font-weight:bold;vertical-align:top;">controller</td><td style="vertical-align:top;">:</td><td><div>imprimir</div></td></tr><tr><td style="font-weight:bold;vertical-align:top;">cookies</td><td style="vertical-align:top;">:</td><td><div><table><tr><td style="font-weight:bold;vertical-align:top;">session_id_admin</td><td style="vertical-align:top;">:</td><td><div>127.0.0.1-8cbb7b6a-ab88-49f5-9837-87e2810bfd6e<table><tr><td style="font-weight:bold;vertical-align:top;">comment</td><td style="vertical-align:top;">:</td><td><div></div></td></tr><tr><td style="font-weight:bold;vertical-align:top;">domain</td><td style="vertical-align:top;">:</td><td><div></div></td></tr><tr><td style="font-weight:bold;vertical-align:top;">expires</td><td style="vertical-align:top;">:</td><td><div></div></td></tr><tr><td style="font-weight:bold;vertical-align:top;">httponly</td><td style="vertical-align:top;">:</td><td><div></div></td></tr><tr><td style="font-weight:bold;vertical-align:top;">max-age</td><td style="vertical-align:top;">:</td><td><div></div></td></tr><tr><td style="font-weight:bold;vertical-align:top;">path</td><td style="vertical-align:top;">:</td><td><div></div></td></tr><tr><td style="font-weight:bold;vertical-align:top;">secure</td><td style="vertical-align:top;">:</td><td><div></div></td></tr><tr><td style="font-weight:bold;vertical-align:top;">version</td><td style="vertical-align:top;">:</td><td><div></div></td></tr></table></div></td></tr><tr><td style="font-weight:bold;vertical-align:top;">session_id_antecedentesplataforma</td><td style="vertical-align:top;">:</td><td><div>127.0.0.1-a7ad7e13-9312-449e-a93c-892e466467a5<table><tr><td style="font-weight:bold;vertical-align:top;">comment</td><td style="vertical-align:top;">:</td><td><div></div></td></tr><tr><td style="font-weight:bold;vertical-align:top;">domain</td><td style="vertical-align:top;">:</td><td><div></div></td></tr><tr><td style="font-weight:bold;vertical-align:top;">expires</td><td style="vertical-align:top;">:</td><td><div></div></td></tr><tr><td style="font-weight:bold;vertical-align:top;">httponly</td><td style="vertical-align:top;">:</td><td><div></div></td></tr><tr><td style="font-weight:bold;vertical-align:top;">max-age</td><td style="vertical-align:top;">:</td><td><div></div></td></tr><tr><td style="font-weight:bold;vertical-align:top;">path</td><td style="vertical-align:top;">:</td><td><div></div></td></tr><tr><td style="font-weight:bold;vertical-align:top;">secure</td><td style="vertical-align:top;">:</td><td><div></div></td></tr><tr><td style="font-weight:bold;vertical-align:top;">version</td><td style="vertical-align:top;">:</td><td><div></div></td></tr></table></div></td></tr><tr><td style="font-weight:bold;vertical-align:top;">session_id_welcome</td><td style="vertical-align:top;">:</td><td><div>127.0.0.1-2738d90e-05b6-459b-902e-d6a52c10cdb3<table><tr><td style="font-weight:bold;vertical-align:top;">comment</td><td style="vertical-align:top;">:</td><td><div></div></td></tr><tr><td style="font-weight:bold;vertical-align:top;">domain</td><td style="vertical-align:top;">:</td><td><div></div></td></tr><tr><td style="font-weight:bold;vertical-align:top;">expires</td><td style="vertical-align:top;">:</td><td><div></div></td></tr><tr><td style="font-weight:bold;vertical-align:top;">httponly</td><td style="vertical-align:top;">:</td><td><div></div></td></tr><tr><td style="font-weight:bold;vertical-align:top;">max-age</td><td style="vertical-align:top;">:</td><td><div></div></td></tr><tr><td style="font-weight:bold;vertical-align:top;">path</td><td style="vertical-align:top;">:</td><td><div></div></td></tr><tr><td style="font-weight:bold;vertical-align:top;">secure</td><td style="vertical-align:top;">:</td><td><div></div></td></tr><tr><td style="font-weight:bold;vertical-align:top;">version</td><td style="vertical-align:top;">:</td><td><div></div></td></tr></table></div></td></tr></table></div></td></tr><tr><td style="font-weight:bold;vertical-align:top;">env</td><td style="vertical-align:top;">:</td><td><div><table><tr><td style="font-weight:bold;vertical-align:top;">HTTP_ACCEPT</td><td style="vertical-align:top;">:</td><td><div>text/html,application/xhtml+xml,application/xml;q=0.9,image/webp,image/apng,*/*;q=0.8,application/signed-exchange;v=b3</div></td></tr><tr><td style="font-weight:bold;vertical-align:top;">HTTP_ACCEPT_ENCODING</td><td style="vertical-align:top;">:</td><td><div>gzip, deflate, br</div></td></tr><tr><td style="font-weight:bold;vertical-align:top;">HTTP_ACCEPT_LANGUAGE</td><td style="vertical-align:top;">:</td><td><div>es-ES,es;q=0.9,en;q=0.8</div></td></tr><tr><td style="font-weight:bold;vertical-align:top;">HTTP_CACHE_CONTROL</td><td style="vertical-align:top;">:</td><td><div>max-age=0</div></td></tr><tr><td style="font-weight:bold;vertical-align:top;">HTTP_CONNECTION</td><td style="vertical-align:top;">:</td><td><div>keep-alive</div></td></tr><tr><td style="font-weight:bold;vertical-align:top;">HTTP_COOKIE</td><td style="vertical-align:top;">:</td><td><div>session_id_welcome=127.0.0.1-2738d90e-05b6-459b-902e-d6a52c10cdb3; session_id_admin=127.0.0.1-8cbb7b6a-ab88-49f5-9837-87e2810bfd6e; session_id_antecedentesplataforma=127.0.0.1-a7ad7e13-9312-449e-a93c-892e466467a5</div></td></tr><tr><td style="font-weight:bold;vertical-align:top;">HTTP_HOST</td><td style="vertical-align:top;">:</td><td><div>127.0.0.1:8000</div></td></tr><tr><td style="font-weight:bold;vertical-align:top;">HTTP_REFERER</td><td style="vertical-align:top;">:</td><td><div>http://127.0.0.1:8000/antecedentesplataforma/confeccion/pre_imprimir/5/129575/24309604</div></td></tr><tr><td style="font-weight:bold;vertical-align:top;">HTTP_UPGRADE_INSECURE_REQUESTS</td><td style="vertical-align:top;">:</td><td><div>1</div></td></tr><tr><td style="font-weight:bold;vertical-align:top;">HTTP_USER_AGENT</td><td style="vertical-align:top;">:</td><td><div>Mozilla/5.0 (Windows NT 6.1) AppleWebKit/537.36 (KHTML, like Gecko) Chrome/74.0.3729.157 Safari/537.36</div></td></tr><tr><td style="font-weight:bold;vertical-align:top;">PATH_INFO</td><td style="vertical-align:top;">:</td><td><div>/antecedentesplataforma/imprimir/con_antecedentes/5/129575/24309604</div></td></tr><tr><td style="font-weight:bold;vertical-align:top;">QUERY_STRING</td><td style="vertical-align:top;">:</td><td><div></div></td></tr><tr><td style="font-weight:bold;vertical-align:top;">REMOTE_ADDR</td><td style="vertical-align:top;">:</td><td><div>127.0.0.1</div></td></tr><tr><td style="font-weight:bold;vertical-align:top;">REMOTE_PORT</td><td style="vertical-align:top;">:</td><td><div>6863</div></td></tr><tr><td style="font-weight:bold;vertical-align:top;">REQUEST_METHOD</td><td style="vertical-align:top;">:</td><td><div>GET</div></td></tr><tr><td style="font-weight:bold;vertical-align:top;">SCRIPT_NAME</td><td style="vertical-align:top;">:</td><td><div></div></td></tr><tr><td style="font-weight:bold;vertical-align:top;">SERVER_NAME</td><td style="vertical-align:top;">:</td><td><div>HaTaK3-PC</div></td></tr><tr><td style="font-weight:bold;vertical-align:top;">SERVER_PORT</td><td style="vertical-align:top;">:</td><td><div>8000</div></td></tr><tr><td style="font-weight:bold;vertical-align:top;">SERVER_PROTOCOL</td><td style="vertical-align:top;">:</td><td><div>HTTP/1.1</div></td></tr><tr><td style="font-weight:bold;vertical-align:top;">SERVER_SOFTWARE</td><td style="vertical-align:top;">:</td><td><div>Rocket 1.2.6</div></td></tr><tr><td style="font-weight:bold;vertical-align:top;">app_folders</td><td style="vertical-align:top;">:</td><td><div>set([&#x27;D:\\\\web2py\\\\applications\\\\admin\\\\&#x27;, &#x27;D:\\\\web2py\\\\applications\\\\welcome\\\\&#x27;, &#x27;D:\\\\web2py\\\\applications\\\\antecedentesplataforma\\\\&#x27;])</div></td></tr><tr><td style="font-weight:bold;vertical-align:top;">applications_parent</td><td style="vertical-align:top;">:</td><td><div>D:\\web2py</div></td></tr><tr><td style="font-weight:bold;vertical-align:top;">cmd_args</td><td style="vertical-align:top;">:</td><td><div><table></table></div></td></tr><tr><td style="font-weight:bold;vertical-align:top;">cmd_options</td><td style="vertical-align:top;">:</td><td><div>&lt;Values at 0x26edd50: {&#x27;verbose&#x27;: False, &#x27;ip&#x27;: &#x27;127.0.0.1&#x27;, &#x27;debuglevel&#x27;: 30, &#x27;with_scheduler&#x27;: False, &#x27;shutdown_timeout&#x27;: 5, &#x27;taskbar&#x27;: False, &#x27;with_coverage&#x27;: False, &#x27;pid_filename&#x27;: &#x27;httpserver.pid&#x27;, &#x27;maxthreads&#x27;: None, &#x27;softcron&#x27;: False, &#x27;server_name&#x27;: &#x27;HaTaK3-PC&#x27;, &#x27;bpython&#x27;: False, &#x27;nogui&#x27;: False, &#x27;port&#x27;: 8000, &#x27;print_errors&#x27;: False, &#x27;extcron&#x27;: False, &#x27;runcron&#x27;: False, &#x27;run_system_tests&#x27;: False, &#x27;test&#x27;: None, &#x27;folder&#x27;: &#x27;D:\\\\web2py&#x27;, &#x27;config&#x27;: &#x27;&#x27;, &#x27;minthreads&#x27;: None, &#x27;shell&#x27;: None, &#x27;run&#x27;: &#x27;&#x27;, &#x27;log_filename&#x27;: &#x27;httpserver.log&#x27;, &#x27;profiler_dir&#x27;: None, &#x27;args&#x27;: [&#x27;&#x27;], &#x27;socket_timeout&#x27;: 5, &#x27;ssl_ca_certificate&#x27;: None, &#x27;scheduler&#x27;: None, &#x27;interfaces&#x27;: None, &#x27;ssl_private_key&#x27;: &#x27;&#x27;, &#x27;gae&#x27;: None, &#x27;password&#x27;: &#x27;******&#x27;, &#x27;request_queue_size&#x27;: 5, &#x27;ssl_certificate&#x27;: &#x27;&#x27;, &#x27;cronjob&#x27;: False, &#x27;numthreads&#x27;: None, &#x27;quiet&#x27;: False, &#x27;import_models&#x27;: False, &#x27;timeout&#x27;: 10, &#x27;plain&#x27;: False, &#x27;nobanner&#x27;: False}&gt;</div></td></tr><tr><td style="font-weight:bold;vertical-align:top;">db_sessions</td><td style="vertical-align:top;">:</td><td><div>set([])</div></td></tr><tr><td style="font-weight:bold;vertical-align:top;">debugging</td><td style="vertical-align:top;">:</td><td><div>False</div></td></tr><tr><td style="font-weight:bold;vertical-align:top;">gluon_parent</td><td style="vertical-align:top;">:</td><td><div>D:\\web2py</div></td></tr><tr><td style="font-weight:bold;vertical-align:top;">http_accept</td><td style="vertical-align:top;">:</td><td><div>text/html,application/xhtml+xml,application/xml;q=0.9,image/webp,image/apng,*/*;q=0.8,application/signed-exchange;v=b3</div></td></tr><tr><td style="font-weight:bold;vertical-align:top;">http_accept_encoding</td><td style="vertical-align:top;">:</td><td><div>gzip, deflate, br</div></td></tr><tr><td style="font-weight:bold;vertical-align:top;">http_accept_language</td><td style="vertical-align:top;">:</td><td><div>es-ES,es;q=0.9,en;q=0.8</div></td></tr><tr><td style="font-weight:bold;vertical-align:top;">http_cache_control</td><td style="vertical-align:top;">:</td><td><div>max-age=0</div></td></tr><tr><td style="font-weight:bold;vertical-align:top;">http_connection</td><td style="vertical-align:top;">:</td><td><div>keep-alive</div></td></tr><tr><td style="font-weight:bold;vertical-align:top;">http_cookie</td><td style="vertical-align:top;">:</td><td><div>session_id_welcome=127.0.0.1-2738d90e-05b6-459b-902e-d6a52c10cdb3; session_id_admin=127.0.0.1-8cbb7b6a-ab88-49f5-9837-87e2810bfd6e; session_id_antecedentesplataforma=127.0.0.1-a7ad7e13-9312-449e-a93c-892e466467a5</div></td></tr><tr><td style="font-weight:bold;vertical-align:top;">http_host</td><td style="vertical-align:top;">:</td><td><div>127.0.0.1:8000</div></td></tr><tr><td style="font-weight:bold;vertical-align:top;">http_referer</td><td style="vertical-align:top;">:</td><td><div>http://127.0.0.1:8000/antecedentesplataforma/confeccion/pre_imprimir/5/129575/24309604</div></td></tr><tr><td style="font-weight:bold;vertical-align:top;">http_upgrade_insecure_requests</td><td style="vertical-align:top;">:</td><td><div>1</div></td></tr><tr><td style="font-weight:bold;vertical-align:top;">http_user_agent</td><td style="vertical-align:top;">:</td><td><div>Mozilla/5.0 (Windows NT 6.1) AppleWebKit/537.36 (KHTML, like Gecko) Chrome/74.0.3729.157 Safari/537.36</div></td></tr><tr><td style="font-weight:bold;vertical-align:top;">is_jython</td><td style="vertical-align:top;">:</td><td><div>False</div></td></tr><tr><td style="font-weight:bold;vertical-align:top;">is_pypy</td><td style="vertical-align:top;">:</td><td><div>False</div></td></tr><tr><td style="font-weight:bold;vertical-align:top;">is_source</td><td style="vertical-align:top;">:</td><td><div>False</div></td></tr><tr><td style="font-weight:bold;vertical-align:top;">local_hosts</td><td style="vertical-align:top;">:</td><td><div><table><tr><td><div>HaTaK3-PC</div></td></tr><tr><td><div>10.120.0.69</div></td></tr><tr><td><div>::ffff:127.0.0.1</div></td></tr><tr><td><div>::1</div></td></tr><tr><td><div>fe80::65c7:8cfe:1866:2ddb%12</div></td></tr><tr><td><div>fe80::6de3:fa60:8d1c:59aa%11</div></td></tr><tr><td><div>127.0.0.1</div></td></tr><tr><td><div>192.168.56.1</div></td></tr></table></div></td></tr><tr><td style="font-weight:bold;vertical-align:top;">path_info</td><td style="vertical-align:top;">:</td><td><div>/antecedentesplataforma/imprimir/con_antecedentes/5/129575/24309604</div></td></tr><tr><td style="font-weight:bold;vertical-align:top;">query_string</td><td style="vertical-align:top;">:</td><td><div></div></td></tr><tr><td style="font-weight:bold;vertical-align:top;">remote_addr</td><td style="vertical-align:top;">:</td><td><div>127.0.0.1</div></td></tr><tr><td style="font-weight:bold;vertical-align:top;">remote_port</td><td style="vertical-align:top;">:</td><td><div>6863</div></td></tr><tr><td style="font-weight:bold;vertical-align:top;">request_method</td><td style="vertical-align:top;">:</td><td><div>GET</div></td></tr><tr><td style="font-weight:bold;vertical-align:top;">request_uri</td><td style="vertical-align:top;">:</td><td><div>/antecedentesplataforma/imprimir/con_antecedentes/5/129575/24309604</div></td></tr><tr><td style="font-weight:bold;vertical-align:top;">script_name</td><td style="vertical-align:top;">:</td><td><div></div></td></tr><tr><td style="font-weight:bold;vertical-align:top;">server_name</td><td style="vertical-align:top;">:</td><td><div>HaTaK3-PC</div></td></tr><tr><td style="font-weight:bold;vertical-align:top;">server_port</td><td style="vertical-align:top;">:</td><td><div>8000</div></td></tr><tr><td style="font-weight:bold;vertical-align:top;">server_protocol</td><td style="vertical-align:top;">:</td><td><div>HTTP/1.1</div></td></tr><tr><td style="font-weight:bold;vertical-align:top;">server_software</td><td style="vertical-align:top;">:</td><td><div>Rocket 1.2.6</div></td></tr><tr><td style="font-weight:bold;vertical-align:top;">web2py_path</td><td style="vertical-align:top;">:</td><td><div>D:\\web2py</div></td></tr><tr><td style="font-weight:bold;vertical-align:top;">web2py_version</td><td style="vertical-align:top;">:</td><td><div>2.14.6-stable+timestamp.2016.05.10.00.21.47</div></td></tr><tr><td style="font-weight:bold;vertical-align:top;">wsgi.errors</td><td style="vertical-align:top;">:</td><td><div>&lt;open file &#x27;&lt;stderr&gt;&#x27;, mode &#x27;w&#x27; at 0x011BD0D0&gt;</div></td></tr><tr><td style="font-weight:bold;vertical-align:top;">wsgi.file_wrapper</td><td style="vertical-align:top;">:</td><td><div>&lt;class wsgiref.util.FileWrapper at 0x027EE4C8&gt;</div></td></tr><tr><td style="font-weight:bold;vertical-align:top;">wsgi.input</td><td style="vertical-align:top;">:</td><td><div>&lt;socket._fileobject object at 0x03109970&gt;</div></td></tr><tr><td style="font-weight:bold;vertical-align:top;">wsgi.multiprocess</td><td style="vertical-align:top;">:</td><td><div>False</div></td></tr><tr><td style="font-weight:bold;vertical-align:top;">wsgi.multithread</td><td style="vertical-align:top;">:</td><td><div>True</div></td></tr><tr><td style="font-weight:bold;vertical-align:top;">wsgi.run_once</td><td style="vertical-align:top;">:</td><td><div>False</div></td></tr><tr><td style="font-weight:bold;vertical-align:top;">wsgi.url_scheme</td><td style="vertical-align:top;">:</td><td><div>http</div></td></tr><tr><td style="font-weight:bold;vertical-align:top;">wsgi.version</td><td style="vertical-align:top;">:</td><td><div><table><tr><td><div>1</div></td></tr><tr><td><div>0</div></td></tr></table></div></td></tr><tr><td style="font-weight:bold;vertical-align:top;">wsgi_errors</td><td style="vertical-align:top;">:</td><td><div>&lt;open file &#x27;&lt;stderr&gt;&#x27;, mode &#x27;w&#x27; at 0x011BD0D0&gt;</div></td></tr><tr><td style="font-weight:bold;vertical-align:top;">wsgi_file_wrapper</td><td style="vertical-align:top;">:</td><td><div>&lt;class wsgiref.util.FileWrapper at 0x027EE4C8&gt;</div></td></tr><tr><td style="font-weight:bold;vertical-align:top;">wsgi_input</td><td style="vertical-align:top;">:</td><td><div>&lt;socket._fileobject object at 0x03109970&gt;</div></td></tr><tr><td style="font-weight:bold;vertical-align:top;">wsgi_multiprocess</td><td style="vertical-align:top;">:</td><td><div>False</div></td></tr><tr><td style="font-weight:bold;vertical-align:top;">wsgi_multithread</td><td style="vertical-align:top;">:</td><td><div>True</div></td></tr><tr><td style="font-weight:bold;vertical-align:top;">wsgi_run_once</td><td style="vertical-align:top;">:</td><td><div>False</div></td></tr><tr><td style="font-weight:bold;vertical-align:top;">wsgi_url_scheme</td><td style="vertical-align:top;">:</td><td><div>http</div></td></tr><tr><td style="font-weight:bold;vertical-align:top;">wsgi_version</td><td style="vertical-align:top;">:</td><td><div><table><tr><td><div>1</div></td></tr><tr><td><div>0</div></td></tr></table></div></td></tr></table></div></td></tr><tr><td style="font-weight:bold;vertical-align:top;">extension</td><td style="vertical-align:top;">:</td><td><div>html</div></td></tr><tr><td style="font-weight:bold;vertical-align:top;">folder</td><td style="vertical-align:top;">:</td><td><div>D:\\web2py\\applications\\antecedentesplataforma\\</div></td></tr><tr><td style="font-weight:bold;vertical-align:top;">function</td><td style="vertical-align:top;">:</td><td><div>con_antecedentes</div></td></tr><tr><td style="font-weight:bold;vertical-align:top;">global_settings</td><td style="vertical-align:top;">:</td><td><div><table><tr><td style="font-weight:bold;vertical-align:top;">app_folders</td><td style="vertical-align:top;">:</td><td><div>set([&#x27;D:\\\\web2py\\\\applications\\\\admin\\\\&#x27;, &#x27;D:\\\\web2py\\\\applications\\\\welcome\\\\&#x27;, &#x27;D:\\\\web2py\\\\applications\\\\antecedentesplataforma\\\\&#x27;])</div></td></tr><tr><td style="font-weight:bold;vertical-align:top;">applications_parent</td><td style="vertical-align:top;">:</td><td><div>D:\\web2py</div></td></tr><tr><td style="font-weight:bold;vertical-align:top;">cmd_args</td><td style="vertical-align:top;">:</td><td><div><table></table></div></td></tr><tr><td style="font-weight:bold;vertical-align:top;">cmd_options</td><td style="vertical-align:top;">:</td><td><div>&lt;Values at 0x26edd50: {&#x27;verbose&#x27;: False, &#x27;ip&#x27;: &#x27;127.0.0.1&#x27;, &#x27;debuglevel&#x27;: 30, &#x27;with_scheduler&#x27;: False, &#x27;shutdown_timeout&#x27;: 5, &#x27;taskbar&#x27;: False, &#x27;with_coverage&#x27;: False, &#x27;pid_filename&#x27;: &#x27;httpserver.pid&#x27;, &#x27;maxthreads&#x27;: None, &#x27;softcron&#x27;: False, &#x27;server_name&#x27;: &#x27;HaTaK3-PC&#x27;, &#x27;bpython&#x27;: False, &#x27;nogui&#x27;: False, &#x27;port&#x27;: 8000, &#x27;print_errors&#x27;: False, &#x27;extcron&#x27;: False, &#x27;runcron&#x27;: False, &#x27;run_system_tests&#x27;: False, &#x27;test&#x27;: None, &#x27;folder&#x27;: &#x27;D:\\\\web2py&#x27;, &#x27;config&#x27;: &#x27;&#x27;, &#x27;minthreads&#x27;: None, &#x27;shell&#x27;: None, &#x27;run&#x27;: &#x27;&#x27;, &#x27;log_filename&#x27;: &#x27;httpserver.log&#x27;, &#x27;profiler_dir&#x27;: None, &#x27;args&#x27;: [&#x27;&#x27;], &#x27;socket_timeout&#x27;: 5, &#x27;ssl_ca_certificate&#x27;: None, &#x27;scheduler&#x27;: None, &#x27;interfaces&#x27;: None, &#x27;ssl_private_key&#x27;: &#x27;&#x27;, &#x27;gae&#x27;: None, &#x27;password&#x27;: &#x27;******&#x27;, &#x27;request_queue_size&#x27;: 5, &#x27;ssl_certificate&#x27;: &#x27;&#x27;, &#x27;cronjob&#x27;: False, &#x27;numthreads&#x27;: None, &#x27;quiet&#x27;: False, &#x27;import_models&#x27;: False, &#x27;timeout&#x27;: 10, &#x27;plain&#x27;: False, &#x27;nobanner&#x27;: False}&gt;</div></td></tr><tr><td style="font-weight:bold;vertical-align:top;">db_sessions</td><td style="vertical-align:top;">:</td><td><div>set([])</div></td></tr><tr><td style="font-weight:bold;vertical-align:top;">debugging</td><td style="vertical-align:top;">:</td><td><div>False</div></td></tr><tr><td style="font-weight:bold;vertical-align:top;">gluon_parent</td><td style="vertical-align:top;">:</td><td><div>D:\\web2py</div></td></tr><tr><td style="font-weight:bold;vertical-align:top;">is_jython</td><td style="vertical-align:top;">:</td><td><div>False</div></td></tr><tr><td style="font-weight:bold;vertical-align:top;">is_pypy</td><td style="vertical-align:top;">:</td><td><div>False</div></td></tr><tr><td style="font-weight:bold;vertical-align:top;">is_source</td><td style="vertical-align:top;">:</td><td><div>False</div></td></tr><tr><td style="font-weight:bold;vertical-align:top;">local_hosts</td><td style="vertical-align:top;">:</td><td><div><table><tr><td><div>HaTaK3-PC</div></td></tr><tr><td><div>10.120.0.69</div></td></tr><tr><td><div>::ffff:127.0.0.1</div></td></tr><tr><td><div>::1</div></td></tr><tr><td><div>fe80::65c7:8cfe:1866:2ddb%12</div></td></tr><tr><td><div>fe80::6de3:fa60:8d1c:59aa%11</div></td></tr><tr><td><div>127.0.0.1</div></td></tr><tr><td><div>192.168.56.1</div></td></tr></table></div></td></tr><tr><td style="font-weight:bold;vertical-align:top;">web2py_version</td><td style="vertical-align:top;">:</td><td><div>2.14.6-stable+timestamp.2016.05.10.00.21.47</div></td></tr></table></div></td></tr><tr><td style="font-weight:bold;vertical-align:top;">is_https</td><td style="vertical-align:top;">:</td><td><div>False</div></td></tr><tr><td style="font-weight:bold;vertical-align:top;">is_local</td><td style="vertical-align:top;">:</td><td><div>True</div></td></tr><tr><td style="font-weight:bold;vertical-align:top;">is_restful</td><td style="vertical-align:top;">:</td><td><div>False</div></td></tr><tr><td style="font-weight:bold;vertical-align:top;">is_scheduler</td><td style="vertical-align:top;">:</td><td><div>False</div></td></tr><tr><td style="font-weight:bold;vertical-align:top;">is_shell</td><td style="vertical-align:top;">:</td><td><div>False</div></td></tr><tr><td style="font-weight:bold;vertical-align:top;">now</td><td style="vertical-align:top;">:</td><td><div>datetime.datetime(2019, 5, 20, 9, 43, 33, 622000)</div></td></tr><tr><td style="font-weight:bold;vertical-align:top;">raw_args</td><td style="vertical-align:top;">:</td><td><div>5/129575/24309604</div></td></tr><tr><td style="font-weight:bold;vertical-align:top;">raw_extension</td><td style="vertical-align:top;">:</td><td><div>None</div></td></tr><tr><td style="font-weight:bold;vertical-align:top;">url</td><td style="vertical-align:top;">:</td><td><div>/antecedentesplataforma/imprimir/con_antecedentes/5/129575/24309604</div></td></tr><tr><td style="font-weight:bold;vertical-align:top;">utcnow</td><td style="vertical-align:top;">:</td><td><div>datetime.datetime(2019, 5, 20, 12, 43, 33, 622000)</div></td></tr><tr><td style="font-weight:bold;vertical-align:top;">wsgi</td><td style="vertical-align:top;">:</td><td><div>&lt;gluon.main.LazyWSGI object at 0x077244D0&gt;</div></td></tr></table></div>'
tRp58
sS'frames'
p59
(lp60
(dp61
S'file'
p62
S'D:\\web2py\\gluon\\restricted.py'
p63
sS'dump'
p64
(dp65
S'environment'
p66
S"{'A': <class 'gluon.html.A'>, 'ANY_OF': <class 'gluon.validators.ANY_OF'>, 'ASSIGNJS': <function ASSIGNJS>, 'AppConfig': <function AppConfig>, 'Auth': <class 'gluon.tools.Auth'>, 'B': <class 'gluon.html.B'>, 'BEAUTIFY': <class 'gluon.html.BEAUTIFY'>, 'BODY': <class 'gluon.html.BODY'>, 'BR': <class 'gluon.html.BR'>, 'BUTTON': <class 'gluon.html.BUTTON'>, ...}"
p67
sS'ccode'
p68
S'<code object <module> at 030F8A40, file "D:\\web2...entesplataforma\\controllers/imprimir.py", line 2>'
p69
ssS'lnum'
p70
I227
sS'lines'
p71
(dp72
I224
S'            ccode = code'
p73
sI225
S'        else:'
p74
sI226
S'            ccode = compile2(code, layer)'
p75
sI227
S'        exec ccode in environment'
p76
sI228
S'    except HTTP:'
p77
sI229
S'        raise'
p78
sI230
S'    except RestrictedError:'
p79
sI231
S'        # do not encapsulate (obfuscate) the original RestrictedError'
p80
sI222
S'    try:'
p81
sI223
S'        if isinstance(code, types.CodeType):'
p82
ssS'call'
p83
S"(code='\\nfrom reportlab.pdfgen import canvas\\n\\ndef sin_an...esponse._vars=response._caller(con_antecedentes)\\n', environment={'A': <class 'gluon.html.A'>, 'ANY_OF': <class 'gluon.validators.ANY_OF'>, 'ASSIGNJS': <function ASSIGNJS>, 'AppConfig': <function AppConfig>, 'Auth': <class 'gluon.tools.Auth'>, 'B': <class 'gluon.html.B'>, 'BEAUTIFY': <class 'gluon.html.BEAUTIFY'>, 'BODY': <class 'gluon.html.BODY'>, 'BR': <class 'gluon.html.BR'>, 'BUTTON': <class 'gluon.html.BUTTON'>, ...}, layer=r'D:\\web2py\\applications\\antecedentesplataforma\\controllers/imprimir.py')"
p84
sS'func'
p85
S'restricted'
p86
sa(dp87
g62
S'D:\\web2py\\applications\\antecedentesplataforma\\controllers\\imprimir.py'
p88
sg64
(dp89
sg70
I361
sg71
(dp90
I352
S''
sI353
S''
sI354
S''
sI355
S''
sI356
S''
sI357
S''
sI358
S''
sI359
S''
sI350
S''
sI351
S''
ssg83
S'()'
p91
sg85
S'<module>'
p92
sa(dp93
g62
S'D:\\web2py\\gluon\\globals.py'
p94
sg64
(dp95
S'self'
p96
S'undefined'
p97
sS'f'
S'<function con_antecedentes>'
p98
ssg70
I417
sg71
(dp99
I416
S'        self._vars = None'
p100
sI417
S'        self._caller = lambda f: f()'
p101
sI418
S'        self._view_environment = None'
p102
sI419
S'        self._custom_commit = None'
p103
sI420
S'        self._custom_rollback = None'
p104
sI421
S"        self.generic_patterns = ['*']"
p105
sI412
S"        self.flash = ''            # used by the default view layout"
p106
sI413
S'        self.meta = Storage()      # used by web2py_ajax.html'
p107
sI414
S'        self.menu = []             # used by the default view layout'
p108
sI415
S'        self.files = []            # used by web2py_ajax.html'
p109
ssg83
S'(f=<function con_antecedentes>)'
p110
sg85
S'<lambda>'
p111
sa(dp112
g62
S'D:\\web2py\\applications\\antecedentesplataforma\\controllers\\imprimir.py'
p113
sg64
(dp114
S'qtipo'
p115
S"'A.G.'"
p116
sS'doc.drawString'
p117
S'<bound method Canvas.drawString of <reportlab.pdfgen.canvas.Canvas instance>>'
p118
sS'doc'
p119
S'<reportlab.pdfgen.canvas.Canvas instance>'
p120
sS'npront'
p121
S"'170368'"
p122
sS'y'
S'0.0'
p123
sS'x'
S'0.0'
p124
ssg70
I255
sg71
(dp125
I256
S'    \tcanvas.restoreState()'
p126
sI257
S''
sI258
S''
sI259
S''
sI250
S'\tdoc.drawString(80+x,855+y,direc+", ")#para poner texto valores x,y'
p127
sI251
S'\tdoc.setFont("Times-Roman", 12)#fuente de letra y tama\xc3\xb1o'
p128
sI252
S'\tdoc.drawString(80+x,840+y,"SE ENCUENTRA IDENTIFICADO/A EN ESTA POLICIA, BAJO EL PROMTUARIO: ")#para poner texto valores x,y'
p129
sI253
S'\tdoc.setFont("Times-Roman", 12)#fuente de letra y tama\xc3\xb1o'
p130
sI254
S'\tdoc.drawString(515+x,840+y,qtipo+" "+npront)#para poner texto valores x,y'
p131
sI255
S"\tcanvas.drawString( inch, 0.5*inch, 'Page %d' % ( doc.page ) )"
p132
ssg83
S'()'
p133
sg85
S'con_antecedentes'
p134
sasS'pyver'
p135
S'Python 2.7.9: D:\\web2py\\web2py.exe (prefix: )'
p136
sS'session'
p137
g57
(S's\x17\x0c\x00\x00<div><table><tr><td style="font-weight:bold;vertical-align:top;">auth</td><td style="vertical-align:top;">:</td><td><div><table><tr><td style="font-weight:bold;vertical-align:top;">expiration</td><td style="vertical-align:top;">:</td><td><div>3600</div></td></tr><tr><td style="font-weight:bold;vertical-align:top;">hmac_key</td><td style="vertical-align:top;">:</td><td><div>48a12c86-5084-4b01-b563-acd5cee0336a</div></td></tr><tr><td style="font-weight:bold;vertical-align:top;">last_visit</td><td style="vertical-align:top;">:</td><td><div>datetime.datetime(2019, 5, 20, 9, 43, 33, 622000)</div></td></tr><tr><td style="font-weight:bold;vertical-align:top;">remember_me</td><td style="vertical-align:top;">:</td><td><div>False</div></td></tr><tr><td style="font-weight:bold;vertical-align:top;">user</td><td style="vertical-align:top;">:</td><td><div><table><tr><td style="font-weight:bold;vertical-align:top;">dni</td><td style="vertical-align:top;">:</td><td><div>29917029</div></td></tr><tr><td style="font-weight:bold;vertical-align:top;">email</td><td style="vertical-align:top;">:</td><td><div>juan@ulivar.com</div></td></tr><tr><td style="font-weight:bold;vertical-align:top;">first_name</td><td style="vertical-align:top;">:</td><td><div>juan</div></td></tr><tr><td style="font-weight:bold;vertical-align:top;">id</td><td style="vertical-align:top;">:</td><td><div>1L</div></td></tr><tr><td style="font-weight:bold;vertical-align:top;">iniciales</td><td style="vertical-align:top;">:</td><td><div>J.U.</div></td></tr><tr><td style="font-weight:bold;vertical-align:top;">last_name</td><td style="vertical-align:top;">:</td><td><div>ulivar</div></td></tr><tr><td style="font-weight:bold;vertical-align:top;">oficina</td><td style="vertical-align:top;">:</td><td><div>Super</div></td></tr><tr><td style="font-weight:bold;vertical-align:top;">registration_id</td><td style="vertical-align:top;">:</td><td><div></div></td></tr><tr><td style="font-weight:bold;vertical-align:top;">registration_key</td><td style="vertical-align:top;">:</td><td><div></div></td></tr><tr><td style="font-weight:bold;vertical-align:top;">reset_password_key</td><td style="vertical-align:top;">:</td><td><div></div></td></tr><tr><td style="font-weight:bold;vertical-align:top;">username</td><td style="vertical-align:top;">:</td><td><div>uli</div></td></tr></table></div></td></tr><tr><td style="font-weight:bold;vertical-align:top;">user_groups</td><td style="vertical-align:top;">:</td><td><div><table><tr><td style="font-weight:bold;vertical-align:top;">1</td><td style="vertical-align:top;">:</td><td><div>Super</div></td></tr></table></div></td></tr></table></div></td></tr><tr><td style="font-weight:bold;vertical-align:top;">flash</td><td style="vertical-align:top;">:</td><td><div>None</div></td></tr><tr><td style="font-weight:bold;vertical-align:top;">last_orderby</td><td style="vertical-align:top;">:</td><td><div>None</div></td></tr><tr><td style="font-weight:bold;vertical-align:top;">last_query</td><td style="vertical-align:top;">:</td><td><div>db.solicitud.id&gt;0</div></td></tr></table></div>'
tRp138
sS'etype'
p139
S"<type 'exceptions.AttributeError'>"
p140
sS'date'
p141
S'Mon May 20 09:43:33 2019'
p142
sS'response'
p143
g57
(S's\xe3@\x00\x00<div><table><tr><td style="font-weight:bold;vertical-align:top;">body</td><td style="vertical-align:top;">:</td><td><div>&lt;cStringIO.StringO object at 0x03DBD680&gt;</div></td></tr><tr><td style="font-weight:bold;vertical-align:top;">cookies</td><td style="vertical-align:top;">:</td><td><div><table><tr><td style="font-weight:bold;vertical-align:top;">session_id_antecedentesplataforma</td><td style="vertical-align:top;">:</td><td><div>127.0.0.1-a7ad7e13-9312-449e-a93c-892e466467a5<table><tr><td style="font-weight:bold;vertical-align:top;">comment</td><td style="vertical-align:top;">:</td><td><div></div></td></tr><tr><td style="font-weight:bold;vertical-align:top;">domain</td><td style="vertical-align:top;">:</td><td><div></div></td></tr><tr><td style="font-weight:bold;vertical-align:top;">expires</td><td style="vertical-align:top;">:</td><td><div></div></td></tr><tr><td style="font-weight:bold;vertical-align:top;">httponly</td><td style="vertical-align:top;">:</td><td><div></div></td></tr><tr><td style="font-weight:bold;vertical-align:top;">max-age</td><td style="vertical-align:top;">:</td><td><div></div></td></tr><tr><td style="font-weight:bold;vertical-align:top;">path</td><td style="vertical-align:top;">:</td><td><div>/</div></td></tr><tr><td style="font-weight:bold;vertical-align:top;">secure</td><td style="vertical-align:top;">:</td><td><div></div></td></tr><tr><td style="font-weight:bold;vertical-align:top;">version</td><td style="vertical-align:top;">:</td><td><div></div></td></tr></table></div></td></tr></table></div></td></tr><tr><td style="font-weight:bold;vertical-align:top;">delimiters</td><td style="vertical-align:top;">:</td><td><div><table><tr><td><div>{{</div></td></tr><tr><td><div>}}</div></td></tr></table></div></td></tr><tr><td style="font-weight:bold;vertical-align:top;">files</td><td style="vertical-align:top;">:</td><td><div><table></table></div></td></tr><tr><td style="font-weight:bold;vertical-align:top;">flash</td><td style="vertical-align:top;">:</td><td><div></div></td></tr><tr><td style="font-weight:bold;vertical-align:top;">form_label_separator</td><td style="vertical-align:top;">:</td><td><div></div></td></tr><tr><td style="font-weight:bold;vertical-align:top;">formstyle</td><td style="vertical-align:top;">:</td><td><div>bootstrap3_inline</div></td></tr><tr><td style="font-weight:bold;vertical-align:top;">generic_patterns</td><td style="vertical-align:top;">:</td><td><div><table><tr><td><div>*</div></td></tr></table></div></td></tr><tr><td style="font-weight:bold;vertical-align:top;">google_analytics_id</td><td style="vertical-align:top;">:</td><td><div>None</div></td></tr><tr><td style="font-weight:bold;vertical-align:top;">headers</td><td style="vertical-align:top;">:</td><td><div><table><tr><td style="font-weight:bold;vertical-align:top;">X-Powered-By</td><td style="vertical-align:top;">:</td><td><div>web2py</div></td></tr></table></div></td></tr><tr><td style="font-weight:bold;vertical-align:top;">logo</td><td style="vertical-align:top;">:</td><td><div><a class="navbar-brand" href="http://www.web2py.com/" id="web2py-logo"><b>web<span>2</span>py</b>&trade;&nbsp;</a></div></td></tr><tr><td style="font-weight:bold;vertical-align:top;">menu</td><td style="vertical-align:top;">:</td><td><div><table><tr><td><div><table><tr><td><div>Inicio</div></td></tr><tr><td><div>False</div></td></tr><tr><td><div>/antecedentesplataforma/default/index</div></td></tr><tr><td><div><table></table></div></td></tr></table></div></td></tr><tr><td><div><table><tr><td><div>Mis Sitios</div></td></tr><tr><td><div>False</div></td></tr><tr><td><div>/admin/default/site</div></td></tr></table></div></td></tr><tr><td><div><table><tr><td><div>Esta Aplicaci\xc3\xb3n</div></td></tr><tr><td><div>False</div></td></tr><tr><td><div>#</div></td></tr><tr><td><div><table><tr><td><div><table><tr><td><div>Design</div></td></tr><tr><td><div>False</div></td></tr><tr><td><div>/admin/default/design/antecedentesplataforma</div></td></tr></table></div></td></tr><tr><td><div><li class="divider"></li></div></td></tr><tr><td><div><table><tr><td><div>Controlador</div></td></tr><tr><td><div>False</div></td></tr><tr><td><div>/admin/default/edit/antecedentesplataforma/controllers/imprimir.py</div></td></tr></table></div></td></tr><tr><td><div><table><tr><td><div>Vista</div></td></tr><tr><td><div>False</div></td></tr><tr><td><div>/admin/default/edit/antecedentesplataforma/views/imprimir/con_antecedentes.html</div></td></tr></table></div></td></tr><tr><td><div><table><tr><td><div>Modelo BDD</div></td></tr><tr><td><div>False</div></td></tr><tr><td><div>/admin/default/edit/antecedentesplataforma/models/db.py</div></td></tr></table></div></td></tr><tr><td><div><table><tr><td><div>Modelo "menu"</div></td></tr><tr><td><div>False</div></td></tr><tr><td><div>/admin/default/edit/antecedentesplataforma/models/menu.py</div></td></tr></table></div></td></tr><tr><td><div><table><tr><td><div>Config.ini</div></td></tr><tr><td><div>False</div></td></tr><tr><td><div>/admin/default/edit/antecedentesplataforma/private/appconfig.ini</div></td></tr></table></div></td></tr><tr><td><div><table><tr><td><div>Dise\xc3\xb1o de p\xc3\xa1gina</div></td></tr><tr><td><div>False</div></td></tr><tr><td><div>/admin/default/edit/antecedentesplataforma/views/layout.html</div></td></tr></table></div></td></tr><tr><td><div><table><tr><td><div>Hoja de estilo</div></td></tr><tr><td><div>False</div></td></tr><tr><td><div>/admin/default/edit/antecedentesplataforma/static/css/web2py-bootstrap3.css</div></td></tr></table></div></td></tr><tr><td><div><table><tr><td><div>Base de datos</div></td></tr><tr><td><div>False</div></td></tr><tr><td><div>/antecedentesplataforma/appadmin/index</div></td></tr></table></div></td></tr><tr><td><div><table><tr><td><div>Errores</div></td></tr><tr><td><div>False</div></td></tr><tr><td><div>/admin/default/errors/antecedentesplataforma</div></td></tr></table></div></td></tr><tr><td><div><table><tr><td><div>Acerca de</div></td></tr><tr><td><div>False</div></td></tr><tr><td><div>/admin/default/about/antecedentesplataforma</div></td></tr></table></div></td></tr></table></div></td></tr></table></div></td></tr><tr><td><div><table><tr><td><div>web2py.com</div></td></tr><tr><td><div>False</div></td></tr><tr><td><div>#</div></td></tr><tr><td><div><table><tr><td><div><table><tr><td><div>Descargas</div></td></tr><tr><td><div>False</div></td></tr><tr><td><div>http://www.web2py.com/examples/default/download</div></td></tr></table></div></td></tr><tr><td><div><table><tr><td><div>Soporte</div></td></tr><tr><td><div>False</div></td></tr><tr><td><div>http://www.web2py.com/examples/default/support</div></td></tr></table></div></td></tr><tr><td><div><table><tr><td><div>Demostraci\xc3\xb3n</div></td></tr><tr><td><div>False</div></td></tr><tr><td><div>http://web2py.com/demo_admin</div></td></tr></table></div></td></tr><tr><td><div><table><tr><td><div>Ejemplos R\xc3\xa1pidos</div></td></tr><tr><td><div>False</div></td></tr><tr><td><div>http://web2py.com/examples/default/examples</div></td></tr></table></div></td></tr><tr><td><div><table><tr><td><div>FAQ</div></td></tr><tr><td><div>False</div></td></tr><tr><td><div>http://web2py.com/AlterEgo</div></td></tr></table></div></td></tr><tr><td><div><table><tr><td><div>V\xc3\xaddeos</div></td></tr><tr><td><div>False</div></td></tr><tr><td><div>http://www.web2py.com/examples/default/videos/</div></td></tr></table></div></td></tr><tr><td><div><table><tr><td><div>Aplicaciones Libres</div></td></tr><tr><td><div>False</div></td></tr><tr><td><div>http://web2py.com/appliances</div></td></tr></table></div></td></tr><tr><td><div><table><tr><td><div>Plugins</div></td></tr><tr><td><div>False</div></td></tr><tr><td><div>http://web2py.com/plugins</div></td></tr></table></div></td></tr><tr><td><div><table><tr><td><div>Recetas</div></td></tr><tr><td><div>False</div></td></tr><tr><td><div>http://web2pyslices.com/</div></td></tr></table></div></td></tr></table></div></td></tr></table></div></td></tr><tr><td><div><table><tr><td><div>Documentaci\xc3\xb3n</div></td></tr><tr><td><div>False</div></td></tr><tr><td><div>#</div></td></tr><tr><td><div><table><tr><td><div><table><tr><td><div>Online book</div></td></tr><tr><td><div>False</div></td></tr><tr><td><div>http://www.web2py.com/book</div></td></tr></table></div></td></tr><tr><td><div><li class="divider"></li></div></td></tr><tr><td><div><table><tr><td><div>Prefacio</div></td></tr><tr><td><div>False</div></td></tr><tr><td><div>http://www.web2py.com/book/default/chapter/00</div></td></tr></table></div></td></tr><tr><td><div><table><tr><td><div>Introducci\xc3\xb3n</div></td></tr><tr><td><div>False</div></td></tr><tr><td><div>http://www.web2py.com/book/default/chapter/01</div></td></tr></table></div></td></tr><tr><td><div><table><tr><td><div>Python</div></td></tr><tr><td><div>False</div></td></tr><tr><td><div>http://www.web2py.com/book/default/chapter/02</div></td></tr></table></div></td></tr><tr><td><div><table><tr><td><div>Resumen</div></td></tr><tr><td><div>False</div></td></tr><tr><td><div>http://www.web2py.com/book/default/chapter/03</div></td></tr></table></div></td></tr><tr><td><div><table><tr><td><div>El N\xc3\xbacleo</div></td></tr><tr><td><div>False</div></td></tr><tr><td><div>http://www.web2py.com/book/default/chapter/04</div></td></tr></table></div></td></tr><tr><td><div><table><tr><td><div>Las Vistas</div></td></tr><tr><td><div>False</div></td></tr><tr><td><div>http://www.web2py.com/book/default/chapter/05</div></td></tr></table></div></td></tr><tr><td><div><table><tr><td><div>Base de datos</div></td></tr><tr><td><div>False</div></td></tr><tr><td><div>http://www.web2py.com/book/default/chapter/06</div></td></tr></table></div></td></tr><tr><td><div><table><tr><td><div>Formularios y validadores</div></td></tr><tr><td><div>False</div></td></tr><tr><td><div>http://www.web2py.com/book/default/chapter/07</div></td></tr></table></div></td></tr><tr><td><div><table><tr><td><div>Correo electr\xc3\xb3nico y SMS</div></td></tr><tr><td><div>False</div></td></tr><tr><td><div>http://www.web2py.com/book/default/chapter/08</div></td></tr></table></div></td></tr><tr><td><div><table><tr><td><div>Control de Acceso</div></td></tr><tr><td><div>False</div></td></tr><tr><td><div>http://www.web2py.com/book/default/chapter/09</div></td></tr></table></div></td></tr><tr><td><div><table><tr><td><div>Servicios</div></td></tr><tr><td><div>False</div></td></tr><tr><td><div>http://www.web2py.com/book/default/chapter/10</div></td></tr></table></div></td></tr><tr><td><div><table><tr><td><div>Recetas AJAX</div></td></tr><tr><td><div>False</div></td></tr><tr><td><div>http://www.web2py.com/book/default/chapter/11</div></td></tr></table></div></td></tr><tr><td><div><table><tr><td><div>Componentes y Plugins</div></td></tr><tr><td><div>False</div></td></tr><tr><td><div>http://www.web2py.com/book/default/chapter/12</div></td></tr></table></div></td></tr><tr><td><div><table><tr><td><div>Recetas de despliegue</div></td></tr><tr><td><div>False</div></td></tr><tr><td><div>http://www.web2py.com/book/default/chapter/13</div></td></tr></table></div></td></tr><tr><td><div><table><tr><td><div>Otras Recetas</div></td></tr><tr><td><div>False</div></td></tr><tr><td><div>http://www.web2py.com/book/default/chapter/14</div></td></tr></table></div></td></tr><tr><td><div><table><tr><td><div>Helping web2py</div></td></tr><tr><td><div>False</div></td></tr><tr><td><div>http://www.web2py.com/book/default/chapter/15</div></td></tr></table></div></td></tr><tr><td><div><table><tr><td><div>Buy web2py\'s book</div></td></tr><tr><td><div>False</div></td></tr><tr><td><div>http://stores.lulu.com/web2py</div></td></tr></table></div></td></tr></table></div></td></tr></table></div></td></tr><tr><td><div><table><tr><td><div>Comunidad</div></td></tr><tr><td><div>False</div></td></tr><tr><td><div>None</div></td></tr><tr><td><div><table><tr><td><div><table><tr><td><div>Grupos</div></td></tr><tr><td><div>False</div></td></tr><tr><td><div>http://www.web2py.com/examples/default/usergroups</div></td></tr></table></div></td></tr><tr><td><div><table><tr><td><div>Twitter</div></td></tr><tr><td><div>False</div></td></tr><tr><td><div>http://twitter.com/web2py</div></td></tr></table></div></td></tr><tr><td><div><table><tr><td><div>Chat en vivo</div></td></tr><tr><td><div>False</div></td></tr><tr><td><div>http://webchat.freenode.net/?channels=web2py</div></td></tr></table></div></td></tr></table></div></td></tr></table></div></td></tr></table></div></td></tr><tr><td style="font-weight:bold;vertical-align:top;">meta</td><td style="vertical-align:top;">:</td><td><div><table><tr><td style="font-weight:bold;vertical-align:top;">author</td><td style="vertical-align:top;">:</td><td><div>Your Name &lt;you@example.com&gt;</div></td></tr><tr><td style="font-weight:bold;vertical-align:top;">description</td><td style="vertical-align:top;">:</td><td><div>a cool new app</div></td></tr><tr><td style="font-weight:bold;vertical-align:top;">generator</td><td style="vertical-align:top;">:</td><td><div>Web2py Web Framework</div></td></tr><tr><td style="font-weight:bold;vertical-align:top;">keywords</td><td style="vertical-align:top;">:</td><td><div><table><tr><td><div>web2py</div></td></tr><tr><td><div>python</div></td></tr><tr><td><div>framework</div></td></tr></table></div></td></tr></table></div></td></tr><tr><td style="font-weight:bold;vertical-align:top;">models_to_run</td><td style="vertical-align:top;">:</td><td><div><table><tr><td><div>^\\w+\\.py$</div></td></tr><tr><td><div>^imprimir/\\w+\\.py$</div></td></tr><tr><td><div>^imprimir/con_antecedentes/\\w+\\.py$</div></td></tr></table></div></td></tr><tr><td style="font-weight:bold;vertical-align:top;">postprocessing</td><td style="vertical-align:top;">:</td><td><div><table></table></div></td></tr><tr><td style="font-weight:bold;vertical-align:top;">session_client</td><td style="vertical-align:top;">:</td><td><div>127.0.0.1</div></td></tr><tr><td style="font-weight:bold;vertical-align:top;">session_cookie_compression_level</td><td style="vertical-align:top;">:</td><td><div>None</div></td></tr><tr><td style="font-weight:bold;vertical-align:top;">session_cookie_expires</td><td style="vertical-align:top;">:</td><td><div>None</div></td></tr><tr><td style="font-weight:bold;vertical-align:top;">session_data_name</td><td style="vertical-align:top;">:</td><td><div>session_data_antecedentesplataforma</div></td></tr><tr><td style="font-weight:bold;vertical-align:top;">session_file</td><td style="vertical-align:top;">:</td><td><div>&lt;open file &#x27;D:\\\\web2py\\\\applications\\\\antecedentesplataforma\\\\sessions\\\\073\\\\1e4\\\\127.0.0.1-a7ad7e13-9312-449e-a93c-892e466467a5&#x27;, mode &#x27;rb+&#x27; at 0x02806AC8&gt;</div></td></tr><tr><td style="font-weight:bold;vertical-align:top;">session_filename</td><td style="vertical-align:top;">:</td><td><div>D:\\web2py\\applications\\antecedentesplataforma\\sessions\\127.0.0.1-a7ad7e13-9312-449e-a93c-892e466467a5</div></td></tr><tr><td style="font-weight:bold;vertical-align:top;">session_hash</td><td style="vertical-align:top;">:</td><td><div>07113e012e35d09d40bd1ddefcc07c1d</div></td></tr><tr><td style="font-weight:bold;vertical-align:top;">session_id</td><td style="vertical-align:top;">:</td><td><div>127.0.0.1-a7ad7e13-9312-449e-a93c-892e466467a5</div></td></tr><tr><td style="font-weight:bold;vertical-align:top;">session_id_name</td><td style="vertical-align:top;">:</td><td><div>session_id_antecedentesplataforma</div></td></tr><tr><td style="font-weight:bold;vertical-align:top;">session_locked</td><td style="vertical-align:top;">:</td><td><div>True</div></td></tr><tr><td style="font-weight:bold;vertical-align:top;">session_masterapp</td><td style="vertical-align:top;">:</td><td><div>antecedentesplataforma</div></td></tr><tr><td style="font-weight:bold;vertical-align:top;">session_new</td><td style="vertical-align:top;">:</td><td><div>False</div></td></tr><tr><td style="font-weight:bold;vertical-align:top;">session_storage_type</td><td style="vertical-align:top;">:</td><td><div>file</div></td></tr><tr><td style="font-weight:bold;vertical-align:top;">status</td><td style="vertical-align:top;">:</td><td><div>200</div></td></tr><tr><td style="font-weight:bold;vertical-align:top;">subtitle</td><td style="vertical-align:top;">:</td><td><div></div></td></tr><tr><td style="font-weight:bold;vertical-align:top;">title</td><td style="vertical-align:top;">:</td><td><div>Antecedentesplataforma</div></td></tr><tr><td style="font-weight:bold;vertical-align:top;">view</td><td style="vertical-align:top;">:</td><td><div>imprimir/con_antecedentes.html</div></td></tr></table></div>'
tRp144
sS'locals'
p145
(dp146
S'ide_padron'
p147
S"'129575'"
p148
sS'Story'
p149
S'[]'
p150
sS'pasa'
p151
S"''"
p152
sS'qtipo'
p153
S"'A.G.'"
p154
sS'startfile'
p155
S'<built-in function startfile>'
p156
sS'civil'
p157
S"'S'"
p158
sS'green'
p159
S'Color(0,.501961,0,1)'
p160
sS'sol'
p161
S"<Row {'hora': datetime.datetime(2019, 5, 20, 9, ...tado_por': 'ANTE EL ENANO', 'intervino': 'J.U.'}>"
p162
sS'vil'
p163
S"{'C': 'CASADO/A', 'D': 'DIVORSIADO/A', 'S': 'SOLTERO/A', 'V': 'VIUDO/A'}"
p164
sS'datetime'
p165
S"<type 'datetime.datetime'>"
p166
sS'direc'
p167
S"'GRAL. VILLEGAS N\\xc2\\xba750-CAP. CTCA.-'"
p168
sS'margen'
p169
S"<Row {'x': 0.0, 'id': 1L, 'y': 0.0}>"
p170
sS'num'
p171
S"'45/19'"
p172
sS'clave'
p173
S"{'0': None, '1': 'A.G.', '2': 'C.I.', '3': 'D.C.P.', '4': 'D.E.', '5': 'R.C.', '6': 'S.P.'}"
p174
sS'MINYEAR'
p175
S'1'
sS'hoyfecha'
p176
S'datetime.datetime(2019, 5, 20, 9, 43, 33, 701000)'
p177
sS'ape'
p178
S"'PUENTES,'"
p179
sS'ide_soli'
p180
S"'5'"
p181
sS'x'
S'0.0'
p182
sS'canvas'
p183
S"<module 'reportlab.pdfgen.canvas' from 'reportlab\\pdfgen\\canvas.py'>"
p184
sS'SimpleDocTemplate'
p185
S'<class reportlab.platypus.doctemplate.SimpleDocTemplate>'
p186
sS'PIL'
p187
S"<module 'PIL' from 'PIL\\__init__.py'>"
p188
sS'ante'
p189
S"'N LAS L\\xc3\\x8dNEAS DE C\\xc3\\x93DIGO ANTERIORES ESPECIFICAMO...RA GENERAR NUESTRO DOCUMENTO:\\r\\n\\r\\nDOC.BUILD(STORY)'"
p190
sS'tipo'
p191
S"'1'"
p192
sS'Image'
p193
S'<class reportlab.platypus.flowables.Image>'
p194
sS'fecha'
p195
S'datetime.datetime(2019, 5, 20, 9, 3, 24)'
p196
sS'dni'
p197
S"'24309604'"
p198
sS'TA_CENTER'
p199
S'1'
sS'tiene'
p200
S"'NO'"
p201
sS'qmes'
p202
S"'MAYO'"
p203
sS'pa'
p204
S"<Row {'Pasaporte': '', 'DocumentoNro': 24309604L... 'GUILLERMO ARIEL', 'IdPais': 1L, 'id': 129575L}>"
p205
sS'TA_LEFT'
p206
S'0'
sS'datetime_CAPI'
p207
S'<capsule object "datetime.datetime_CAPI">'
p208
sS'anio'
p209
S"'2019'"
p210
sS'capital'
p211
S"'CAPITAL'"
p212
sS'tzinfo'
p213
S"<type 'datetime.tzinfo'>"
p214
sS'solipor'
p215
S"'ANTE EL ENANO'"
p216
sS'white'
p217
S'Color(1,1,1,1)'
p218
sS'red'
p219
S'Color(1,0,0,1)'
p220
sS'blue'
p221
S'Color(0,0,1,1)'
p222
sS'y'
S'0.0'
p223
sS'timedelta'
p224
S"<type 'datetime.timedelta'>"
p225
sS'clase'
p226
S"'1975'"
p227
sS'DNI'
p228
S"'24309604'"
p229
sS'npront'
p230
S"'170368'"
p231
sS'Paragraph'
p232
S'<class reportlab.platypus.paragraph.Paragraph>'
p233
sS'user'
p234
S"'JUAN ULIVAR'"
p235
sS'mes'
p236
S"'5'"
p237
sS'prof'
p238
S"'LIC. EN SISTMAS DE INFORMACION'"
p239
sg141
S"<type 'datetime.date'>"
p240
sS'pais'
p241
S"'ARGENTINA'"
p242
sS'oficio'
p243
S'(612, 1010)'
p244
sS'pdf'
p245
S"'con_antecedentes.pdf'"
p246
sS'largo'
p247
S'612.0'
p248
sS'alto'
p249
S'1010'
p250
sS'gray'
p251
S'Color(.501961,.501961,.501961,1)'
p252
sS'paises'
p253
S"<Row {'pais': 'ARGENTINA', 'id': 1L, 'padron': <Set (padron.IdPais = 1)>}>"
p254
sS'MAXYEAR'
p255
S'9999'
p256
sS'StringIO'
p257
S"<module 'StringIO' from 'D:\\web2py\\library.zip\\StringIO.pyc'>"
p258
sS'doc'
p259
S'<reportlab.pdfgen.canvas.Canvas instance>'
p260
sS'TA_JUSTIFY'
p261
S'4'
sS'dia'
p262
S"'20'"
p263
sS'nacion'
p264
S'1L'
p265
sS'intervino'
p266
S"'J.U.'"
p267
sS'ImageReader'
p268
S"<class 'reportlab.lib.utils.ImageReader'>"
p269
sS'Spacer'
p270
S'<class reportlab.platypus.flowables.Spacer>'
p271
sS'TA_RIGHT'
p272
S'2'
sS'nom'
p273
S"'GUILLERMO ARIEL'"
p274
sS'time'
p275
S"<type 'datetime.time'>"
p276
sS'meses'
p277
S"{'1': 'ENERO', '10': 'OCTUBRE', '11': 'NOVIEMBRE', '12': 'DICIEMBRE', '2': 'FEBRERO', '3': 'MARZO', '4': 'ABRIL', '5': 'MAYO', '6': 'JUNIO', '7': 'JULIO', ...}"
p278
sS'getSampleStyleSheet'
p279
S'<function getSampleStyleSheet>'
p280
sS'e_civil'
p281
S"'SOLTERO/A'"
p282
sS'estilos'
p283
S'<reportlab.lib.styles.StyleSheet1 instance>'
p284
sS'black'
p285
S'Color(0,0,0,1)'
p286
sssS'traceback'
p287
S'Traceback (most recent call last):\n  File "D:\\web2py\\gluon\\restricted.py", line 227, in restricted\n    exec ccode in environment\n  File "D:\\web2py\\applications\\antecedentesplataforma\\controllers/imprimir.py", line 361, in <module>\n  File "D:\\web2py\\gluon\\globals.py", line 417, in <lambda>\n    self._caller = lambda f: f()\n  File "D:\\web2py\\applications\\antecedentesplataforma\\controllers/imprimir.py", line 255, in con_antecedentes\n    canvas.drawString( inch, 0.5*inch, \'Page %d\' % ( doc.page ) )\nAttributeError: \'module\' object has no attribute \'drawString\'\n'
p288
s.