(dp1
S'output'
p2
S"<type 'exceptions.ValueError'> invalid literal for long() with base 10: ''"
p3
sS'layer'
p4
S'D:\\web2py\\applications\\antecedentesplataforma\\controllers/confeccion.py'
p5
sS'code'
p6
S'def confeccion():\n\treturn dict()\ndef por_sistema():\n\tfrom gluon.serializers import json\t\t\t#importo json\n\tsetsoli=db(db.solicitud.estado_solicitud=="Confeccion").select()\t#realizo un set de los registros con estado confeccion\n\tco=json(setsoli)\t\t\t\t\t\t\t\t\t\t\t\t\t#trasformo el set a formato json\n\n\treturn dict(co=co)\ndef procesar():\t\n\tfrom datetime import date,time\n\tfecha=date.today()\t\n\tquien=auth.user.id            #atrapo el usuario logueado\n    \tuser=db(db.auth_user.id==quien).select().first()#pregunto quien esta logueado\n    \tusuario_nombre=user.first_name\n    \tusuario_apellido=user.last_name\n    \tusuario=usuario_nombre+" "+usuario_apellido#concateno cadena para generar el nombre del usuario\n    \tiniciales=user.iniciales\n\n    \t\n\tclave={\'1\':"A.G.",\'2\':"C.I.",\'3\':"D.C.P",\'4\':"D.E",\'5\':"R.C",\'6\':"S.P.",\'0\':None}\n\tvalor={\'A.G.\':"1",\'C.I.\':"2",\'D.C.P.\':"3",\'D.E.\':"4",\'R.C.\':"5",\'S.P.\':"6",None:\'0\'}\n\n    \t\t\t\t\t\t\t\t\t\n\tide_soli=int(request.args[0])#atrapo id\n\tsetsoli=db(db.solicitud.id==ide_soli).select().last()\t#realizo un ser para sacar datos de la tabla\n\tdnpa_soli=setsoli.dni  \t#dni/pasaporte de la tabla solicitud\n\tsoli_por_soli=setsoli.solicitado_por\t\t\t\t\t#solicitado por de la tabla solicitud\n\tcapital_soli=setsoli.capitalinterior\n\ttiene=setsoli.t_antecedentes\n\tanteceden=setsoli.antecedentes\t\t\t\t\t\n\tsetpadron=db((db.padron.DocumentoNro==dnpa_soli)|(db.padron.Pasaporte==dnpa_soli)).select().first()\n\tide_padron=setpadron.id \t\t\t\t\t\t\t\t#saco el id de la persona en la tabla padron\n\tdni_padron=setpadron.DocumentoNro\n\tpasa_padron=setpadron.Pasaporte\n\tapellido_padron=setpadron.Apellido\n\tnombre_padron=setpadron.Nombre\n\tProfesion_padron=setpadron.Profesion\n\tte=setpadron.IdProntuarioTipo\t\t#tipo de padron\n\tte=str(te)#convierto a string\n\ttipo=clave[te]#reemplazo en el diccionario para sacar el tipo a mostrar en el formulario\n\ttipo=str(tipo)#paso a cadena el tipo de prontuario para mostrar en el formulario\t\n\tnum_padron=setpadron.ProntuarioNro\n\tdomi_padron=setpadron.Direccion\n\tprof_padron=setpadron.Profesion\n\tcivil_padron=setpadron.EstadoCivil\n\tclase_padron=setpadron.Clase\n\tpais_padron=setpadron.IdPais\n\tpais_padron=pais_padron\t\n\ttpront=""\n\tqtipo=""\n\t#realizo un set para sacar el ultimo numero de certificado\n\n\tultimo=db(db.solicitud.nro_certificado).select().last()\t\n\t#realizo un factory para modificar los valores a imprimir\n\t\n\n\t\n\n    \t\n\n\tform=SQLFORM.factory(\n\tField(\'dni\',\'int\',label="Ingrese el Dni",requires=IS_NOT_EMPTY(error_message=\'El campo puede estar vac\xc3\xado\'),default=dnpa_soli),\n\tField(\'pasaporte\',label="Ingrese el Pasaporte",default=pasa_padron),\n\tField(\'tipo\',label="Tipo de Prontuario",requires=IS_IN_SET(["A.G.","C.I.","D.C.P.","D.E.","R.C.","S.P."],error_message=\'Error escoja una opcion\'),default=tipo),\n\tField(\'nprontuario\',label="N\xc2\xba de Prontuario",default=num_padron),\n\tField(\'apellido\',label="Apellido",default=apellido_padron),\n\tField(\'nombre\',label=\'Nombre\',default=nombre_padron),\n\tField(\'domicilio\',label=\'Domicilio\',default=domi_padron),\n\tField(\'e_civil\',label=\'Estado Civil\',requires=IS_IN_SET(["S","C","D","V"],error_message=\'Elija una opcion\'),default=civil_padron),\n\tField(\'clase\',\'int\',label=\'Clase\',default=clase_padron,requires=IS_INT_IN_RANGE(1900,2100,error_message=\'Error la clase debe ser ej: 1942\')),\n\tField(\'Profesion\',default=Profesion_padron),\n\tField(\'pais\',label=\'Pais\',requires=IS_IN_DB(db,\'paises.id\', \'%(pais)s\',zero=T(\'Seleccione la Nacionalidad\')),default=pais_padron),\n\t\n                                 \n\tField(\'soli_por\',label=\'Solicitado Por\',default=soli_por_soli),\n\tField(\'intervino\',label=\'Intervino\',default=iniciales),\n\tField(\'donde\',label="Localidad",requires=IS_IN_SET(["CAPITAL","INTERIOR"],error_message=\'Error escoja una opcion\'),default=capital_soli),\n\tField(\'t_antece\',label="Tiene Antecedentes",requires=IS_IN_SET(["SI","NO"],error_message=\'Error escoja una opcion\'),default=tiene),\n\tField(\'antecedentes\',\'text\',default=anteceden,label=\'Antecedentes\'),\n\n    )   \t\n           \n    \tif form.accepts(request,session):\n    \t\t#tomo el valor q toma el campo del form tipo \n\n    \t\ttpront=form.vars.tipo\n    \t\ttpront=str(tpront)\n    \t\tqtipo=valor[tpront]\n    \t\tqtipo=str(qtipo)\n    \t\t\n    \t\t\n        \t#actualizo los campos en la tabla padron\n        \tsetpadron.update_record(IdProntuarioTipo=qtipo,\n        \t\tProntuarioNro=form.vars.nprontuario,Direccion=form.vars.domicilio,Clase=form.vars.clase,\n        \t\tIdPais=form.vars.pais,Profesion=form.vars.Profesion)\n\n        \tsetsoli.update_record(apellido=form.vars.apellido,nombre=form.vars.nombre,tipo_prontuario=tipo,\n        \t\tprontuario=form.vars.nprontuario,solicitado_por=form.vars.soli_por,intervino=form.vars.intervino\n        \t\t,capitalinterior=form.vars.donde,estado_solicitud="Completado",usuario=usuario,\n        \t\tantecedentes=form.vars.antecedentes,t_antecedentes=form.vars.t_antece,fecha_solicitada=fecha)\n\n        \tdb.historial.insert(dni=form.vars.dni,pasaporte=form.vars.pasaporte,nombre=form.vars.nombre,\n        \t\tapellido=form.vars.apellido,capitalinterior=form.vars.donde,intervino=form.vars.intervino,\n        \t\tt_antecedentes=form.vars.t_antece,antecedentes=form.vars.antecedentes,fecha=fecha\n         #redirect(URL(c=\'confeccion\',f=\'pre_imprimir\'))          \t\t\n        \t\t)  \n\n\n    \telif form.errors:\n            response.flash = \'el formulario tiene errores\'\n    \telse:\n            response.flash = \'por favor complete el formulario\'\n\n\n\t\n\n\treturn dict(dnpa_soli=dnpa_soli,iniciales=iniciales,dni_padron=dni_padron\n \t,pasa_padron=pasa_padron,apellido_padron=apellido_padron,nombre_padron=nombre_padron,tipo=tipo\n \t,num_padron=num_padron,domi_padron=domi_padron,prof_padron=prof_padron,civil_padron=civil_padron\n \t,clase_padron=clase_padron,pais_padron=pais_padron,ide_soli=ide_soli,capital_soli=capital_soli,\n \tsoli_por_soli=soli_por_soli,ide_padron=ide_padron,form=form,clave=clave,valor=valor,qtipo=qtipo,fecha=fecha,\n \tultimo=ultimo\n \t)\n \t\ndef pre_imprimir():\n\t\n\n\n\n\treturn dict() \t\n\t\n\n\t\t\nresponse._vars=response._caller(procesar)\n'
p7
sS'snapshot'
p8
(dp9
S'exception'
p10
(dp11
S'__hash__'
p12
S"<method-wrapper '__hash__' of exceptions.ValueError object>"
p13
sS'__setattr__'
p14
S"<method-wrapper '__setattr__' of exceptions.ValueError object>"
p15
sS'__reduce_ex__'
p16
S'<built-in method __reduce_ex__ of exceptions.ValueError object>'
p17
sS'__getslice__'
p18
S"<method-wrapper '__getslice__' of exceptions.ValueError object>"
p19
sS'__getitem__'
p20
S"<method-wrapper '__getitem__' of exceptions.ValueError object>"
p21
sS'__setstate__'
p22
S'<built-in method __setstate__ of exceptions.ValueError object>'
p23
sS'__reduce__'
p24
S'<built-in method __reduce__ of exceptions.ValueError object>'
p25
sS'__str__'
p26
S"<method-wrapper '__str__' of exceptions.ValueError object>"
p27
sS'__format__'
p28
S'<built-in method __format__ of exceptions.ValueError object>'
p29
sS'__getattribute__'
p30
S"<method-wrapper '__getattribute__' of exceptions.ValueError object>"
p31
sS'__class__'
p32
S"<type 'exceptions.ValueError'>"
p33
sS'__unicode__'
p34
S'<built-in method __unicode__ of exceptions.ValueError object>'
p35
sS'__delattr__'
p36
S"<method-wrapper '__delattr__' of exceptions.ValueError object>"
p37
sS'__subclasshook__'
p38
S'<built-in method __subclasshook__ of type object>'
p39
sS'__repr__'
p40
S"<method-wrapper '__repr__' of exceptions.ValueError object>"
p41
sS'args'
p42
S'("invalid literal for long() with base 10: \'\'",)'
p43
sS'__dict__'
p44
S'{}'
p45
sS'__sizeof__'
p46
S'<built-in method __sizeof__ of exceptions.ValueError object>'
p47
sS'__doc__'
p48
S"'Inappropriate argument value (of correct type).'"
p49
sS'__init__'
p50
S"<method-wrapper '__init__' of exceptions.ValueError object>"
p51
sS'__new__'
p52
S'<built-in method __new__ of type object>'
p53
ssS'evalue'
p54
S"invalid literal for long() with base 10: ''"
p55
sS'request'
p56
cgluon.html
XML_unpickle
p57
(S's\xf4d\x00\x00<div><table><tr><td style="font-weight:bold;vertical-align:top;">ajax</td><td style="vertical-align:top;">:</td><td><div>False</div></td></tr><tr><td style="font-weight:bold;vertical-align:top;">application</td><td style="vertical-align:top;">:</td><td><div>antecedentesplataforma</div></td></tr><tr><td style="font-weight:bold;vertical-align:top;">args</td><td style="vertical-align:top;">:</td><td><div><table><tr><td><div>71088</div></td></tr></table></div></td></tr><tr><td style="font-weight:bold;vertical-align:top;">cid</td><td style="vertical-align:top;">:</td><td><div>None</div></td></tr><tr><td style="font-weight:bold;vertical-align:top;">client</td><td style="vertical-align:top;">:</td><td><div>127.0.0.1</div></td></tr><tr><td style="font-weight:bold;vertical-align:top;">controller</td><td style="vertical-align:top;">:</td><td><div>confeccion</div></td></tr><tr><td style="font-weight:bold;vertical-align:top;">cookies</td><td style="vertical-align:top;">:</td><td><div><table><tr><td style="font-weight:bold;vertical-align:top;">session_id_admin</td><td style="vertical-align:top;">:</td><td><div>127.0.0.1-a3bf07a4-4f13-46ca-870e-b250a4f707fd<table><tr><td style="font-weight:bold;vertical-align:top;">comment</td><td style="vertical-align:top;">:</td><td><div></div></td></tr><tr><td style="font-weight:bold;vertical-align:top;">domain</td><td style="vertical-align:top;">:</td><td><div></div></td></tr><tr><td style="font-weight:bold;vertical-align:top;">expires</td><td style="vertical-align:top;">:</td><td><div></div></td></tr><tr><td style="font-weight:bold;vertical-align:top;">httponly</td><td style="vertical-align:top;">:</td><td><div></div></td></tr><tr><td style="font-weight:bold;vertical-align:top;">max-age</td><td style="vertical-align:top;">:</td><td><div></div></td></tr><tr><td style="font-weight:bold;vertical-align:top;">path</td><td style="vertical-align:top;">:</td><td><div></div></td></tr><tr><td style="font-weight:bold;vertical-align:top;">secure</td><td style="vertical-align:top;">:</td><td><div></div></td></tr><tr><td style="font-weight:bold;vertical-align:top;">version</td><td style="vertical-align:top;">:</td><td><div></div></td></tr></table></div></td></tr><tr><td style="font-weight:bold;vertical-align:top;">session_id_antecedentesplataforma</td><td style="vertical-align:top;">:</td><td><div>127.0.0.1-9fd3fe3c-dda4-4589-bb56-14df99b5a51f<table><tr><td style="font-weight:bold;vertical-align:top;">comment</td><td style="vertical-align:top;">:</td><td><div></div></td></tr><tr><td style="font-weight:bold;vertical-align:top;">domain</td><td style="vertical-align:top;">:</td><td><div></div></td></tr><tr><td style="font-weight:bold;vertical-align:top;">expires</td><td style="vertical-align:top;">:</td><td><div></div></td></tr><tr><td style="font-weight:bold;vertical-align:top;">httponly</td><td style="vertical-align:top;">:</td><td><div></div></td></tr><tr><td style="font-weight:bold;vertical-align:top;">max-age</td><td style="vertical-align:top;">:</td><td><div></div></td></tr><tr><td style="font-weight:bold;vertical-align:top;">path</td><td style="vertical-align:top;">:</td><td><div></div></td></tr><tr><td style="font-weight:bold;vertical-align:top;">secure</td><td style="vertical-align:top;">:</td><td><div></div></td></tr><tr><td style="font-weight:bold;vertical-align:top;">version</td><td style="vertical-align:top;">:</td><td><div></div></td></tr></table></div></td></tr><tr><td style="font-weight:bold;vertical-align:top;">session_id_welcome</td><td style="vertical-align:top;">:</td><td><div>127.0.0.1-e12215ac-ea6b-4058-bef2-8bad4711289c<table><tr><td style="font-weight:bold;vertical-align:top;">comment</td><td style="vertical-align:top;">:</td><td><div></div></td></tr><tr><td style="font-weight:bold;vertical-align:top;">domain</td><td style="vertical-align:top;">:</td><td><div></div></td></tr><tr><td style="font-weight:bold;vertical-align:top;">expires</td><td style="vertical-align:top;">:</td><td><div></div></td></tr><tr><td style="font-weight:bold;vertical-align:top;">httponly</td><td style="vertical-align:top;">:</td><td><div></div></td></tr><tr><td style="font-weight:bold;vertical-align:top;">max-age</td><td style="vertical-align:top;">:</td><td><div></div></td></tr><tr><td style="font-weight:bold;vertical-align:top;">path</td><td style="vertical-align:top;">:</td><td><div></div></td></tr><tr><td style="font-weight:bold;vertical-align:top;">secure</td><td style="vertical-align:top;">:</td><td><div></div></td></tr><tr><td style="font-weight:bold;vertical-align:top;">version</td><td style="vertical-align:top;">:</td><td><div></div></td></tr></table></div></td></tr></table></div></td></tr><tr><td style="font-weight:bold;vertical-align:top;">env</td><td style="vertical-align:top;">:</td><td><div><table><tr><td style="font-weight:bold;vertical-align:top;">CONTENT_LENGTH</td><td style="vertical-align:top;">:</td><td><div>1936</div></td></tr><tr><td style="font-weight:bold;vertical-align:top;">CONTENT_TYPE</td><td style="vertical-align:top;">:</td><td><div>multipart/form-data; boundary=----WebKitFormBoundarySVNjABvJPOJrs4Gm</div></td></tr><tr><td style="font-weight:bold;vertical-align:top;">HTTP_ACCEPT</td><td style="vertical-align:top;">:</td><td><div>text/html,application/xhtml+xml,application/xml;q=0.9,image/webp,image/apng,*/*;q=0.8,application/signed-exchange;v=b3</div></td></tr><tr><td style="font-weight:bold;vertical-align:top;">HTTP_ACCEPT_ENCODING</td><td style="vertical-align:top;">:</td><td><div>gzip, deflate, br</div></td></tr><tr><td style="font-weight:bold;vertical-align:top;">HTTP_ACCEPT_LANGUAGE</td><td style="vertical-align:top;">:</td><td><div>es-ES,es;q=0.9,en;q=0.8</div></td></tr><tr><td style="font-weight:bold;vertical-align:top;">HTTP_CACHE_CONTROL</td><td style="vertical-align:top;">:</td><td><div>max-age=0</div></td></tr><tr><td style="font-weight:bold;vertical-align:top;">HTTP_CONNECTION</td><td style="vertical-align:top;">:</td><td><div>keep-alive</div></td></tr><tr><td style="font-weight:bold;vertical-align:top;">HTTP_CONTENT_LENGTH</td><td style="vertical-align:top;">:</td><td><div>1936</div></td></tr><tr><td style="font-weight:bold;vertical-align:top;">HTTP_CONTENT_TYPE</td><td style="vertical-align:top;">:</td><td><div>multipart/form-data; boundary=----WebKitFormBoundarySVNjABvJPOJrs4Gm</div></td></tr><tr><td style="font-weight:bold;vertical-align:top;">HTTP_COOKIE</td><td style="vertical-align:top;">:</td><td><div>session_id_welcome=127.0.0.1-e12215ac-ea6b-4058-bef2-8bad4711289c; session_id_admin=127.0.0.1-a3bf07a4-4f13-46ca-870e-b250a4f707fd; session_id_antecedentesplataforma=127.0.0.1-9fd3fe3c-dda4-4589-bb56-14df99b5a51f</div></td></tr><tr><td style="font-weight:bold;vertical-align:top;">HTTP_HOST</td><td style="vertical-align:top;">:</td><td><div>127.0.0.1:8000</div></td></tr><tr><td style="font-weight:bold;vertical-align:top;">HTTP_ORIGIN</td><td style="vertical-align:top;">:</td><td><div>http://127.0.0.1:8000</div></td></tr><tr><td style="font-weight:bold;vertical-align:top;">HTTP_REFERER</td><td style="vertical-align:top;">:</td><td><div>http://127.0.0.1:8000/antecedentesplataforma/confeccion/procesar/71088</div></td></tr><tr><td style="font-weight:bold;vertical-align:top;">HTTP_UPGRADE_INSECURE_REQUESTS</td><td style="vertical-align:top;">:</td><td><div>1</div></td></tr><tr><td style="font-weight:bold;vertical-align:top;">HTTP_USER_AGENT</td><td style="vertical-align:top;">:</td><td><div>Mozilla/5.0 (Windows NT 6.1) AppleWebKit/537.36 (KHTML, like Gecko) Chrome/73.0.3683.103 Safari/537.36</div></td></tr><tr><td style="font-weight:bold;vertical-align:top;">PATH_INFO</td><td style="vertical-align:top;">:</td><td><div>/antecedentesplataforma/confeccion/procesar/71088</div></td></tr><tr><td style="font-weight:bold;vertical-align:top;">QUERY_STRING</td><td style="vertical-align:top;">:</td><td><div></div></td></tr><tr><td style="font-weight:bold;vertical-align:top;">REMOTE_ADDR</td><td style="vertical-align:top;">:</td><td><div>127.0.0.1</div></td></tr><tr><td style="font-weight:bold;vertical-align:top;">REMOTE_PORT</td><td style="vertical-align:top;">:</td><td><div>4667</div></td></tr><tr><td style="font-weight:bold;vertical-align:top;">REQUEST_METHOD</td><td style="vertical-align:top;">:</td><td><div>POST</div></td></tr><tr><td style="font-weight:bold;vertical-align:top;">SCRIPT_NAME</td><td style="vertical-align:top;">:</td><td><div></div></td></tr><tr><td style="font-weight:bold;vertical-align:top;">SERVER_NAME</td><td style="vertical-align:top;">:</td><td><div>HaTaK3-PC</div></td></tr><tr><td style="font-weight:bold;vertical-align:top;">SERVER_PORT</td><td style="vertical-align:top;">:</td><td><div>8000</div></td></tr><tr><td style="font-weight:bold;vertical-align:top;">SERVER_PROTOCOL</td><td style="vertical-align:top;">:</td><td><div>HTTP/1.1</div></td></tr><tr><td style="font-weight:bold;vertical-align:top;">SERVER_SOFTWARE</td><td style="vertical-align:top;">:</td><td><div>Rocket 1.2.6</div></td></tr><tr><td style="font-weight:bold;vertical-align:top;">app_folders</td><td style="vertical-align:top;">:</td><td><div>set([&#x27;D:\\\\web2py\\\\applications\\\\admin\\\\&#x27;, &#x27;D:\\\\web2py\\\\applications\\\\welcome\\\\&#x27;, &#x27;D:\\\\web2py\\\\applications\\\\antecedentesplataforma\\\\&#x27;])</div></td></tr><tr><td style="font-weight:bold;vertical-align:top;">applications_parent</td><td style="vertical-align:top;">:</td><td><div>D:\\web2py</div></td></tr><tr><td style="font-weight:bold;vertical-align:top;">cmd_args</td><td style="vertical-align:top;">:</td><td><div><table></table></div></td></tr><tr><td style="font-weight:bold;vertical-align:top;">cmd_options</td><td style="vertical-align:top;">:</td><td><div>&lt;Values at 0x27edd50: {&#x27;verbose&#x27;: False, &#x27;ip&#x27;: &#x27;127.0.0.1&#x27;, &#x27;debuglevel&#x27;: 30, &#x27;with_scheduler&#x27;: False, &#x27;shutdown_timeout&#x27;: 5, &#x27;taskbar&#x27;: False, &#x27;with_coverage&#x27;: False, &#x27;pid_filename&#x27;: &#x27;httpserver.pid&#x27;, &#x27;maxthreads&#x27;: None, &#x27;softcron&#x27;: False, &#x27;server_name&#x27;: &#x27;HaTaK3-PC&#x27;, &#x27;bpython&#x27;: False, &#x27;nogui&#x27;: False, &#x27;port&#x27;: 8000, &#x27;print_errors&#x27;: False, &#x27;extcron&#x27;: False, &#x27;runcron&#x27;: False, &#x27;run_system_tests&#x27;: False, &#x27;test&#x27;: None, &#x27;folder&#x27;: &#x27;D:\\\\web2py&#x27;, &#x27;config&#x27;: &#x27;&#x27;, &#x27;minthreads&#x27;: None, &#x27;shell&#x27;: None, &#x27;run&#x27;: &#x27;&#x27;, &#x27;log_filename&#x27;: &#x27;httpserver.log&#x27;, &#x27;profiler_dir&#x27;: None, &#x27;args&#x27;: [&#x27;&#x27;], &#x27;socket_timeout&#x27;: 5, &#x27;ssl_ca_certificate&#x27;: None, &#x27;scheduler&#x27;: None, &#x27;interfaces&#x27;: None, &#x27;ssl_private_key&#x27;: &#x27;&#x27;, &#x27;gae&#x27;: None, &#x27;password&#x27;: &#x27;******&#x27;, &#x27;request_queue_size&#x27;: 5, &#x27;ssl_certificate&#x27;: &#x27;&#x27;, &#x27;cronjob&#x27;: False, &#x27;numthreads&#x27;: None, &#x27;quiet&#x27;: False, &#x27;import_models&#x27;: False, &#x27;timeout&#x27;: 10, &#x27;plain&#x27;: False, &#x27;nobanner&#x27;: False}&gt;</div></td></tr><tr><td style="font-weight:bold;vertical-align:top;">content_length</td><td style="vertical-align:top;">:</td><td><div>1936</div></td></tr><tr><td style="font-weight:bold;vertical-align:top;">content_type</td><td style="vertical-align:top;">:</td><td><div>multipart/form-data; boundary=----WebKitFormBoundarySVNjABvJPOJrs4Gm</div></td></tr><tr><td style="font-weight:bold;vertical-align:top;">db_sessions</td><td style="vertical-align:top;">:</td><td><div>set([])</div></td></tr><tr><td style="font-weight:bold;vertical-align:top;">debugging</td><td style="vertical-align:top;">:</td><td><div>False</div></td></tr><tr><td style="font-weight:bold;vertical-align:top;">gluon_parent</td><td style="vertical-align:top;">:</td><td><div>D:\\web2py</div></td></tr><tr><td style="font-weight:bold;vertical-align:top;">http_accept</td><td style="vertical-align:top;">:</td><td><div>text/html,application/xhtml+xml,application/xml;q=0.9,image/webp,image/apng,*/*;q=0.8,application/signed-exchange;v=b3</div></td></tr><tr><td style="font-weight:bold;vertical-align:top;">http_accept_encoding</td><td style="vertical-align:top;">:</td><td><div>gzip, deflate, br</div></td></tr><tr><td style="font-weight:bold;vertical-align:top;">http_accept_language</td><td style="vertical-align:top;">:</td><td><div>es-ES,es;q=0.9,en;q=0.8</div></td></tr><tr><td style="font-weight:bold;vertical-align:top;">http_cache_control</td><td style="vertical-align:top;">:</td><td><div>max-age=0</div></td></tr><tr><td style="font-weight:bold;vertical-align:top;">http_connection</td><td style="vertical-align:top;">:</td><td><div>keep-alive</div></td></tr><tr><td style="font-weight:bold;vertical-align:top;">http_content_length</td><td style="vertical-align:top;">:</td><td><div>1936</div></td></tr><tr><td style="font-weight:bold;vertical-align:top;">http_content_type</td><td style="vertical-align:top;">:</td><td><div>multipart/form-data; boundary=----WebKitFormBoundarySVNjABvJPOJrs4Gm</div></td></tr><tr><td style="font-weight:bold;vertical-align:top;">http_cookie</td><td style="vertical-align:top;">:</td><td><div>session_id_welcome=127.0.0.1-e12215ac-ea6b-4058-bef2-8bad4711289c; session_id_admin=127.0.0.1-a3bf07a4-4f13-46ca-870e-b250a4f707fd; session_id_antecedentesplataforma=127.0.0.1-9fd3fe3c-dda4-4589-bb56-14df99b5a51f</div></td></tr><tr><td style="font-weight:bold;vertical-align:top;">http_host</td><td style="vertical-align:top;">:</td><td><div>127.0.0.1:8000</div></td></tr><tr><td style="font-weight:bold;vertical-align:top;">http_origin</td><td style="vertical-align:top;">:</td><td><div>http://127.0.0.1:8000</div></td></tr><tr><td style="font-weight:bold;vertical-align:top;">http_referer</td><td style="vertical-align:top;">:</td><td><div>http://127.0.0.1:8000/antecedentesplataforma/confeccion/procesar/71088</div></td></tr><tr><td style="font-weight:bold;vertical-align:top;">http_upgrade_insecure_requests</td><td style="vertical-align:top;">:</td><td><div>1</div></td></tr><tr><td style="font-weight:bold;vertical-align:top;">http_user_agent</td><td style="vertical-align:top;">:</td><td><div>Mozilla/5.0 (Windows NT 6.1) AppleWebKit/537.36 (KHTML, like Gecko) Chrome/73.0.3683.103 Safari/537.36</div></td></tr><tr><td style="font-weight:bold;vertical-align:top;">is_jython</td><td style="vertical-align:top;">:</td><td><div>False</div></td></tr><tr><td style="font-weight:bold;vertical-align:top;">is_pypy</td><td style="vertical-align:top;">:</td><td><div>False</div></td></tr><tr><td style="font-weight:bold;vertical-align:top;">is_source</td><td style="vertical-align:top;">:</td><td><div>False</div></td></tr><tr><td style="font-weight:bold;vertical-align:top;">local_hosts</td><td style="vertical-align:top;">:</td><td><div><table><tr><td><div>HaTaK3-PC</div></td></tr><tr><td><div>::ffff:127.0.0.1</div></td></tr><tr><td><div>::1</div></td></tr><tr><td><div>fe80::65c7:8cfe:1866:2ddb%12</div></td></tr><tr><td><div>10.150.0.69</div></td></tr><tr><td><div>fe80::6de3:fa60:8d1c:59aa%11</div></td></tr><tr><td><div>127.0.0.1</div></td></tr><tr><td><div>192.168.56.1</div></td></tr></table></div></td></tr><tr><td style="font-weight:bold;vertical-align:top;">path_info</td><td style="vertical-align:top;">:</td><td><div>/antecedentesplataforma/confeccion/procesar/71088</div></td></tr><tr><td style="font-weight:bold;vertical-align:top;">query_string</td><td style="vertical-align:top;">:</td><td><div></div></td></tr><tr><td style="font-weight:bold;vertical-align:top;">remote_addr</td><td style="vertical-align:top;">:</td><td><div>127.0.0.1</div></td></tr><tr><td style="font-weight:bold;vertical-align:top;">remote_port</td><td style="vertical-align:top;">:</td><td><div>4667</div></td></tr><tr><td style="font-weight:bold;vertical-align:top;">request_method</td><td style="vertical-align:top;">:</td><td><div>POST</div></td></tr><tr><td style="font-weight:bold;vertical-align:top;">request_uri</td><td style="vertical-align:top;">:</td><td><div>/antecedentesplataforma/confeccion/procesar/71088</div></td></tr><tr><td style="font-weight:bold;vertical-align:top;">script_name</td><td style="vertical-align:top;">:</td><td><div></div></td></tr><tr><td style="font-weight:bold;vertical-align:top;">server_name</td><td style="vertical-align:top;">:</td><td><div>HaTaK3-PC</div></td></tr><tr><td style="font-weight:bold;vertical-align:top;">server_port</td><td style="vertical-align:top;">:</td><td><div>8000</div></td></tr><tr><td style="font-weight:bold;vertical-align:top;">server_protocol</td><td style="vertical-align:top;">:</td><td><div>HTTP/1.1</div></td></tr><tr><td style="font-weight:bold;vertical-align:top;">server_software</td><td style="vertical-align:top;">:</td><td><div>Rocket 1.2.6</div></td></tr><tr><td style="font-weight:bold;vertical-align:top;">web2py_path</td><td style="vertical-align:top;">:</td><td><div>D:\\web2py</div></td></tr><tr><td style="font-weight:bold;vertical-align:top;">web2py_version</td><td style="vertical-align:top;">:</td><td><div>2.14.6-stable+timestamp.2016.05.10.00.21.47</div></td></tr><tr><td style="font-weight:bold;vertical-align:top;">wsgi.errors</td><td style="vertical-align:top;">:</td><td><div>&lt;open file &#x27;&lt;stderr&gt;&#x27;, mode &#x27;w&#x27; at 0x0124D0D0&gt;</div></td></tr><tr><td style="font-weight:bold;vertical-align:top;">wsgi.file_wrapper</td><td style="vertical-align:top;">:</td><td><div>&lt;class wsgiref.util.FileWrapper at 0x028EE4C8&gt;</div></td></tr><tr><td style="font-weight:bold;vertical-align:top;">wsgi.input</td><td style="vertical-align:top;">:</td><td><div>&lt;socket._fileobject object at 0x0363CDB0&gt;</div></td></tr><tr><td style="font-weight:bold;vertical-align:top;">wsgi.multiprocess</td><td style="vertical-align:top;">:</td><td><div>False</div></td></tr><tr><td style="font-weight:bold;vertical-align:top;">wsgi.multithread</td><td style="vertical-align:top;">:</td><td><div>True</div></td></tr><tr><td style="font-weight:bold;vertical-align:top;">wsgi.run_once</td><td style="vertical-align:top;">:</td><td><div>False</div></td></tr><tr><td style="font-weight:bold;vertical-align:top;">wsgi.url_scheme</td><td style="vertical-align:top;">:</td><td><div>http</div></td></tr><tr><td style="font-weight:bold;vertical-align:top;">wsgi.version</td><td style="vertical-align:top;">:</td><td><div><table><tr><td><div>1</div></td></tr><tr><td><div>0</div></td></tr></table></div></td></tr><tr><td style="font-weight:bold;vertical-align:top;">wsgi_errors</td><td style="vertical-align:top;">:</td><td><div>&lt;open file &#x27;&lt;stderr&gt;&#x27;, mode &#x27;w&#x27; at 0x0124D0D0&gt;</div></td></tr><tr><td style="font-weight:bold;vertical-align:top;">wsgi_file_wrapper</td><td style="vertical-align:top;">:</td><td><div>&lt;class wsgiref.util.FileWrapper at 0x028EE4C8&gt;</div></td></tr><tr><td style="font-weight:bold;vertical-align:top;">wsgi_input</td><td style="vertical-align:top;">:</td><td><div>&lt;socket._fileobject object at 0x0363CDB0&gt;</div></td></tr><tr><td style="font-weight:bold;vertical-align:top;">wsgi_multiprocess</td><td style="vertical-align:top;">:</td><td><div>False</div></td></tr><tr><td style="font-weight:bold;vertical-align:top;">wsgi_multithread</td><td style="vertical-align:top;">:</td><td><div>True</div></td></tr><tr><td style="font-weight:bold;vertical-align:top;">wsgi_run_once</td><td style="vertical-align:top;">:</td><td><div>False</div></td></tr><tr><td style="font-weight:bold;vertical-align:top;">wsgi_url_scheme</td><td style="vertical-align:top;">:</td><td><div>http</div></td></tr><tr><td style="font-weight:bold;vertical-align:top;">wsgi_version</td><td style="vertical-align:top;">:</td><td><div><table><tr><td><div>1</div></td></tr><tr><td><div>0</div></td></tr></table></div></td></tr></table></div></td></tr><tr><td style="font-weight:bold;vertical-align:top;">extension</td><td style="vertical-align:top;">:</td><td><div>html</div></td></tr><tr><td style="font-weight:bold;vertical-align:top;">folder</td><td style="vertical-align:top;">:</td><td><div>D:\\web2py\\applications\\antecedentesplataforma\\</div></td></tr><tr><td style="font-weight:bold;vertical-align:top;">function</td><td style="vertical-align:top;">:</td><td><div>procesar</div></td></tr><tr><td style="font-weight:bold;vertical-align:top;">global_settings</td><td style="vertical-align:top;">:</td><td><div><table><tr><td style="font-weight:bold;vertical-align:top;">app_folders</td><td style="vertical-align:top;">:</td><td><div>set([&#x27;D:\\\\web2py\\\\applications\\\\admin\\\\&#x27;, &#x27;D:\\\\web2py\\\\applications\\\\welcome\\\\&#x27;, &#x27;D:\\\\web2py\\\\applications\\\\antecedentesplataforma\\\\&#x27;])</div></td></tr><tr><td style="font-weight:bold;vertical-align:top;">applications_parent</td><td style="vertical-align:top;">:</td><td><div>D:\\web2py</div></td></tr><tr><td style="font-weight:bold;vertical-align:top;">cmd_args</td><td style="vertical-align:top;">:</td><td><div><table></table></div></td></tr><tr><td style="font-weight:bold;vertical-align:top;">cmd_options</td><td style="vertical-align:top;">:</td><td><div>&lt;Values at 0x27edd50: {&#x27;verbose&#x27;: False, &#x27;ip&#x27;: &#x27;127.0.0.1&#x27;, &#x27;debuglevel&#x27;: 30, &#x27;with_scheduler&#x27;: False, &#x27;shutdown_timeout&#x27;: 5, &#x27;taskbar&#x27;: False, &#x27;with_coverage&#x27;: False, &#x27;pid_filename&#x27;: &#x27;httpserver.pid&#x27;, &#x27;maxthreads&#x27;: None, &#x27;softcron&#x27;: False, &#x27;server_name&#x27;: &#x27;HaTaK3-PC&#x27;, &#x27;bpython&#x27;: False, &#x27;nogui&#x27;: False, &#x27;port&#x27;: 8000, &#x27;print_errors&#x27;: False, &#x27;extcron&#x27;: False, &#x27;runcron&#x27;: False, &#x27;run_system_tests&#x27;: False, &#x27;test&#x27;: None, &#x27;folder&#x27;: &#x27;D:\\\\web2py&#x27;, &#x27;config&#x27;: &#x27;&#x27;, &#x27;minthreads&#x27;: None, &#x27;shell&#x27;: None, &#x27;run&#x27;: &#x27;&#x27;, &#x27;log_filename&#x27;: &#x27;httpserver.log&#x27;, &#x27;profiler_dir&#x27;: None, &#x27;args&#x27;: [&#x27;&#x27;], &#x27;socket_timeout&#x27;: 5, &#x27;ssl_ca_certificate&#x27;: None, &#x27;scheduler&#x27;: None, &#x27;interfaces&#x27;: None, &#x27;ssl_private_key&#x27;: &#x27;&#x27;, &#x27;gae&#x27;: None, &#x27;password&#x27;: &#x27;******&#x27;, &#x27;request_queue_size&#x27;: 5, &#x27;ssl_certificate&#x27;: &#x27;&#x27;, &#x27;cronjob&#x27;: False, &#x27;numthreads&#x27;: None, &#x27;quiet&#x27;: False, &#x27;import_models&#x27;: False, &#x27;timeout&#x27;: 10, &#x27;plain&#x27;: False, &#x27;nobanner&#x27;: False}&gt;</div></td></tr><tr><td style="font-weight:bold;vertical-align:top;">db_sessions</td><td style="vertical-align:top;">:</td><td><div>set([])</div></td></tr><tr><td style="font-weight:bold;vertical-align:top;">debugging</td><td style="vertical-align:top;">:</td><td><div>False</div></td></tr><tr><td style="font-weight:bold;vertical-align:top;">gluon_parent</td><td style="vertical-align:top;">:</td><td><div>D:\\web2py</div></td></tr><tr><td style="font-weight:bold;vertical-align:top;">is_jython</td><td style="vertical-align:top;">:</td><td><div>False</div></td></tr><tr><td style="font-weight:bold;vertical-align:top;">is_pypy</td><td style="vertical-align:top;">:</td><td><div>False</div></td></tr><tr><td style="font-weight:bold;vertical-align:top;">is_source</td><td style="vertical-align:top;">:</td><td><div>False</div></td></tr><tr><td style="font-weight:bold;vertical-align:top;">local_hosts</td><td style="vertical-align:top;">:</td><td><div><table><tr><td><div>HaTaK3-PC</div></td></tr><tr><td><div>::ffff:127.0.0.1</div></td></tr><tr><td><div>::1</div></td></tr><tr><td><div>fe80::65c7:8cfe:1866:2ddb%12</div></td></tr><tr><td><div>10.150.0.69</div></td></tr><tr><td><div>fe80::6de3:fa60:8d1c:59aa%11</div></td></tr><tr><td><div>127.0.0.1</div></td></tr><tr><td><div>192.168.56.1</div></td></tr></table></div></td></tr><tr><td style="font-weight:bold;vertical-align:top;">web2py_version</td><td style="vertical-align:top;">:</td><td><div>2.14.6-stable+timestamp.2016.05.10.00.21.47</div></td></tr></table></div></td></tr><tr><td style="font-weight:bold;vertical-align:top;">is_https</td><td style="vertical-align:top;">:</td><td><div>False</div></td></tr><tr><td style="font-weight:bold;vertical-align:top;">is_local</td><td style="vertical-align:top;">:</td><td><div>True</div></td></tr><tr><td style="font-weight:bold;vertical-align:top;">is_restful</td><td style="vertical-align:top;">:</td><td><div>False</div></td></tr><tr><td style="font-weight:bold;vertical-align:top;">is_scheduler</td><td style="vertical-align:top;">:</td><td><div>False</div></td></tr><tr><td style="font-weight:bold;vertical-align:top;">is_shell</td><td style="vertical-align:top;">:</td><td><div>False</div></td></tr><tr><td style="font-weight:bold;vertical-align:top;">now</td><td style="vertical-align:top;">:</td><td><div>datetime.datetime(2019, 4, 19, 9, 4, 52, 992000)</div></td></tr><tr><td style="font-weight:bold;vertical-align:top;">raw_args</td><td style="vertical-align:top;">:</td><td><div>71088</div></td></tr><tr><td style="font-weight:bold;vertical-align:top;">raw_extension</td><td style="vertical-align:top;">:</td><td><div>None</div></td></tr><tr><td style="font-weight:bold;vertical-align:top;">url</td><td style="vertical-align:top;">:</td><td><div>/antecedentesplataforma/confeccion/procesar/71088</div></td></tr><tr><td style="font-weight:bold;vertical-align:top;">utcnow</td><td style="vertical-align:top;">:</td><td><div>datetime.datetime(2019, 4, 19, 12, 4, 52, 992000)</div></td></tr><tr><td style="font-weight:bold;vertical-align:top;">wsgi</td><td style="vertical-align:top;">:</td><td><div>&lt;gluon.main.LazyWSGI object at 0x0BB0D930&gt;</div></td></tr></table></div>'
tRp58
sS'frames'
p59
(lp60
(dp61
S'file'
p62
S'D:\\web2py\\gluon\\restricted.py'
p63
sS'dump'
p64
(dp65
S'environment'
p66
S"{'A': <class 'gluon.html.A'>, 'ANY_OF': <class 'gluon.validators.ANY_OF'>, 'ASSIGNJS': <function ASSIGNJS>, 'AppConfig': <function AppConfig>, 'Auth': <class 'gluon.tools.Auth'>, 'B': <class 'gluon.html.B'>, 'BEAUTIFY': <class 'gluon.html.BEAUTIFY'>, 'BODY': <class 'gluon.html.BODY'>, 'BR': <class 'gluon.html.BR'>, 'BUTTON': <class 'gluon.html.BUTTON'>, ...}"
p67
sS'ccode'
p68
S'<code object <module> at 027F6068, file "D:\\web2...tesplataforma\\controllers/confeccion.py", line 1>'
p69
ssS'lnum'
p70
I227
sS'lines'
p71
(dp72
I224
S'            ccode = code'
p73
sI225
S'        else:'
p74
sI226
S'            ccode = compile2(code, layer)'
p75
sI227
S'        exec ccode in environment'
p76
sI228
S'    except HTTP:'
p77
sI229
S'        raise'
p78
sI230
S'    except RestrictedError:'
p79
sI231
S'        # do not encapsulate (obfuscate) the original RestrictedError'
p80
sI222
S'    try:'
p81
sI223
S'        if isinstance(code, types.CodeType):'
p82
ssS'call'
p83
S"(code='def confeccion():\\n\\treturn dict()\\ndef por_sistema...\\n\\t\\n\\n\\t\\t\\nresponse._vars=response._caller(procesar)\\n', environment={'A': <class 'gluon.html.A'>, 'ANY_OF': <class 'gluon.validators.ANY_OF'>, 'ASSIGNJS': <function ASSIGNJS>, 'AppConfig': <function AppConfig>, 'Auth': <class 'gluon.tools.Auth'>, 'B': <class 'gluon.html.B'>, 'BEAUTIFY': <class 'gluon.html.BEAUTIFY'>, 'BODY': <class 'gluon.html.BODY'>, 'BR': <class 'gluon.html.BR'>, 'BUTTON': <class 'gluon.html.BUTTON'>, ...}, layer=r'D:\\web2py\\applications\\antecedentesplataforma\\controllers/confeccion.py')"
p84
sS'func'
p85
S'restricted'
p86
sa(dp87
g62
S'D:\\web2py\\applications\\antecedentesplataforma\\controllers\\confeccion.py'
p88
sg64
(dp89
sg70
I134
sg71
(dp90
I128
S''
sI129
S''
sI130
S'\treturn dict()'
p91
sI131
S''
sI132
S''
sI133
S''
sI124
S''
sI125
S'def pre_imprimir():'
p92
sI126
S''
sI127
S''
ssg83
S'()'
p93
sg85
S'<module>'
p94
sa(dp95
g62
S'D:\\web2py\\gluon\\globals.py'
p96
sg64
(dp97
S'self'
p98
S'undefined'
p99
sS'f'
S'<function procesar>'
p100
ssg70
I417
sg71
(dp101
I416
S'        self._vars = None'
p102
sI417
S'        self._caller = lambda f: f()'
p103
sI418
S'        self._view_environment = None'
p104
sI419
S'        self._custom_commit = None'
p105
sI420
S'        self._custom_rollback = None'
p106
sI421
S"        self.generic_patterns = ['*']"
p107
sI412
S"        self.flash = ''            # used by the default view layout"
p108
sI413
S'        self.meta = Storage()      # used by web2py_ajax.html'
p109
sI414
S'        self.menu = []             # used by the default view layout'
p110
sI415
S'        self.files = []            # used by web2py_ajax.html'
p111
ssg83
S'(f=<function procesar>)'
p112
sg85
S'<lambda>'
p113
sa(dp114
g62
S'D:\\web2py\\applications\\antecedentesplataforma\\controllers\\confeccion.py'
p115
sg64
(dp116
S'error_message'
p117
g99
sS'global SQLFORM'
p118
S"<class 'gluon.sqlhtml.SQLFORM'>"
p119
sS'global IS_NOT_EMPTY'
p120
S"<class 'gluon.validators.IS_NOT_EMPTY'>"
p121
sS'capital_soli'
p122
S"'INTERIOR'"
p123
sS'global Field'
p124
S"<class 'pydal.objects.Field'>"
p125
sS'nombre_padron'
p126
S"'JUAN ANTONIO'"
p127
sS'Profesion_padron'
p128
S"'TEC. DE NIVEL MEDIO EN INFORMATICA'"
p129
sS'tiene'
p130
S"'NO'"
p131
sS'global IS_INT_IN_RANGE'
p132
S"<class 'gluon.validators.IS_INT_IN_RANGE'>"
p133
sS'tipo'
p134
S"'A.G.'"
p135
sS'dnpa_soli'
p136
S'29917029L'
p137
sS'num_padron'
p138
S'164440L'
p139
sS'label'
p140
g99
sS'iniciales'
p141
S"'J.U.'"
p142
sS'anteceden'
p143
S"''"
p144
sS'global IS_IN_SET'
p145
S"<class 'gluon.validators.IS_IN_SET'>"
p146
sS'pasa_padron'
p147
S"''"
p148
sS'civil_padron'
p149
S"'S'"
p150
sS'form'
p151
g99
sS'SQLFORM.factory'
p152
S'<function factory>'
p153
sS'pais_padron'
p154
S'1L'
p155
sS'soli_por_soli'
p156
S"''"
p157
sS'default'
p158
g99
sS'clase_padron'
p159
S"'1982'"
p160
sS'apellido_padron'
p161
S"'ULIVAR'"
p162
sS'domi_padron'
p163
S"'B\\xc2\\xb0 LA VI\\xc3\\x91ITA C/LOS REGIONALES N\\xc2\\xb0 2311-CAP.-CTCA.'"
p164
sS'global IS_IN_DB'
p165
S"<class 'gluon.validators.IS_IN_DB'>"
p166
sS'global db'
p167
S'<DAL uri="sqlite://storage.sqlite">'
p168
sS'requires'
p169
g99
ssg70
I53
sg71
(dp170
I48
S'\tpais_padron=pais_padron'
p171
sI49
S'\ttpront=""'
p172
sI50
S'\tqtipo=""'
p173
sI51
S'\t#realizo un set para sacar el ultimo numero de certificado'
p174
sI52
S''
sI53
S'\tultimo=db(db.solicitud.nro_certificado).select().last()'
p175
sI54
S'\t#realizo un factory para modificar los valores a imprimir'
p176
sI55
S''
sI56
S''
sI57
S''
ssg83
S'()'
p177
sg85
S'procesar'
p178
sa(dp179
g62
S'D:\\web2py\\gluon\\packages\\dal\\pydal\\objects.py'
p180
sg64
(dp181
S'self.query'
p182
S'<Query (solicitud.nro_certificado IS NOT NULL)>'
p183
sS'adapter.select'
p184
S'<bound method SQLiteAdapter.select of <pydal.adapters.sqlite.SQLiteAdapter object>>'
p185
sS'fields'
p186
S'[<pydal.objects.Field object>, <pydal.objects.Field object>, <pydal.objects.Field object>, <pydal.objects.Field object>, <pydal.objects.Field object>, <pydal.objects.Field object>, <pydal.objects.Field object>, <pydal.objects.Field object>, <pydal.objects.Field object>, <pydal.objects.Field object>, <pydal.objects.Field object>, <pydal.objects.Field object>, <pydal.objects.Field object>, <pydal.objects.Field object>, <pydal.objects.Field object>, <pydal.objects.Field object>, <pydal.objects.Field object>, <pydal.objects.Field object>, <pydal.objects.Field object>]'
p187
sS'adapter'
p188
S'<pydal.adapters.sqlite.SQLiteAdapter object>'
p189
sS'attributes'
p190
g45
sS'self'
p191
S'<Set (solicitud.nro_certificado IS NOT NULL)>'
p192
ssg70
I2020
sg71
(dp193
I2016
S"                                    attributes.get('left', None),"
p194
sI2017
S"                                    attributes.get('orderby', None),"
p195
sI2018
S"                                    attributes.get('groupby', None))"
p196
sI2019
S'        fields = adapter.expand_all(fields, tablenames)'
p197
sI2020
S'        return adapter.select(self.query, fields, attributes)'
p198
sI2021
S''
sI2022
S'    def iterselect(self, *fields, **attributes):'
p199
sI2023
S'        adapter = self.db._adapter'
p200
sI2024
S'        tablenames = adapter.tables(self.query,'
p201
sI2015
S"                                    attributes.get('join', None),"
p202
ssg83
S'(self=<Set (solicitud.nro_certificado IS NOT NULL)>, *fields=[<pydal.objects.Field object>, <pydal.objects.Field object>, <pydal.objects.Field object>, <pydal.objects.Field object>, <pydal.objects.Field object>, <pydal.objects.Field object>, <pydal.objects.Field object>, <pydal.objects.Field object>, <pydal.objects.Field object>, <pydal.objects.Field object>, <pydal.objects.Field object>, <pydal.objects.Field object>, <pydal.objects.Field object>, <pydal.objects.Field object>, <pydal.objects.Field object>, <pydal.objects.Field object>, <pydal.objects.Field object>, <pydal.objects.Field object>, <pydal.objects.Field object>], **attributes={})'
p203
sg85
S'select'
p204
sa(dp205
g62
S'D:\\web2py\\gluon\\packages\\dal\\pydal\\adapters\\sqlite.py'
p206
sg64
(dp207
S'fields'
p208
S'[<pydal.objects.Field object>, <pydal.objects.Field object>, <pydal.objects.Field object>, <pydal.objects.Field object>, <pydal.objects.Field object>, <pydal.objects.Field object>, <pydal.objects.Field object>, <pydal.objects.Field object>, <pydal.objects.Field object>, <pydal.objects.Field object>, <pydal.objects.Field object>, <pydal.objects.Field object>, <pydal.objects.Field object>, <pydal.objects.Field object>, <pydal.objects.Field object>, <pydal.objects.Field object>, <pydal.objects.Field object>, <pydal.objects.Field object>, <pydal.objects.Field object>]'
p209
sS'self'
p210
S'<pydal.adapters.sqlite.SQLiteAdapter object>'
p211
sS').select'
p212
S'<bound method SQLiteAdapter.select of <pydal.adapters.sqlite.SQLiteAdapter object>>'
p213
sS'attributes'
p214
g45
sS'global SQLiteAdapter'
p215
S"<class 'pydal.adapters.sqlite.SQLiteAdapter'>"
p216
sS'query'
p217
S'<Query (solicitud.nro_certificado IS NOT NULL)>'
p218
sS'builtinsuper'
p219
S"<type 'super'>"
p220
ssg70
I123
sg71
(dp221
I118
S'        Note that the entire database, rather than one record, is locked'
p222
sI119
S'        (it will be locked eventually anyway by the following UPDATE).'
p223
sI120
S'        """'
p224
sI121
S"        if attributes.get('for_update', False) and not 'cache' in attributes:"
p225
sI122
S"            self.execute('BEGIN IMMEDIATE TRANSACTION;')"
p226
sI123
S'        return super(SQLiteAdapter, self).select(query, fields, attributes)'
p227
sI124
S''
sI125
S''
sI126
S'SPATIALLIBS = {'
p228
sI127
S"    'Windows':'mod_spatialite.dll',"
p229
ssg83
S'(self=<pydal.adapters.sqlite.SQLiteAdapter object>, query=<Query (solicitud.nro_certificado IS NOT NULL)>, fields=[<pydal.objects.Field object>, <pydal.objects.Field object>, <pydal.objects.Field object>, <pydal.objects.Field object>, <pydal.objects.Field object>, <pydal.objects.Field object>, <pydal.objects.Field object>, <pydal.objects.Field object>, <pydal.objects.Field object>, <pydal.objects.Field object>, <pydal.objects.Field object>, <pydal.objects.Field object>, <pydal.objects.Field object>, <pydal.objects.Field object>, <pydal.objects.Field object>, <pydal.objects.Field object>, <pydal.objects.Field object>, <pydal.objects.Field object>, <pydal.objects.Field object>], attributes={})'
p230
sg85
g204
sa(dp231
g62
S'D:\\web2py\\gluon\\packages\\dal\\pydal\\adapters\\base.py'
p232
sg64
(dp233
S'fields'
p234
S'[<pydal.objects.Field object>, <pydal.objects.Field object>, <pydal.objects.Field object>, <pydal.objects.Field object>, <pydal.objects.Field object>, <pydal.objects.Field object>, <pydal.objects.Field object>, <pydal.objects.Field object>, <pydal.objects.Field object>, <pydal.objects.Field object>, <pydal.objects.Field object>, <pydal.objects.Field object>, <pydal.objects.Field object>, <pydal.objects.Field object>, <pydal.objects.Field object>, <pydal.objects.Field object>, <pydal.objects.Field object>, <pydal.objects.Field object>, <pydal.objects.Field object>]'
p235
sS'self'
p236
S'<pydal.adapters.sqlite.SQLiteAdapter object>'
p237
sS'attributes'
p238
g45
sS'self._select_aux'
p239
S'<bound method SQLiteAdapter._select_aux of <pydal.adapters.sqlite.SQLiteAdapter object>>'
p240
sS'sql'
p241
S"'SELECT  solicitud.id, solicitud.dni, solicitud.a...ud WHERE (solicitud.nro_certificado IS NOT NULL);'"
p242
ssg70
I1296
sg71
(dp243
I1291
S'            return cache_model('
p244
sI1292
S'                key,'
p245
sI1293
S'                lambda self=self,args=args:self._select_aux(*args),'
p246
sI1294
S'                time_expire)'
p247
sI1295
S'        else:'
p248
sI1296
S'            return self._select_aux(sql,fields,attributes)'
p249
sI1297
S''
sI1298
S'    def iterselect(self, query, fields, attributes):'
p250
sI1299
S'        sql = self._select(query, fields, attributes)'
p251
sI1300
S"        cacheable = attributes.get('cacheable', False)"
p252
ssg83
S'(self=<pydal.adapters.sqlite.SQLiteAdapter object>, query=<Query (solicitud.nro_certificado IS NOT NULL)>, fields=[<pydal.objects.Field object>, <pydal.objects.Field object>, <pydal.objects.Field object>, <pydal.objects.Field object>, <pydal.objects.Field object>, <pydal.objects.Field object>, <pydal.objects.Field object>, <pydal.objects.Field object>, <pydal.objects.Field object>, <pydal.objects.Field object>, <pydal.objects.Field object>, <pydal.objects.Field object>, <pydal.objects.Field object>, <pydal.objects.Field object>, <pydal.objects.Field object>, <pydal.objects.Field object>, <pydal.objects.Field object>, <pydal.objects.Field object>, <pydal.objects.Field object>], attributes={})'
p253
sg85
g204
sa(dp254
g62
S'D:\\web2py\\gluon\\packages\\dal\\pydal\\adapters\\base.py'
p255
sg64
(dp256
S'rows'
p257
S"[(1, u'24309476', u'ACOSTA', u'LIA NATALIA', u'', u'0', u'0', u'24/14', u'Completado', u'2014-03-12', None, u'ANTE LAS AUTORIDADES QUE LO REQUIERAN.', u'', u'', u'admin', u'127.0.0.1', u'', None, None), (2, u'25119120', u'BOBANYI', u'PEDRO GABRIEL DEL ROSARIO', u'M', u'1', u'111673', u'25/14', u'Completado', u'2014-03-12', None, u'ANTE LAS AUTORIDADES QUE LO REQUIERAN.', u'CAPITAL', u'H.S.', u'admin', u'127.0.0.1', u'192.168.10.10', None, None), (3, u'37307240', u'SECO', u'DANIELA FERNANDA', u'F', u'1', u'183683', u'26/14', u'Completado', u'2014-03-12', None, u'ANTE LAS AUTORIDADES QUE LO REQUIERAN.', u'CAPITAL', u'B.G.', u'admin', u'192.168.10.10', u'192.168.10.10', None, None), (4, u'22834561', u'TOLEDO', u'RAMON EDGAR', u'', u'0', u'', u'6201/14', u'Completado', u'2014-03-13', None, u'ANTE LAS AUTORIDADES QUE LO REQUIERAN.', u'', u'', u'entrada', u'192.168.10.101', u'', None, None), (5, u'21615234', u'AG\\xdcERO DE SOSA ROBLEDO', u'EMMA ESTER', u'F', u'1', u'96883', u'6202/14', u'Completado', u'2014-03-13', None, u'ANTE LAS AUTORIDADES QUE LO REQUIERAN.', u'CAPITAL', u'E.A.', u'entrada', u'192.168.10.101', u'192.168.10.103', None, None), (6, u'17259242', u'SEGOVIA', u'PEDRO PABLO', u'', u'1', u'84261', u'6203/14', u'Anulado', u'2014-03-13', None, u'ANTE LAS AUTORIDADES QUE LO REQUIERAN.', u'', u'', u'entrada', u'192.168.10.101', u'', None, None), (7, u'32429526', u'ZU\\xd1IGA', u'CARLOS GUSTAVO', u'', u'1', u'152699', u'6204/14', u'Anulado', u'2014-03-13', None, u'ANTE LAS AUTORIDADES QUE LO REQUIERAN.', u'', u'', u'entrada', u'192.168.10.101', u'', None, None), (8, u'25191909', u'MORENO', u'EDGARDO JAIME', u'', u'0', u'0', u'6205/14', u'Completado', u'2014-03-13', None, u'ANTE LAS AUTORIDADES QUE LO REQUIERAN.', u'', u'', u'entrada', u'192.168.10.101', u'', None, None), (9, u'17920072', u'NAVARRETE DE FERNANDEZ', u'MONICA GRACIELA', u'F', u'1', u'103679', u'6206/14', u'Completado', u'2014-03-13', None, u'ANTE LAS AUTORIDADES QUE LO REQUIERAN.', u'CAPITAL', u'H.S.', u'entrada', u'192.168.10.101', u'192.168.10.101', None, None), (10, u'21682110', u'CHAZARRETA DE RODRIGUEZ', u'ANA VERONICA', u'', u'1', u'97809', u'6207/14', u'Anulado', u'2014-03-13', None, u'ANTE LAS AUTORIDADES QUE LO REQUIERAN.', u'', u'', u'entrada', u'192.168.10.101', u'', None, None), (11, u'29187315', u'CARRIZO OVIEDO', u'MARIA BELEN', u'', u'1', u'126316', u'6208/14', u'Anulado', u'2014-03-13', None, u'ANTE LAS AUTORIDADES QUE LO REQUIERAN.', u'', u'', u'entrada', u'192.168.10.101', u'', None, None), (12, u'37314827', u'CARRANZA', u'MARCIO ALEJANDRO', u'M', u'1', u'188139', u'6209/14', u'Completado', u'2014-03-13', None, u'ANTE LAS AUTORIDADES QUE LO REQUIERAN.', u'CAPITAL', u'B.G.', u'admin', u'192.168.10.103', u'192.168.10.103', None, None), (13, u'33695495', u'DELGADO', u'CINTHIA ROMINA', u'', u'0', u'A.G. N\\xb0190.803', u'6210/14', u'Anulado', u'2014-03-13', None, u'ANTE LAS AUTORIDADES QUE LO REQUIERAN.', u'', u'', u'entrada', u'192.168.10.101', u'', None, None), (14, u'36843704', u'HERRERA', u'DAYHANA DEL VALLE', u'', u'1', u'176721', u'6211/14', u'Anulado', u'2014-03-13', None, u'ANTE LAS AUTORIDADES QUE LO REQUIERAN.', u'', u'', u'entrada', u'192.168.10.101', u'', None, None), (15, u'24830317', u'BULACIOS DE QUIROGA', u'MARIA INES DEL VALLE', u'', u'1', u'125497', u'6212/14', u'Anulado', u'2014-03-13', None, u'ANTE LAS AUTORIDADES QUE LO REQUIERAN.', u'', u'', u'entrada', u'192.168.10.101', u'', None, None), (16, u'32681932', u'ALAMO', u'MARA DE JESUS', u'', u'1', u'202116', u'6213/14', u'Anulado', u'2014-03-13', None, u'ANTE LAS AUTORIDADES QUE LO REQUIERAN.', u'', u'', u'entrada', u'192.168.10.101', u'', None, None), (17, u'28404229', u'FERNANDEZ', u'MARIA LAURA', u'', u'1', u'135603', u'6214/14', u'Anulado', u'2014-03-13', None, u'ANTE LAS AUTORIDADES QUE LO REQUIERAN.', u'', u'', u'entrada', u'192.168.10.101', u'', None, None), (18, u'13707503', u'RIOS DE ROMERO', u'MARIA LIA', u'', u'2', u'85400', u'6215/14', u'Anulado', u'2014-03-13', None, u'ANTE LAS AUTORIDADES QUE LO REQUIERAN.', u'', u'', u'entrada', u'192.168.10.101', u'', None, None), (19, u'21855686', u'ROLDAN', u'MARIA SUSANA', u'', u'1', u'96.882', u'6216/14', u'Anulado', u'2014-03-13', None, u'ANTE LAS AUTORIDADES QUE LO REQUIERAN.', u'', u'', u'entrada', u'192.168.10.101', u'', None, None), (20, u'18060711', u'HERRERA', u'MARIA FLORA', u'', u'1', u'79420', u'6217/14', u'Completado', u'2014-03-13', None, u'ANTE LAS AUTORIDADES QUE LO REQUIERAN.', u'', u'', u'entrada', u'192.168.10.101', u'', None, None), ...]"
p258
sS'fields'
p259
S'[<pydal.objects.Field object>, <pydal.objects.Field object>, <pydal.objects.Field object>, <pydal.objects.Field object>, <pydal.objects.Field object>, <pydal.objects.Field object>, <pydal.objects.Field object>, <pydal.objects.Field object>, <pydal.objects.Field object>, <pydal.objects.Field object>, <pydal.objects.Field object>, <pydal.objects.Field object>, <pydal.objects.Field object>, <pydal.objects.Field object>, <pydal.objects.Field object>, <pydal.objects.Field object>, <pydal.objects.Field object>, <pydal.objects.Field object>, <pydal.objects.Field object>]'
p260
sS'self'
p261
S'<pydal.adapters.sqlite.SQLiteAdapter object>'
p262
sS'cacheable'
p263
S'False'
p264
sS'self._colnames'
p265
S"['solicitud.id', 'solicitud.dni', 'solicitud.apellido', 'solicitud.nombre', 'solicitud.genero', 'solicitud.tipo_prontuario', 'solicitud.prontuario', 'solicitud.nro_certificado', 'solicitud.estado_solicitud', 'solicitud.fecha_solicitada', 'solicitud.hora', 'solicitud.solicitado_por', 'solicitud.capitalinterior', 'solicitud.intervino', 'solicitud.usuario', 'solicitud.ip_solicitante', 'solicitud.ip_confeccion', 'solicitud.t_antecedentes', 'solicitud.antecedentes']"
p266
sS'processor'
p267
S'<bound method SQLiteAdapter.parse of <pydal.adapters.sqlite.SQLiteAdapter object>>'
p268
ssg70
I1277
sg71
(dp269
I1280
S'        """'
p270
sI1281
S'        Always returns a Rows object, possibly empty.'
p271
sI1272
S'            rows = list(rows)'
p272
sI1273
S"        limitby = args_get('limitby', None) or (0,)"
p273
sI1274
S'        rows = self.rowslice(rows,limitby[0],None)'
p274
sI1275
S"        processor = args_get('processor', self.parse)"
p275
sI1276
S"        cacheable = args_get('cacheable',False)"
p276
sI1277
S'        return processor(rows,fields,self._colnames,cacheable=cacheable)'
p277
sI1278
S''
sI1279
S'    def select(self, query, fields, attributes):'
p278
ssg83
S"(self=<pydal.adapters.sqlite.SQLiteAdapter object>, sql='SELECT  solicitud.id, solicitud.dni, solicitud.a...ud WHERE (solicitud.nro_certificado IS NOT NULL);', fields=[<pydal.objects.Field object>, <pydal.objects.Field object>, <pydal.objects.Field object>, <pydal.objects.Field object>, <pydal.objects.Field object>, <pydal.objects.Field object>, <pydal.objects.Field object>, <pydal.objects.Field object>, <pydal.objects.Field object>, <pydal.objects.Field object>, <pydal.objects.Field object>, <pydal.objects.Field object>, <pydal.objects.Field object>, <pydal.objects.Field object>, <pydal.objects.Field object>, <pydal.objects.Field object>, <pydal.objects.Field object>, <pydal.objects.Field object>, <pydal.objects.Field object>], attributes={})"
p279
sg85
S'_select_aux'
p280
sa(dp281
g62
S'D:\\web2py\\gluon\\packages\\dal\\pydal\\adapters\\base.py'
p282
sg64
(dp283
S'rows'
p284
S"[(1, u'24309476', u'ACOSTA', u'LIA NATALIA', u'', u'0', u'0', u'24/14', u'Completado', u'2014-03-12', None, u'ANTE LAS AUTORIDADES QUE LO REQUIERAN.', u'', u'', u'admin', u'127.0.0.1', u'', None, None), (2, u'25119120', u'BOBANYI', u'PEDRO GABRIEL DEL ROSARIO', u'M', u'1', u'111673', u'25/14', u'Completado', u'2014-03-12', None, u'ANTE LAS AUTORIDADES QUE LO REQUIERAN.', u'CAPITAL', u'H.S.', u'admin', u'127.0.0.1', u'192.168.10.10', None, None), (3, u'37307240', u'SECO', u'DANIELA FERNANDA', u'F', u'1', u'183683', u'26/14', u'Completado', u'2014-03-12', None, u'ANTE LAS AUTORIDADES QUE LO REQUIERAN.', u'CAPITAL', u'B.G.', u'admin', u'192.168.10.10', u'192.168.10.10', None, None), (4, u'22834561', u'TOLEDO', u'RAMON EDGAR', u'', u'0', u'', u'6201/14', u'Completado', u'2014-03-13', None, u'ANTE LAS AUTORIDADES QUE LO REQUIERAN.', u'', u'', u'entrada', u'192.168.10.101', u'', None, None), (5, u'21615234', u'AG\\xdcERO DE SOSA ROBLEDO', u'EMMA ESTER', u'F', u'1', u'96883', u'6202/14', u'Completado', u'2014-03-13', None, u'ANTE LAS AUTORIDADES QUE LO REQUIERAN.', u'CAPITAL', u'E.A.', u'entrada', u'192.168.10.101', u'192.168.10.103', None, None), (6, u'17259242', u'SEGOVIA', u'PEDRO PABLO', u'', u'1', u'84261', u'6203/14', u'Anulado', u'2014-03-13', None, u'ANTE LAS AUTORIDADES QUE LO REQUIERAN.', u'', u'', u'entrada', u'192.168.10.101', u'', None, None), (7, u'32429526', u'ZU\\xd1IGA', u'CARLOS GUSTAVO', u'', u'1', u'152699', u'6204/14', u'Anulado', u'2014-03-13', None, u'ANTE LAS AUTORIDADES QUE LO REQUIERAN.', u'', u'', u'entrada', u'192.168.10.101', u'', None, None), (8, u'25191909', u'MORENO', u'EDGARDO JAIME', u'', u'0', u'0', u'6205/14', u'Completado', u'2014-03-13', None, u'ANTE LAS AUTORIDADES QUE LO REQUIERAN.', u'', u'', u'entrada', u'192.168.10.101', u'', None, None), (9, u'17920072', u'NAVARRETE DE FERNANDEZ', u'MONICA GRACIELA', u'F', u'1', u'103679', u'6206/14', u'Completado', u'2014-03-13', None, u'ANTE LAS AUTORIDADES QUE LO REQUIERAN.', u'CAPITAL', u'H.S.', u'entrada', u'192.168.10.101', u'192.168.10.101', None, None), (10, u'21682110', u'CHAZARRETA DE RODRIGUEZ', u'ANA VERONICA', u'', u'1', u'97809', u'6207/14', u'Anulado', u'2014-03-13', None, u'ANTE LAS AUTORIDADES QUE LO REQUIERAN.', u'', u'', u'entrada', u'192.168.10.101', u'', None, None), (11, u'29187315', u'CARRIZO OVIEDO', u'MARIA BELEN', u'', u'1', u'126316', u'6208/14', u'Anulado', u'2014-03-13', None, u'ANTE LAS AUTORIDADES QUE LO REQUIERAN.', u'', u'', u'entrada', u'192.168.10.101', u'', None, None), (12, u'37314827', u'CARRANZA', u'MARCIO ALEJANDRO', u'M', u'1', u'188139', u'6209/14', u'Completado', u'2014-03-13', None, u'ANTE LAS AUTORIDADES QUE LO REQUIERAN.', u'CAPITAL', u'B.G.', u'admin', u'192.168.10.103', u'192.168.10.103', None, None), (13, u'33695495', u'DELGADO', u'CINTHIA ROMINA', u'', u'0', u'A.G. N\\xb0190.803', u'6210/14', u'Anulado', u'2014-03-13', None, u'ANTE LAS AUTORIDADES QUE LO REQUIERAN.', u'', u'', u'entrada', u'192.168.10.101', u'', None, None), (14, u'36843704', u'HERRERA', u'DAYHANA DEL VALLE', u'', u'1', u'176721', u'6211/14', u'Anulado', u'2014-03-13', None, u'ANTE LAS AUTORIDADES QUE LO REQUIERAN.', u'', u'', u'entrada', u'192.168.10.101', u'', None, None), (15, u'24830317', u'BULACIOS DE QUIROGA', u'MARIA INES DEL VALLE', u'', u'1', u'125497', u'6212/14', u'Anulado', u'2014-03-13', None, u'ANTE LAS AUTORIDADES QUE LO REQUIERAN.', u'', u'', u'entrada', u'192.168.10.101', u'', None, None), (16, u'32681932', u'ALAMO', u'MARA DE JESUS', u'', u'1', u'202116', u'6213/14', u'Anulado', u'2014-03-13', None, u'ANTE LAS AUTORIDADES QUE LO REQUIERAN.', u'', u'', u'entrada', u'192.168.10.101', u'', None, None), (17, u'28404229', u'FERNANDEZ', u'MARIA LAURA', u'', u'1', u'135603', u'6214/14', u'Anulado', u'2014-03-13', None, u'ANTE LAS AUTORIDADES QUE LO REQUIERAN.', u'', u'', u'entrada', u'192.168.10.101', u'', None, None), (18, u'13707503', u'RIOS DE ROMERO', u'MARIA LIA', u'', u'2', u'85400', u'6215/14', u'Anulado', u'2014-03-13', None, u'ANTE LAS AUTORIDADES QUE LO REQUIERAN.', u'', u'', u'entrada', u'192.168.10.101', u'', None, None), (19, u'21855686', u'ROLDAN', u'MARIA SUSANA', u'', u'1', u'96.882', u'6216/14', u'Anulado', u'2014-03-13', None, u'ANTE LAS AUTORIDADES QUE LO REQUIERAN.', u'', u'', u'entrada', u'192.168.10.101', u'', None, None), (20, u'18060711', u'HERRERA', u'MARIA FLORA', u'', u'1', u'79420', u'6217/14', u'Completado', u'2014-03-13', None, u'ANTE LAS AUTORIDADES QUE LO REQUIERAN.', u'', u'', u'entrada', u'192.168.10.101', u'', None, None), ...]"
p285
sS'row'
p286
S"(40413, u'', u'', u'', u'', u'0', u'', u'', u'Anulado', u'2016-01-25', None, u'', u'', u'', u'ivi', u'', u'', None, None)"
p287
ssg70
I1767
sg71
(dp288
I1762
S''
sI1763
S'    def parse(self, rows, fields, colnames, blob_decode=True, cacheable=False):'
p289
sI1764
S'        (fields_virtual, fields_lazy, tmps) = self._parse_expand_colnames(colnames)'
p290
sI1765
S'        new_rows = [self._parse(row, tmps, fields, colnames, blob_decode,'
p291
sI1766
S'                                cacheable, fields_virtual, fields_lazy)'
p292
sI1767
S'                    for row in rows]'
p293
sI1768
S''
sI1769
S'        rowsobj = Rows(self.db, new_rows, colnames, rawrows=rows)'
p294
sI1770
S''
sI1771
S'        # Old stype virtual fields'
p295
ssg83
S"(self=<pydal.adapters.sqlite.SQLiteAdapter object>, rows=[(1, u'24309476', u'ACOSTA', u'LIA NATALIA', u'', u'0', u'0', u'24/14', u'Completado', u'2014-03-12', None, u'ANTE LAS AUTORIDADES QUE LO REQUIERAN.', u'', u'', u'admin', u'127.0.0.1', u'', None, None), (2, u'25119120', u'BOBANYI', u'PEDRO GABRIEL DEL ROSARIO', u'M', u'1', u'111673', u'25/14', u'Completado', u'2014-03-12', None, u'ANTE LAS AUTORIDADES QUE LO REQUIERAN.', u'CAPITAL', u'H.S.', u'admin', u'127.0.0.1', u'192.168.10.10', None, None), (3, u'37307240', u'SECO', u'DANIELA FERNANDA', u'F', u'1', u'183683', u'26/14', u'Completado', u'2014-03-12', None, u'ANTE LAS AUTORIDADES QUE LO REQUIERAN.', u'CAPITAL', u'B.G.', u'admin', u'192.168.10.10', u'192.168.10.10', None, None), (4, u'22834561', u'TOLEDO', u'RAMON EDGAR', u'', u'0', u'', u'6201/14', u'Completado', u'2014-03-13', None, u'ANTE LAS AUTORIDADES QUE LO REQUIERAN.', u'', u'', u'entrada', u'192.168.10.101', u'', None, None), (5, u'21615234', u'AG\\xdcERO DE SOSA ROBLEDO', u'EMMA ESTER', u'F', u'1', u'96883', u'6202/14', u'Completado', u'2014-03-13', None, u'ANTE LAS AUTORIDADES QUE LO REQUIERAN.', u'CAPITAL', u'E.A.', u'entrada', u'192.168.10.101', u'192.168.10.103', None, None), (6, u'17259242', u'SEGOVIA', u'PEDRO PABLO', u'', u'1', u'84261', u'6203/14', u'Anulado', u'2014-03-13', None, u'ANTE LAS AUTORIDADES QUE LO REQUIERAN.', u'', u'', u'entrada', u'192.168.10.101', u'', None, None), (7, u'32429526', u'ZU\\xd1IGA', u'CARLOS GUSTAVO', u'', u'1', u'152699', u'6204/14', u'Anulado', u'2014-03-13', None, u'ANTE LAS AUTORIDADES QUE LO REQUIERAN.', u'', u'', u'entrada', u'192.168.10.101', u'', None, None), (8, u'25191909', u'MORENO', u'EDGARDO JAIME', u'', u'0', u'0', u'6205/14', u'Completado', u'2014-03-13', None, u'ANTE LAS AUTORIDADES QUE LO REQUIERAN.', u'', u'', u'entrada', u'192.168.10.101', u'', None, None), (9, u'17920072', u'NAVARRETE DE FERNANDEZ', u'MONICA GRACIELA', u'F', u'1', u'103679', u'6206/14', u'Completado', u'2014-03-13', None, u'ANTE LAS AUTORIDADES QUE LO REQUIERAN.', u'CAPITAL', u'H.S.', u'entrada', u'192.168.10.101', u'192.168.10.101', None, None), (10, u'21682110', u'CHAZARRETA DE RODRIGUEZ', u'ANA VERONICA', u'', u'1', u'97809', u'6207/14', u'Anulado', u'2014-03-13', None, u'ANTE LAS AUTORIDADES QUE LO REQUIERAN.', u'', u'', u'entrada', u'192.168.10.101', u'', None, None), (11, u'29187315', u'CARRIZO OVIEDO', u'MARIA BELEN', u'', u'1', u'126316', u'6208/14', u'Anulado', u'2014-03-13', None, u'ANTE LAS AUTORIDADES QUE LO REQUIERAN.', u'', u'', u'entrada', u'192.168.10.101', u'', None, None), (12, u'37314827', u'CARRANZA', u'MARCIO ALEJANDRO', u'M', u'1', u'188139', u'6209/14', u'Completado', u'2014-03-13', None, u'ANTE LAS AUTORIDADES QUE LO REQUIERAN.', u'CAPITAL', u'B.G.', u'admin', u'192.168.10.103', u'192.168.10.103', None, None), (13, u'33695495', u'DELGADO', u'CINTHIA ROMINA', u'', u'0', u'A.G. N\\xb0190.803', u'6210/14', u'Anulado', u'2014-03-13', None, u'ANTE LAS AUTORIDADES QUE LO REQUIERAN.', u'', u'', u'entrada', u'192.168.10.101', u'', None, None), (14, u'36843704', u'HERRERA', u'DAYHANA DEL VALLE', u'', u'1', u'176721', u'6211/14', u'Anulado', u'2014-03-13', None, u'ANTE LAS AUTORIDADES QUE LO REQUIERAN.', u'', u'', u'entrada', u'192.168.10.101', u'', None, None), (15, u'24830317', u'BULACIOS DE QUIROGA', u'MARIA INES DEL VALLE', u'', u'1', u'125497', u'6212/14', u'Anulado', u'2014-03-13', None, u'ANTE LAS AUTORIDADES QUE LO REQUIERAN.', u'', u'', u'entrada', u'192.168.10.101', u'', None, None), (16, u'32681932', u'ALAMO', u'MARA DE JESUS', u'', u'1', u'202116', u'6213/14', u'Anulado', u'2014-03-13', None, u'ANTE LAS AUTORIDADES QUE LO REQUIERAN.', u'', u'', u'entrada', u'192.168.10.101', u'', None, None), (17, u'28404229', u'FERNANDEZ', u'MARIA LAURA', u'', u'1', u'135603', u'6214/14', u'Anulado', u'2014-03-13', None, u'ANTE LAS AUTORIDADES QUE LO REQUIERAN.', u'', u'', u'entrada', u'192.168.10.101', u'', None, None), (18, u'13707503', u'RIOS DE ROMERO', u'MARIA LIA', u'', u'2', u'85400', u'6215/14', u'Anulado', u'2014-03-13', None, u'ANTE LAS AUTORIDADES QUE LO REQUIERAN.', u'', u'', u'entrada', u'192.168.10.101', u'', None, None), (19, u'21855686', u'ROLDAN', u'MARIA SUSANA', u'', u'1', u'96.882', u'6216/14', u'Anulado', u'2014-03-13', None, u'ANTE LAS AUTORIDADES QUE LO REQUIERAN.', u'', u'', u'entrada', u'192.168.10.101', u'', None, None), (20, u'18060711', u'HERRERA', u'MARIA FLORA', u'', u'1', u'79420', u'6217/14', u'Completado', u'2014-03-13', None, u'ANTE LAS AUTORIDADES QUE LO REQUIERAN.', u'', u'', u'entrada', u'192.168.10.101', u'', None, None), ...], fields=[<pydal.objects.Field object>, <pydal.objects.Field object>, <pydal.objects.Field object>, <pydal.objects.Field object>, <pydal.objects.Field object>, <pydal.objects.Field object>, <pydal.objects.Field object>, <pydal.objects.Field object>, <pydal.objects.Field object>, <pydal.objects.Field object>, <pydal.objects.Field object>, <pydal.objects.Field object>, <pydal.objects.Field object>, <pydal.objects.Field object>, <pydal.objects.Field object>, <pydal.objects.Field object>, <pydal.objects.Field object>, <pydal.objects.Field object>, <pydal.objects.Field object>], colnames=['solicitud.id', 'solicitud.dni', 'solicitud.apellido', 'solicitud.nombre', 'solicitud.genero', 'solicitud.tipo_prontuario', 'solicitud.prontuario', 'solicitud.nro_certificado', 'solicitud.estado_solicitud', 'solicitud.fecha_solicitada', 'solicitud.hora', 'solicitud.solicitado_por', 'solicitud.capitalinterior', 'solicitud.intervino', 'solicitud.usuario', 'solicitud.ip_solicitante', 'solicitud.ip_confeccion', 'solicitud.t_antecedentes', 'solicitud.antecedentes'], blob_decode=True, cacheable=False)"
p296
sg85
S'parse'
p297
sa(dp298
g62
S'D:\\web2py\\gluon\\packages\\dal\\pydal\\adapters\\base.py'
p299
sg64
(dp300
S'blob_decode'
p301
S'True'
p302
sS'self'
p303
S'<pydal.adapters.sqlite.SQLiteAdapter object>'
p304
sS'ft'
p305
S"'integer'"
p306
sS'value'
p307
S"u''"
p308
sS'self.parse_value'
p309
S'<bound method SQLiteAdapter.parse_value of <pydal.adapters.sqlite.SQLiteAdapter object>>'
p310
ssg70
I1677
sg71
(dp311
I1672
S'                (tablename, fieldname, table, field, ft) = tmp'
p312
sI1673
S'                colset = new_row.get(tablename, None)'
p313
sI1674
S'                if colset is None:'
p314
sI1675
S'                    colset = new_row[tablename] = self.db.Row()'
p315
sI1676
S''
sI1677
S'                value = self.parse_value(value, ft, blob_decode)'
p316
sI1678
S'                if field.filter_out:'
p317
sI1679
S'                    value = field.filter_out(value)'
p318
sI1680
S'                colset[fieldname] = value'
p319
sI1681
S''
ssg83
S"(self=<pydal.adapters.sqlite.SQLiteAdapter object>, row=(40413, u'', u'', u'', u'', u'0', u'', u'', u'Anulado', u'2016-01-25', None, u'', u'', u'', u'ivi', u'', u'', None, None), tmps=[('solicitud', 'id', <Table solicitud (id, dni, apellido, nombre, gen...te, ip_confeccion, t_antecedentes, antecedentes)>, <pydal.objects.Field object>, 'id'), ('solicitud', 'dni', <Table solicitud (id, dni, apellido, nombre, gen...te, ip_confeccion, t_antecedentes, antecedentes)>, <pydal.objects.Field object>, 'integer'), ('solicitud', 'apellido', <Table solicitud (id, dni, apellido, nombre, gen...te, ip_confeccion, t_antecedentes, antecedentes)>, <pydal.objects.Field object>, 'string'), ('solicitud', 'nombre', <Table solicitud (id, dni, apellido, nombre, gen...te, ip_confeccion, t_antecedentes, antecedentes)>, <pydal.objects.Field object>, 'string'), ('solicitud', 'genero', <Table solicitud (id, dni, apellido, nombre, gen...te, ip_confeccion, t_antecedentes, antecedentes)>, <pydal.objects.Field object>, 'string'), ('solicitud', 'tipo_prontuario', <Table solicitud (id, dni, apellido, nombre, gen...te, ip_confeccion, t_antecedentes, antecedentes)>, <pydal.objects.Field object>, 'string'), ('solicitud', 'prontuario', <Table solicitud (id, dni, apellido, nombre, gen...te, ip_confeccion, t_antecedentes, antecedentes)>, <pydal.objects.Field object>, 'string'), ('solicitud', 'nro_certificado', <Table solicitud (id, dni, apellido, nombre, gen...te, ip_confeccion, t_antecedentes, antecedentes)>, <pydal.objects.Field object>, 'string'), ('solicitud', 'estado_solicitud', <Table solicitud (id, dni, apellido, nombre, gen...te, ip_confeccion, t_antecedentes, antecedentes)>, <pydal.objects.Field object>, 'string'), ('solicitud', 'fecha_solicitada', <Table solicitud (id, dni, apellido, nombre, gen...te, ip_confeccion, t_antecedentes, antecedentes)>, <pydal.objects.Field object>, 'datetime'), ('solicitud', 'hora', <Table solicitud (id, dni, apellido, nombre, gen...te, ip_confeccion, t_antecedentes, antecedentes)>, <pydal.objects.Field object>, 'datetime'), ('solicitud', 'solicitado_por', <Table solicitud (id, dni, apellido, nombre, gen...te, ip_confeccion, t_antecedentes, antecedentes)>, <pydal.objects.Field object>, 'string'), ('solicitud', 'capitalinterior', <Table solicitud (id, dni, apellido, nombre, gen...te, ip_confeccion, t_antecedentes, antecedentes)>, <pydal.objects.Field object>, 'string'), ('solicitud', 'intervino', <Table solicitud (id, dni, apellido, nombre, gen...te, ip_confeccion, t_antecedentes, antecedentes)>, <pydal.objects.Field object>, 'string'), ('solicitud', 'usuario', <Table solicitud (id, dni, apellido, nombre, gen...te, ip_confeccion, t_antecedentes, antecedentes)>, <pydal.objects.Field object>, 'string'), ('solicitud', 'ip_solicitante', <Table solicitud (id, dni, apellido, nombre, gen...te, ip_confeccion, t_antecedentes, antecedentes)>, <pydal.objects.Field object>, 'string'), ('solicitud', 'ip_confeccion', <Table solicitud (id, dni, apellido, nombre, gen...te, ip_confeccion, t_antecedentes, antecedentes)>, <pydal.objects.Field object>, 'string'), ('solicitud', 't_antecedentes', <Table solicitud (id, dni, apellido, nombre, gen...te, ip_confeccion, t_antecedentes, antecedentes)>, <pydal.objects.Field object>, 'string'), ('solicitud', 'antecedentes', <Table solicitud (id, dni, apellido, nombre, gen...te, ip_confeccion, t_antecedentes, antecedentes)>, <pydal.objects.Field object>, 'text')], fields=[<pydal.objects.Field object>, <pydal.objects.Field object>, <pydal.objects.Field object>, <pydal.objects.Field object>, <pydal.objects.Field object>, <pydal.objects.Field object>, <pydal.objects.Field object>, <pydal.objects.Field object>, <pydal.objects.Field object>, <pydal.objects.Field object>, <pydal.objects.Field object>, <pydal.objects.Field object>, <pydal.objects.Field object>, <pydal.objects.Field object>, <pydal.objects.Field object>, <pydal.objects.Field object>, <pydal.objects.Field object>, <pydal.objects.Field object>, <pydal.objects.Field object>], colnames=['solicitud.id', 'solicitud.dni', 'solicitud.apellido', 'solicitud.nombre', 'solicitud.genero', 'solicitud.tipo_prontuario', 'solicitud.prontuario', 'solicitud.nro_certificado', 'solicitud.estado_solicitud', 'solicitud.fecha_solicitada', 'solicitud.hora', 'solicitud.solicitado_por', 'solicitud.capitalinterior', 'solicitud.intervino', 'solicitud.usuario', 'solicitud.ip_solicitante', 'solicitud.ip_confeccion', 'solicitud.t_antecedentes', 'solicitud.antecedentes'], blob_decode=True, cacheable=False, fields_virtual={'solicitud': []}, fields_lazy={'solicitud': []})"
p320
sg85
S'_parse'
p321
sa(dp322
g62
S'D:\\web2py\\gluon\\packages\\dal\\pydal\\adapters\\base.py'
p323
sg64
(dp324
S'field_type'
p325
S"'integer'"
p326
sS'self'
p327
S'<pydal.adapters.sqlite.SQLiteAdapter object>'
p328
sS'self.parsemap'
p329
S"{'bigint': <bound method SQLiteAdapter.parse_integer of <pydal.adapters.sqlite.SQLiteAdapter object>>, 'blob': <bound method SQLiteAdapter.parse_blob of <pydal.adapters.sqlite.SQLiteAdapter object>>, 'boolean': <bound method SQLiteAdapter.parse_boolean of <pydal.adapters.sqlite.SQLiteAdapter object>>, 'date': <bound method SQLiteAdapter.parse_date of <pydal.adapters.sqlite.SQLiteAdapter object>>, 'datetime': <bound method SQLiteAdapter.parse_datetime of <pydal.adapters.sqlite.SQLiteAdapter object>>, 'decimal': <bound method SQLiteAdapter.parse_decimal of <pydal.adapters.sqlite.SQLiteAdapter object>>, 'double': <bound method SQLiteAdapter.parse_double of <pydal.adapters.sqlite.SQLiteAdapter object>>, 'float': <bound method SQLiteAdapter.parse_double of <pydal.adapters.sqlite.SQLiteAdapter object>>, 'id': <bound method SQLiteAdapter.parse_id of <pydal.adapters.sqlite.SQLiteAdapter object>>, 'integer': <bound method SQLiteAdapter.parse_integer of <pydal.adapters.sqlite.SQLiteAdapter object>>, ...}"
p330
sS'value'
p331
S"''"
p332
sS'key'
p333
S"'integer'"
p334
ssg70
I1527
sg71
(dp335
I1522
S'            return value'
p336
sI1523
S"        elif field_type == 'blob' and not blob_decode:"
p337
sI1524
S'            return value'
p338
sI1525
S'        else:'
p339
sI1526
S'            key = REGEX_TYPE.match(field_type).group(0)'
p340
sI1527
S'            return self.parsemap[key](value,field_type)'
p341
sI1528
S''
sI1529
S'    def parse_reference(self, value, field_type):'
p342
sI1530
S'        referee = field_type[10:].strip()'
p343
sI1531
S"        if not '.' in referee:"
p344
ssg83
S"(self=<pydal.adapters.sqlite.SQLiteAdapter object>, value='', field_type='integer', blob_decode=True)"
p345
sg85
S'parse_value'
p346
sa(dp347
g62
S'D:\\web2py\\gluon\\packages\\dal\\pydal\\adapters\\base.py'
p348
sg64
(dp349
S'global long'
p350
S"<type 'long'>"
p351
sS'value'
p352
S"''"
p353
ssg70
I1625
sg71
(dp354
I1620
S''
sI1621
S'    def parse_id(self, value, field_type):'
p355
sI1622
S'        return long(value)'
p356
sI1623
S''
sI1624
S'    def parse_integer(self, value, field_type):'
p357
sI1625
S'        return long(value)'
p358
sI1626
S''
sI1627
S'    def parse_double(self, value, field_type):'
p359
sI1628
S'        return float(value)'
p360
sI1629
S''
ssg83
S"(self=<pydal.adapters.sqlite.SQLiteAdapter object>, value='', field_type='integer')"
p361
sg85
S'parse_integer'
p362
sasS'pyver'
p363
S'Python 2.7.9: D:\\web2py\\web2py.exe (prefix: )'
p364
sS'session'
p365
g57
(S's*\x0c\x00\x00<div><table><tr><td style="font-weight:bold;vertical-align:top;">auth</td><td style="vertical-align:top;">:</td><td><div><table><tr><td style="font-weight:bold;vertical-align:top;">expiration</td><td style="vertical-align:top;">:</td><td><div>3600</div></td></tr><tr><td style="font-weight:bold;vertical-align:top;">hmac_key</td><td style="vertical-align:top;">:</td><td><div>0cbdc9ae-ae6d-422b-b3ee-17d7fe848e03</div></td></tr><tr><td style="font-weight:bold;vertical-align:top;">last_visit</td><td style="vertical-align:top;">:</td><td><div>datetime.datetime(2019, 4, 19, 9, 2, 22, 138000)</div></td></tr><tr><td style="font-weight:bold;vertical-align:top;">remember_me</td><td style="vertical-align:top;">:</td><td><div>False</div></td></tr><tr><td style="font-weight:bold;vertical-align:top;">user</td><td style="vertical-align:top;">:</td><td><div><table><tr><td style="font-weight:bold;vertical-align:top;">dni</td><td style="vertical-align:top;">:</td><td><div>29917029</div></td></tr><tr><td style="font-weight:bold;vertical-align:top;">email</td><td style="vertical-align:top;">:</td><td><div>juan@ulivar.com</div></td></tr><tr><td style="font-weight:bold;vertical-align:top;">first_name</td><td style="vertical-align:top;">:</td><td><div>juan</div></td></tr><tr><td style="font-weight:bold;vertical-align:top;">id</td><td style="vertical-align:top;">:</td><td><div>1L</div></td></tr><tr><td style="font-weight:bold;vertical-align:top;">iniciales</td><td style="vertical-align:top;">:</td><td><div>J.U.</div></td></tr><tr><td style="font-weight:bold;vertical-align:top;">last_name</td><td style="vertical-align:top;">:</td><td><div>ulivar</div></td></tr><tr><td style="font-weight:bold;vertical-align:top;">oficina</td><td style="vertical-align:top;">:</td><td><div>Super</div></td></tr><tr><td style="font-weight:bold;vertical-align:top;">registration_id</td><td style="vertical-align:top;">:</td><td><div></div></td></tr><tr><td style="font-weight:bold;vertical-align:top;">registration_key</td><td style="vertical-align:top;">:</td><td><div></div></td></tr><tr><td style="font-weight:bold;vertical-align:top;">reset_password_key</td><td style="vertical-align:top;">:</td><td><div></div></td></tr><tr><td style="font-weight:bold;vertical-align:top;">username</td><td style="vertical-align:top;">:</td><td><div>uli</div></td></tr></table></div></td></tr><tr><td style="font-weight:bold;vertical-align:top;">user_groups</td><td style="vertical-align:top;">:</td><td><div><table><tr><td style="font-weight:bold;vertical-align:top;">1</td><td style="vertical-align:top;">:</td><td><div>Super</div></td></tr></table></div></td></tr></table></div></td></tr><tr><td style="font-weight:bold;vertical-align:top;">flash</td><td style="vertical-align:top;">:</td><td><div>None</div></td></tr><tr><td style="font-weight:bold;vertical-align:top;">last_orderby</td><td style="vertical-align:top;">:</td><td><div>None</div></td></tr><tr><td style="font-weight:bold;vertical-align:top;">last_query</td><td style="vertical-align:top;">:</td><td><div>db.historial.intervino==&quot;J.U.&quot;</div></td></tr></table></div>'
tRp366
sS'etype'
p367
S"<type 'exceptions.ValueError'>"
p368
sS'date'
p369
S'Fri Apr 19 09:04:59 2019'
p370
sS'response'
p371
g57
(S's\xd5@\x00\x00<div><table><tr><td style="font-weight:bold;vertical-align:top;">body</td><td style="vertical-align:top;">:</td><td><div>&lt;cStringIO.StringO object at 0x0BB0B360&gt;</div></td></tr><tr><td style="font-weight:bold;vertical-align:top;">cookies</td><td style="vertical-align:top;">:</td><td><div><table><tr><td style="font-weight:bold;vertical-align:top;">session_id_antecedentesplataforma</td><td style="vertical-align:top;">:</td><td><div>127.0.0.1-9fd3fe3c-dda4-4589-bb56-14df99b5a51f<table><tr><td style="font-weight:bold;vertical-align:top;">comment</td><td style="vertical-align:top;">:</td><td><div></div></td></tr><tr><td style="font-weight:bold;vertical-align:top;">domain</td><td style="vertical-align:top;">:</td><td><div></div></td></tr><tr><td style="font-weight:bold;vertical-align:top;">expires</td><td style="vertical-align:top;">:</td><td><div></div></td></tr><tr><td style="font-weight:bold;vertical-align:top;">httponly</td><td style="vertical-align:top;">:</td><td><div></div></td></tr><tr><td style="font-weight:bold;vertical-align:top;">max-age</td><td style="vertical-align:top;">:</td><td><div></div></td></tr><tr><td style="font-weight:bold;vertical-align:top;">path</td><td style="vertical-align:top;">:</td><td><div>/</div></td></tr><tr><td style="font-weight:bold;vertical-align:top;">secure</td><td style="vertical-align:top;">:</td><td><div></div></td></tr><tr><td style="font-weight:bold;vertical-align:top;">version</td><td style="vertical-align:top;">:</td><td><div></div></td></tr></table></div></td></tr></table></div></td></tr><tr><td style="font-weight:bold;vertical-align:top;">delimiters</td><td style="vertical-align:top;">:</td><td><div><table><tr><td><div>{{</div></td></tr><tr><td><div>}}</div></td></tr></table></div></td></tr><tr><td style="font-weight:bold;vertical-align:top;">files</td><td style="vertical-align:top;">:</td><td><div><table></table></div></td></tr><tr><td style="font-weight:bold;vertical-align:top;">flash</td><td style="vertical-align:top;">:</td><td><div></div></td></tr><tr><td style="font-weight:bold;vertical-align:top;">form_label_separator</td><td style="vertical-align:top;">:</td><td><div></div></td></tr><tr><td style="font-weight:bold;vertical-align:top;">formstyle</td><td style="vertical-align:top;">:</td><td><div>bootstrap3_inline</div></td></tr><tr><td style="font-weight:bold;vertical-align:top;">generic_patterns</td><td style="vertical-align:top;">:</td><td><div><table><tr><td><div>*</div></td></tr></table></div></td></tr><tr><td style="font-weight:bold;vertical-align:top;">google_analytics_id</td><td style="vertical-align:top;">:</td><td><div>None</div></td></tr><tr><td style="font-weight:bold;vertical-align:top;">headers</td><td style="vertical-align:top;">:</td><td><div><table><tr><td style="font-weight:bold;vertical-align:top;">X-Powered-By</td><td style="vertical-align:top;">:</td><td><div>web2py</div></td></tr></table></div></td></tr><tr><td style="font-weight:bold;vertical-align:top;">logo</td><td style="vertical-align:top;">:</td><td><div><a class="navbar-brand" href="http://www.web2py.com/" id="web2py-logo"><b>web<span>2</span>py</b>&trade;&nbsp;</a></div></td></tr><tr><td style="font-weight:bold;vertical-align:top;">menu</td><td style="vertical-align:top;">:</td><td><div><table><tr><td><div><table><tr><td><div>Inicio</div></td></tr><tr><td><div>False</div></td></tr><tr><td><div>/antecedentesplataforma/default/index</div></td></tr><tr><td><div><table></table></div></td></tr></table></div></td></tr><tr><td><div><table><tr><td><div>Mis Sitios</div></td></tr><tr><td><div>False</div></td></tr><tr><td><div>/admin/default/site</div></td></tr></table></div></td></tr><tr><td><div><table><tr><td><div>Esta Aplicaci\xc3\xb3n</div></td></tr><tr><td><div>False</div></td></tr><tr><td><div>#</div></td></tr><tr><td><div><table><tr><td><div><table><tr><td><div>Design</div></td></tr><tr><td><div>False</div></td></tr><tr><td><div>/admin/default/design/antecedentesplataforma</div></td></tr></table></div></td></tr><tr><td><div><li class="divider"></li></div></td></tr><tr><td><div><table><tr><td><div>Controlador</div></td></tr><tr><td><div>False</div></td></tr><tr><td><div>/admin/default/edit/antecedentesplataforma/controllers/confeccion.py</div></td></tr></table></div></td></tr><tr><td><div><table><tr><td><div>Vista</div></td></tr><tr><td><div>False</div></td></tr><tr><td><div>/admin/default/edit/antecedentesplataforma/views/confeccion/procesar.html</div></td></tr></table></div></td></tr><tr><td><div><table><tr><td><div>Modelo BDD</div></td></tr><tr><td><div>False</div></td></tr><tr><td><div>/admin/default/edit/antecedentesplataforma/models/db.py</div></td></tr></table></div></td></tr><tr><td><div><table><tr><td><div>Modelo "menu"</div></td></tr><tr><td><div>False</div></td></tr><tr><td><div>/admin/default/edit/antecedentesplataforma/models/menu.py</div></td></tr></table></div></td></tr><tr><td><div><table><tr><td><div>Config.ini</div></td></tr><tr><td><div>False</div></td></tr><tr><td><div>/admin/default/edit/antecedentesplataforma/private/appconfig.ini</div></td></tr></table></div></td></tr><tr><td><div><table><tr><td><div>Dise\xc3\xb1o de p\xc3\xa1gina</div></td></tr><tr><td><div>False</div></td></tr><tr><td><div>/admin/default/edit/antecedentesplataforma/views/layout.html</div></td></tr></table></div></td></tr><tr><td><div><table><tr><td><div>Hoja de estilo</div></td></tr><tr><td><div>False</div></td></tr><tr><td><div>/admin/default/edit/antecedentesplataforma/static/css/web2py-bootstrap3.css</div></td></tr></table></div></td></tr><tr><td><div><table><tr><td><div>Base de datos</div></td></tr><tr><td><div>False</div></td></tr><tr><td><div>/antecedentesplataforma/appadmin/index</div></td></tr></table></div></td></tr><tr><td><div><table><tr><td><div>Errores</div></td></tr><tr><td><div>False</div></td></tr><tr><td><div>/admin/default/errors/antecedentesplataforma</div></td></tr></table></div></td></tr><tr><td><div><table><tr><td><div>Acerca de</div></td></tr><tr><td><div>False</div></td></tr><tr><td><div>/admin/default/about/antecedentesplataforma</div></td></tr></table></div></td></tr></table></div></td></tr></table></div></td></tr><tr><td><div><table><tr><td><div>web2py.com</div></td></tr><tr><td><div>False</div></td></tr><tr><td><div>#</div></td></tr><tr><td><div><table><tr><td><div><table><tr><td><div>Descargas</div></td></tr><tr><td><div>False</div></td></tr><tr><td><div>http://www.web2py.com/examples/default/download</div></td></tr></table></div></td></tr><tr><td><div><table><tr><td><div>Soporte</div></td></tr><tr><td><div>False</div></td></tr><tr><td><div>http://www.web2py.com/examples/default/support</div></td></tr></table></div></td></tr><tr><td><div><table><tr><td><div>Demostraci\xc3\xb3n</div></td></tr><tr><td><div>False</div></td></tr><tr><td><div>http://web2py.com/demo_admin</div></td></tr></table></div></td></tr><tr><td><div><table><tr><td><div>Ejemplos R\xc3\xa1pidos</div></td></tr><tr><td><div>False</div></td></tr><tr><td><div>http://web2py.com/examples/default/examples</div></td></tr></table></div></td></tr><tr><td><div><table><tr><td><div>FAQ</div></td></tr><tr><td><div>False</div></td></tr><tr><td><div>http://web2py.com/AlterEgo</div></td></tr></table></div></td></tr><tr><td><div><table><tr><td><div>V\xc3\xaddeos</div></td></tr><tr><td><div>False</div></td></tr><tr><td><div>http://www.web2py.com/examples/default/videos/</div></td></tr></table></div></td></tr><tr><td><div><table><tr><td><div>Aplicaciones Libres</div></td></tr><tr><td><div>False</div></td></tr><tr><td><div>http://web2py.com/appliances</div></td></tr></table></div></td></tr><tr><td><div><table><tr><td><div>Plugins</div></td></tr><tr><td><div>False</div></td></tr><tr><td><div>http://web2py.com/plugins</div></td></tr></table></div></td></tr><tr><td><div><table><tr><td><div>Recetas</div></td></tr><tr><td><div>False</div></td></tr><tr><td><div>http://web2pyslices.com/</div></td></tr></table></div></td></tr></table></div></td></tr></table></div></td></tr><tr><td><div><table><tr><td><div>Documentaci\xc3\xb3n</div></td></tr><tr><td><div>False</div></td></tr><tr><td><div>#</div></td></tr><tr><td><div><table><tr><td><div><table><tr><td><div>Online book</div></td></tr><tr><td><div>False</div></td></tr><tr><td><div>http://www.web2py.com/book</div></td></tr></table></div></td></tr><tr><td><div><li class="divider"></li></div></td></tr><tr><td><div><table><tr><td><div>Prefacio</div></td></tr><tr><td><div>False</div></td></tr><tr><td><div>http://www.web2py.com/book/default/chapter/00</div></td></tr></table></div></td></tr><tr><td><div><table><tr><td><div>Introducci\xc3\xb3n</div></td></tr><tr><td><div>False</div></td></tr><tr><td><div>http://www.web2py.com/book/default/chapter/01</div></td></tr></table></div></td></tr><tr><td><div><table><tr><td><div>Python</div></td></tr><tr><td><div>False</div></td></tr><tr><td><div>http://www.web2py.com/book/default/chapter/02</div></td></tr></table></div></td></tr><tr><td><div><table><tr><td><div>Resumen</div></td></tr><tr><td><div>False</div></td></tr><tr><td><div>http://www.web2py.com/book/default/chapter/03</div></td></tr></table></div></td></tr><tr><td><div><table><tr><td><div>El N\xc3\xbacleo</div></td></tr><tr><td><div>False</div></td></tr><tr><td><div>http://www.web2py.com/book/default/chapter/04</div></td></tr></table></div></td></tr><tr><td><div><table><tr><td><div>Las Vistas</div></td></tr><tr><td><div>False</div></td></tr><tr><td><div>http://www.web2py.com/book/default/chapter/05</div></td></tr></table></div></td></tr><tr><td><div><table><tr><td><div>Base de datos</div></td></tr><tr><td><div>False</div></td></tr><tr><td><div>http://www.web2py.com/book/default/chapter/06</div></td></tr></table></div></td></tr><tr><td><div><table><tr><td><div>Formularios y validadores</div></td></tr><tr><td><div>False</div></td></tr><tr><td><div>http://www.web2py.com/book/default/chapter/07</div></td></tr></table></div></td></tr><tr><td><div><table><tr><td><div>Correo electr\xc3\xb3nico y SMS</div></td></tr><tr><td><div>False</div></td></tr><tr><td><div>http://www.web2py.com/book/default/chapter/08</div></td></tr></table></div></td></tr><tr><td><div><table><tr><td><div>Control de Acceso</div></td></tr><tr><td><div>False</div></td></tr><tr><td><div>http://www.web2py.com/book/default/chapter/09</div></td></tr></table></div></td></tr><tr><td><div><table><tr><td><div>Servicios</div></td></tr><tr><td><div>False</div></td></tr><tr><td><div>http://www.web2py.com/book/default/chapter/10</div></td></tr></table></div></td></tr><tr><td><div><table><tr><td><div>Recetas AJAX</div></td></tr><tr><td><div>False</div></td></tr><tr><td><div>http://www.web2py.com/book/default/chapter/11</div></td></tr></table></div></td></tr><tr><td><div><table><tr><td><div>Componentes y Plugins</div></td></tr><tr><td><div>False</div></td></tr><tr><td><div>http://www.web2py.com/book/default/chapter/12</div></td></tr></table></div></td></tr><tr><td><div><table><tr><td><div>Recetas de despliegue</div></td></tr><tr><td><div>False</div></td></tr><tr><td><div>http://www.web2py.com/book/default/chapter/13</div></td></tr></table></div></td></tr><tr><td><div><table><tr><td><div>Otras Recetas</div></td></tr><tr><td><div>False</div></td></tr><tr><td><div>http://www.web2py.com/book/default/chapter/14</div></td></tr></table></div></td></tr><tr><td><div><table><tr><td><div>Helping web2py</div></td></tr><tr><td><div>False</div></td></tr><tr><td><div>http://www.web2py.com/book/default/chapter/15</div></td></tr></table></div></td></tr><tr><td><div><table><tr><td><div>Buy web2py\'s book</div></td></tr><tr><td><div>False</div></td></tr><tr><td><div>http://stores.lulu.com/web2py</div></td></tr></table></div></td></tr></table></div></td></tr></table></div></td></tr><tr><td><div><table><tr><td><div>Comunidad</div></td></tr><tr><td><div>False</div></td></tr><tr><td><div>None</div></td></tr><tr><td><div><table><tr><td><div><table><tr><td><div>Grupos</div></td></tr><tr><td><div>False</div></td></tr><tr><td><div>http://www.web2py.com/examples/default/usergroups</div></td></tr></table></div></td></tr><tr><td><div><table><tr><td><div>Twitter</div></td></tr><tr><td><div>False</div></td></tr><tr><td><div>http://twitter.com/web2py</div></td></tr></table></div></td></tr><tr><td><div><table><tr><td><div>Chat en vivo</div></td></tr><tr><td><div>False</div></td></tr><tr><td><div>http://webchat.freenode.net/?channels=web2py</div></td></tr></table></div></td></tr></table></div></td></tr></table></div></td></tr></table></div></td></tr><tr><td style="font-weight:bold;vertical-align:top;">meta</td><td style="vertical-align:top;">:</td><td><div><table><tr><td style="font-weight:bold;vertical-align:top;">author</td><td style="vertical-align:top;">:</td><td><div>Your Name &lt;you@example.com&gt;</div></td></tr><tr><td style="font-weight:bold;vertical-align:top;">description</td><td style="vertical-align:top;">:</td><td><div>a cool new app</div></td></tr><tr><td style="font-weight:bold;vertical-align:top;">generator</td><td style="vertical-align:top;">:</td><td><div>Web2py Web Framework</div></td></tr><tr><td style="font-weight:bold;vertical-align:top;">keywords</td><td style="vertical-align:top;">:</td><td><div><table><tr><td><div>web2py</div></td></tr><tr><td><div>python</div></td></tr><tr><td><div>framework</div></td></tr></table></div></td></tr></table></div></td></tr><tr><td style="font-weight:bold;vertical-align:top;">models_to_run</td><td style="vertical-align:top;">:</td><td><div><table><tr><td><div>^\\w+\\.py$</div></td></tr><tr><td><div>^confeccion/\\w+\\.py$</div></td></tr><tr><td><div>^confeccion/procesar/\\w+\\.py$</div></td></tr></table></div></td></tr><tr><td style="font-weight:bold;vertical-align:top;">postprocessing</td><td style="vertical-align:top;">:</td><td><div><table></table></div></td></tr><tr><td style="font-weight:bold;vertical-align:top;">session_client</td><td style="vertical-align:top;">:</td><td><div>127.0.0.1</div></td></tr><tr><td style="font-weight:bold;vertical-align:top;">session_cookie_compression_level</td><td style="vertical-align:top;">:</td><td><div>None</div></td></tr><tr><td style="font-weight:bold;vertical-align:top;">session_cookie_expires</td><td style="vertical-align:top;">:</td><td><div>None</div></td></tr><tr><td style="font-weight:bold;vertical-align:top;">session_data_name</td><td style="vertical-align:top;">:</td><td><div>session_data_antecedentesplataforma</div></td></tr><tr><td style="font-weight:bold;vertical-align:top;">session_file</td><td style="vertical-align:top;">:</td><td><div>&lt;open file &#x27;D:\\\\web2py\\\\applications\\\\antecedentesplataforma\\\\sessions\\\\1a6\\\\01b\\\\127.0.0.1-9fd3fe3c-dda4-4589-bb56-14df99b5a51f&#x27;, mode &#x27;rb+&#x27; at 0x0882D548&gt;</div></td></tr><tr><td style="font-weight:bold;vertical-align:top;">session_filename</td><td style="vertical-align:top;">:</td><td><div>D:\\web2py\\applications\\antecedentesplataforma\\sessions\\127.0.0.1-9fd3fe3c-dda4-4589-bb56-14df99b5a51f</div></td></tr><tr><td style="font-weight:bold;vertical-align:top;">session_hash</td><td style="vertical-align:top;">:</td><td><div>a5e12319a2612c34d446bae59eca29e7</div></td></tr><tr><td style="font-weight:bold;vertical-align:top;">session_id</td><td style="vertical-align:top;">:</td><td><div>127.0.0.1-9fd3fe3c-dda4-4589-bb56-14df99b5a51f</div></td></tr><tr><td style="font-weight:bold;vertical-align:top;">session_id_name</td><td style="vertical-align:top;">:</td><td><div>session_id_antecedentesplataforma</div></td></tr><tr><td style="font-weight:bold;vertical-align:top;">session_locked</td><td style="vertical-align:top;">:</td><td><div>True</div></td></tr><tr><td style="font-weight:bold;vertical-align:top;">session_masterapp</td><td style="vertical-align:top;">:</td><td><div>antecedentesplataforma</div></td></tr><tr><td style="font-weight:bold;vertical-align:top;">session_new</td><td style="vertical-align:top;">:</td><td><div>False</div></td></tr><tr><td style="font-weight:bold;vertical-align:top;">session_storage_type</td><td style="vertical-align:top;">:</td><td><div>file</div></td></tr><tr><td style="font-weight:bold;vertical-align:top;">status</td><td style="vertical-align:top;">:</td><td><div>200</div></td></tr><tr><td style="font-weight:bold;vertical-align:top;">subtitle</td><td style="vertical-align:top;">:</td><td><div></div></td></tr><tr><td style="font-weight:bold;vertical-align:top;">title</td><td style="vertical-align:top;">:</td><td><div>Antecedentesplataforma</div></td></tr><tr><td style="font-weight:bold;vertical-align:top;">view</td><td style="vertical-align:top;">:</td><td><div>confeccion/procesar.html</div></td></tr></table></div>'
tRp372
sS'locals'
p373
(dp374
S'field_type'
p375
S"'integer'"
p376
sS'self'
p377
S'<pydal.adapters.sqlite.SQLiteAdapter object>'
p378
sS'value'
p379
S"''"
p380
sssS'traceback'
p381
S'Traceback (most recent call last):\n  File "D:\\web2py\\gluon\\restricted.py", line 227, in restricted\n    exec ccode in environment\n  File "D:\\web2py\\applications\\antecedentesplataforma\\controllers/confeccion.py", line 134, in <module>\n  File "D:\\web2py\\gluon\\globals.py", line 417, in <lambda>\n    self._caller = lambda f: f()\n  File "D:\\web2py\\applications\\antecedentesplataforma\\controllers/confeccion.py", line 53, in procesar\n    ultimo=db(db.solicitud.nro_certificado).select().last()\n  File "D:\\web2py\\gluon\\packages\\dal\\pydal\\objects.py", line 2020, in select\n    return adapter.select(self.query, fields, attributes)\n  File "D:\\web2py\\gluon\\packages\\dal\\pydal\\adapters\\sqlite.py", line 123, in select\n    return super(SQLiteAdapter, self).select(query, fields, attributes)\n  File "D:\\web2py\\gluon\\packages\\dal\\pydal\\adapters\\base.py", line 1296, in select\n    return self._select_aux(sql,fields,attributes)\n  File "D:\\web2py\\gluon\\packages\\dal\\pydal\\adapters\\base.py", line 1277, in _select_aux\n    return processor(rows,fields,self._colnames,cacheable=cacheable)\n  File "D:\\web2py\\gluon\\packages\\dal\\pydal\\adapters\\base.py", line 1767, in parse\n    for row in rows]\n  File "D:\\web2py\\gluon\\packages\\dal\\pydal\\adapters\\base.py", line 1677, in _parse\n    value = self.parse_value(value, ft, blob_decode)\n  File "D:\\web2py\\gluon\\packages\\dal\\pydal\\adapters\\base.py", line 1527, in parse_value\n    return self.parsemap[key](value,field_type)\n  File "D:\\web2py\\gluon\\packages\\dal\\pydal\\adapters\\base.py", line 1625, in parse_integer\n    return long(value)\nValueError: invalid literal for long() with base 10: \'\'\n'
p382
s.