(dp1
S'output'
p2
S'<type \'exceptions.IOError\'> Cannot open resource "d:\\web2py\\applications\\antecedentesplataforma\\static\\images\\encabezado.jpg"'
p3
sS'layer'
p4
S'D:\\web2pyVersion2.14.6\\applications\\antecedentesplataforma\\controllers/imprimir.py'
p5
sS'code'
p6
S'\nfrom reportlab.pdfgen import canvas\n# def encabezado():\n# \tpdf="con_antecedentes.pdf"#largo,alto#defino como se va a llamar el arhivo pfg\n# \toficio=(612,1010) #configuro los tama\xc3\xb1os de la hoja oficio \n# \t#A4=612.0, 792.0 \n# \tdoc = canvas.Canvas(pdf,pagesize=oficio)\n# \tmargen=db(db.margenes).select().first()\n# \tx = margen.x\n# \tlargo=612.0\t\n# \ty =margen.y\n# \talto=1010  \n\t\n# \treturn dict()\n\ndef sin_antecedentes():\n\t\t#importo para poner la fecha\n\tfrom datetime import *    \n    \thoyfecha=datetime.today() #capturo la fecha de hoy\n    \tdia=hoyfecha.day #capturo el dia\n    \tdia=str(dia)#paso el dia a string\n    \tmes=hoyfecha.month #capturo el mes\n    \tmes=str(mes)#paso el dia a string\n    \t#creo un diccionario para reemplazar el numero del mes por el nombre del mes\n    \tmeses={"1":"ENERO","2":"FEBRERO","3":"MARZO","4":"ABRIL","5":"MAYO","6":"JUNIO","7":"JULIO","8":"AGOSTO","9":"SEPTIEMBRE","10":"OCTUBRE","11":"NOVIEMBRE","12":"DICIEMBRE"}\n    \t\n    \tqmes=meses[mes]# reemplazo el numero del mes en el diccionario mes\n    \tanio=hoyfecha.year #capturo el a\xc3\xb1o\n    \tanio=str(anio)\t#paso el a\xc3\xb1o a string para pornerlo en el pdf\n\tide_padron=request.args[1]\t#traigo el argumento del id del padron\n\tide_soli=request.args[0] \t#traigo el argumento del id de la solicitud\n\tdni=request.args[2] \t\t#traigo el dni de la persona\n\tDNI=str(dni)\t\t\t\t#paso el dni a string para ponerlo en el pdf\n\tpa=db(db.padron.id==ide_padron).select().first() #realizo un set para sacar los datos de la tabla padron\n\tape=pa.Apellido \t#capturo el apellido\n\n\tape=ape+","\t\t\t#le agrego una coma al apellido\n\n\n\tnom=pa.Nombre \t\t#capturo el nombre\n\t\n\tclase=pa.Clase \t\t#capturo la clase\n\tclase=str(clase) \t#paso la clase a string para ponerlo en el pdf\n\tdni=pa.DocumentoNro\t#capturo el dni\n\tdni=str(dni)\t\t#paso el dni a string para ponerlo en el pdf\n\tpasa=pa.Pasaporte\t#capturo el pasaporte\n\tpasa=str(pasa)\t\t#paso el pasaporte a string\n\tpesa=len(dni)\n\tvalor=""\n\tif pesa==0:\n\t\tvalor=pasa\n\telse:\n\t\tvalor=dni\n\n\n\tnacion=pa.IdPais\t#saco el id del pais \t\n\tpaises=db(db.paises.id==nacion).select().first()# hago un set para sacar el pais\n\tpais=paises.pais \t#saco el nombre del pais\n\tvil={"S":"SOLTERO/A","C":"CASADO/A","D":"DIVORSIADO/A","V":"VIUDO/A"} #creo un diccionario \t\n\tcivil=pa.EstadoCivil\t# capturo el estado civil\n\te_civil=vil[civil]#reemplazo en el diccionario vil\t\n\tprof=pa.Profesion  #saco la profesion\n\tdirec=pa.Direccion #saco la direccion\n\tclave={\'1\':"A.G.",\'2\':"C.I.",\'3\':"D.C.P.",\'4\':"D.E.",\'5\':"R.C.",\'6\':"S.P.",\'0\':None} #creo un diccionario para los tipos de prontuario\n\ttipo=pa.IdProntuarioTipo #saco el id del tipo de prontuario\n\ttipo=str(tipo)\t#\n\tnpront=pa.ProntuarioNro\n\tnpront=str(npront)\n\tqtipo=clave[tipo]\t\n\tsol=db(db.solicitud.id==ide_soli).select().first()\n\tsolipor=sol.solicitado_por\n\tnum=sol.nro_certificado\n\tcapital=sol.capitalinterior\n\tintervino=sol.intervino\n\tfecha=sol.fecha_solicitada\t\n\tuser=sol.usuario\n\ttiene=sol.t_antecedentes\n\tante=sol.antecedentes\n\tsol.update_record(estado_solicitud="Impreso")\n\t#Importamos los modulos necesarios\n\tfrom reportlab.pdfgen import canvas# clase para crear el documento\n\tfrom reportlab.lib.colors import white,red,green,blue,gray,black#colores\t\n\tfrom os import startfile\t\n\tpdf="ej.pdf"#largo,alto#defino como se va a llamar el arhivo pfg\n\tcertificado=(602,620) #configuro los tama\xc3\xb1os de la hoja del certificado\n\tdoc = canvas.Canvas(pdf,pagesize=certificado)\n\tmargen=db(db.margenes).select().first()\n\tx = margen.x\n\tlargo=602\n\ty =margen.y\n\talto=620\n\t#sumo al apellidos\n\tcuanto_ape= len(ape) #cuento la cantidad de digitos\n\tcuanto_ape=float(cuanto_ape)\n\tcuanto_ape=(cuanto_ape+x)*6\t#realizo esta operacion para q se acomode el nombre y no deje espacios\n\n\n\n\tdoc.setFont("Courier", 10)#fuente de letra y tama\xc3\xb1o\n\tdoc.drawString(110+x,455+y,ape)#para poner texto valores x,y\n\n\tdoc.setFont("Courier",10)\t#fuente de letra y tama\xc3\xb1o\n\tdoc.drawString(cuanto_ape+120+x,455+y,nom)#para poner texto valores x,y\n\n\tdoc.setFont("Courier",10)\t#fuente de letra y tama\xc3\xb1o\n\tdoc.drawString(270+x,438+y,clase)#para poner texto valores x,y\n\n\tdoc.setFont("Courier",10)\t#fuente de letra y tama\xc3\xb1o\n\tdoc.drawString(373+x,438+y,valor)#para poner texto valores x,y\n\n\tdoc.setFont("Courier",10)\t#fuente de letra y tama\xc3\xb1o\n\tdoc.drawString(173+x,420+y,pais)#para poner texto valores x,y\n\n\tdoc.setFont("Courier",10)\t#fuente de letra y tama\xc3\xb1o\n\tdoc.drawString(380+x,420+y,e_civil)#para poner texto valores x,y\n\n\tdoc.setFont("Courier",10)\t#fuente de letra y tama\xc3\xb1o\n\tdoc.drawString(157+x,406+y,prof)#para poner texto valores x,y\n\n\tdoc.setFont("Courier",10)\t#fuente de letra y tama\xc3\xb1o\n\tdoc.drawString(160+x,390+y,direc)#para poner texto valores x,y\n\n\tdoc.setFont("Courier",10)\t#fuente de letra y tama\xc3\xb1o\n\tdoc.drawString(175+x,360+y,qtipo+npront)#para poner texto valores x,y\n\n\tdoc.setFont("Courier",10)\t#fuente de letra y tama\xc3\xb1o\n\tdoc.drawString(90+x,255+y,solipor)#para poner texto valores x,y\n\n\tdoc.setFont("Courier",10)\t#fuente de letra y tama\xc3\xb1o\n\tdoc.drawString(360+x,240+y,dia)#para poner texto valores x,y\n\n\tdoc.setFont("Courier",10)\t#fuente de letra y tama\xc3\xb1o\n\tdoc.drawString(160+x,225+y,qmes)#para poner texto valores x,y\n\n\tdoc.setFont("Courier",10)\t#fuente de letra y tama\xc3\xb1o\n\tdoc.drawString(360+x,225+y,anio)#para poner texto valores x,y\n\n\tdoc.setFont("Courier",10)\t#fuente de letra y tama\xc3\xb1o\n\tdoc.drawString(160+x,205+y,num)#para poner texto valores x,y\n\n\tdoc.setFont("Courier",10)\t#fuente de letra y tama\xc3\xb1o\n\tdoc.drawString(95+x,120+y,intervino)#para poner texto valores x,y\n\tdoc.showPage()\n\tdoc.save()\n\tstartfile(pdf)\n\tredirect(URL(c=\'confeccion\',f=\'menu_imprimir\',args=[ide_soli,ide_padron,dni]))\n                    \n\treturn dict()\n\t\n\n\ndef dame_un_pdf():\n\tfrom datetime import *\n\tfrom reportlab.platypus import *\n\tfrom reportlab.lib.styles import getSampleStyleSheet, ParagraphStyle\n\tfrom reportlab.rl_config import defaultPageSize\n\tfrom reportlab.lib.units import inch, mm\n\tfrom reportlab.lib.enums import TA_LEFT, TA_RIGHT, TA_CENTER, TA_JUSTIFY\n\tfrom reportlab.lib import colors\n\tfrom uuid import uuid4\n\tfrom cgi import escape\n\timport os\n\tpdf="con_antecedentes.pdf"#largo,alto#defino como se va a llamar el arhivo pfg\n\toficio=(612,1010) #configuro los tama\xc3\xb1os de la hoja oficio\n\tdoc = canvas.Canvas(pdf,pagesize=oficio)\n\n\tide_padron=request.args[1]\t#traigo el argumento del id del padron\n\tide_soli=request.args[0] \t#traigo el argumento del id de la solicitud\n\tdni=request.args[2] \n\t\n\thoyfecha=datetime.today() #capturo la fecha de hoy\n    \tdia=hoyfecha.day #capturo el dia\n     \tdia=str(dia)#paso el dia a string\n    \tmes=hoyfecha.month #capturo el mes\n    \tmes=str(mes)#paso el dia a string\n\n    \t#creo un diccionario para reemplazar el numero del mes por el nombre del mes\n    \tmeses={"1":"ENERO","2":"FEBRERO","3":"MARZO","4":"ABRIL","5":"MAYO","6":"JUNIO","7":"JULIO","8":"AGOSTO","9":"SEPTIEMBRE","10":"OCTUBRE","11":"NOVIEMBRE","12":"DICIEMBRE"}\n    \t\n    \tqmes=meses[mes]# reemplazo el numero del mes en el diccionario mes\n    \tanio=hoyfecha.year #capturo el a\xc3\xb1o\n    \tanio=str(anio)\t#paso el a\xc3\xb1o a string para pornerlo en el pdf\n    ####################################################################################################################################\n    \tpa=db(db.padron.id==ide_padron).select().first() #realizo un set para sacar los datos de la tabla padron\n\n\tape=pa.Apellido \t#capturo el apellido\n\tape=ape+","\t\t\t#le agrego una coma al apellido\n\tnom=pa.Nombre \t\t#capturo el nombre\n\tclase=pa.Clase \t\t#capturo la clase\n\tclase=str(clase) \t#paso la clase a string para ponerlo en el pdf\n\tdni=pa.DocumentoNro\t#capturo el dni\n\tdni=str(dni)\t\t#paso el dni a string para ponerlo en el pdf\n\tpasa=pa.Pasaporte\t#capturo el pasaporte\n\tpasa=str(pasa)\t\t#paso el pasaporte a string\n\tvalor=""\n\tq=""\n\tvalor=len(dni) #calculo q contiene dni\n\tif valor ==0:\n\t\tvalor=pasa\n\t\tq=" PASAPORTE: "\n\telse:\n\t\tvalor=dni\n\t\tq=" D.N.I. : " \n\n\tnacion=pa.IdPais\t#saco el id del pais \t\n\tpaises=db(db.paises.id==nacion).select().first()# hago un set para sacar el pais\n\tpais=paises.pais \t#saco el nombre del pais\n\tvil={"S":"SOLTERO/A","C":"CASADO/A","D":"DIVORSIADO/A","V":"VIUDO/A"} #creo un diccionario \t\n\tcivil=pa.EstadoCivil\t# capturo el estado civil\n\te_civil=vil[civil]#reemplazo en el diccionario vil\t\n\tprof=pa.Profesion  #saco la profesion\n\tdirec=pa.Direccion #saco la direccion\n\tclave={\'1\':"A.G.",\'2\':"C.I.",\'3\':"D.C.P.",\'4\':"D.E.",\'5\':"R.C.",\'6\':"S.P.",\'0\':None} #creo un diccionario para los tipos de prontuario\n\ttipo=pa.IdProntuarioTipo #saco el id del tipo de prontuario\n\ttipo=str(tipo)\t#\n\tnpront=pa.ProntuarioNro\n\tnpront=str(npront)\n\tqtipo=clave[tipo]\n\t######################################################################################################################################\t\n\tsol=db(db.solicitud.id==ide_soli).select().first()\n\tsolipor=sol.solicitado_por\n\tnum=sol.nro_certificado\n\tcapital=sol.capitalinterior\n\tintervino=sol.intervino\n\tfecha=sol.fecha_solicitada\t\n\tuser=sol.usuario\n\ttiene=sol.t_antecedentes\n\tante=sol.antecedentes\n\t#cambio el estado a impreso\n\tsol.update_record(estado_solicitud="Impreso")\n\n\t#cargo las imagenes###################################################################################################\n\n    \t#~ #Una imagen.\n\timagen_logo = Image("d:\\\\web2py\\\\applications\\\\antecedentesplataforma\\\\static\\\\images\\\\encabezado.jpg", width=500, height=80)\n\timagen_firma = Image("d:\\\\web2py\\\\applications\\\\antecedentesplataforma\\\\static\\\\images\\\\firma.jpg", width=500, height=100)\n\t##############################################################################################################################\n\n\t###############################################################################################################################\n\t#tabla\n\tdatos = (\n        (\'INTERVINO\', \'\'),\n        (intervino,\'\'),\n        (\'\',\'\'),\n        (\'\',\'\')\n    \t)\n\ttabla = Table(data = datos,\n              style = [\n                       (\'GRID\',(0,0),(-1,-1),0.5,colors.black),\n                       (\'BOX\',(0,0),(-1,-1),2,colors.black),\n                       (\'BACKGROUND\', (0, 0), (-1, 0), colors.grey),\n                       (\'ALIGNMENT\', (0,0), (-1,1), \'CENTER\'),\n                       (\'TOPPADDING  \', (0,0), (-1,1), ), #TOP, MIDDLE o BOTTOM\n                       ],\n                        hAlign=\'LEFT\'#alinar a la izquierda\n              )\n\t###############################################################################################################################    \t\n    \t\n\n    \tstyles = getSampleStyleSheet()\n\n    \tstyles.add(ParagraphStyle(name=\'Justify\', alignment=TA_JUSTIFY,fontName=\'Helvetica\',fontSize=10))\n\n\n    \t#archivotmp=os.path.join(request.folder,\'private\',str(uuid4()))\n    \tdoc = SimpleDocTemplate(pdf)#archivotmp)\n    \tstory = []\n    \tespacio=""\n    \tstory.append(imagen_logo)    \t\n    \t#story.append(Paragraph(escape(texto),styles["Justify"]))\n    \tstory.append(Spacer(1,0.5*inch))\n    \tstory.append(Paragraph(escape("Los funcionarios policiales que suscriben Certifican:"),styles["Justify"]))\n    \tstory.append(Spacer(1,0.5*inch))\n    \tstory.append(Paragraph(escape("Que "+ape+nom+" Clase: "+clase+q+valor+" de Nacionalidad "+pais\n    \t\t+" de estado civil: "+e_civil+" de profesi\xc3\xb3n  "+prof+" con domicilio: "+direc\n    \t\t+" Se encuentra identificado/a en esta Policia bajo el Prontuario: "+qtipo+" N\xc2\xba "+npront ),styles["Justify"]))\n    \tstory.append(Spacer(1,0.5*inch))\n    \t\n    \tstory.append(Paragraph(escape("OBSERVACIONES:"),styles["Justify"]))\n    \tstory.append(Paragraph(escape(ante),styles["Justify"]))\n    \tstory.append(Spacer(1,0.5*inch))\n\n    \tstory.append(Paragraph(escape("A solicitud de la parte interesada y al solo efecto de ser presentada en : "+\n    \t\tsolipor+"."+"Expiden el presente en la Ciudad de San Fernando del Valle de Catamarca(R.A.), con fecha: "\n    \t\t+dia+"/"+mes+"/"+anio +" Cert. N\xc2\xba "+num),styles["Justify"]))\n    \tstory.append(Spacer(1,0.5*inch))\n    \tstory.append(Paragraph(escape("Se expide conforme Ley N\xc2\xba4663, Art.8 Inc.\'C\'.-"),styles["Justify"]))\n    \tstory.append(Spacer(1,0.1*inch))    \t\n\tstory.append(tabla)\n\tstory.append(imagen_firma)\n    \tdoc.build(story)\n    \tos.system(pdf)\n    \t#data = open(archivotmp,"rb").read()\n    \t#os.unlink(archivotmp)\n    \t#response.headers[\'Content-Type\']=\'application/pdf\'\n    \tredirect(URL(c=\'confeccion\',f=\'menu_imprimir\',args=[ide_soli,ide_padron,dni]))\n\n\treturn dict(valor=valor)\n\n    \t\n    \t\n    \t\n    \t\n\n# def txt():\n# \t\t#importo para poner la fecha\n# \tfrom datetime import *\n# \timport os\n    \n#     \thoyfecha=datetime.today() #capturo la fecha de hoy\n#     \tdia=hoyfecha.day #capturo el dia\n#     \tdia=str(dia)#paso el dia a string\n#     \tmes=hoyfecha.month #capturo el mes\n#     \tmes=str(mes)#paso el dia a string\n#     \t#creo un diccionario para reemplazar el numero del mes por el nombre del mes\n#     \tmeses={"1":"ENERO","2":"FEBRERO","3":"MARZO","4":"ABRIL","5":"MAYO","6":"JUNIO","7":"JULIO","8":"AGOSTO","9":"SEPTIEMBRE","10":"OCTUBRE","11":"NOVIEMBRE","12":"DICIEMBRE"}\n    \t\n#     \tqmes=meses[mes]# reemplazo el numero del mes en el diccionario mes\n#     \tanio=hoyfecha.year #capturo el a\xc3\xb1o\n#     \tanio=str(anio)\t#paso el a\xc3\xb1o a string para pornerlo en el pdf\n# \tide_padron=request.args[1]\t#traigo el argumento del id del padron\n# \tide_soli=request.args[0] \t#traigo el argumento del id de la solicitud\n# \tdni=request.args[2] \t\t#traigo el dni de la persona\n# \tDNI=str(dni)\t\t\t\t#paso el dni a string para ponerlo en el pdf\n# \tpa=db(db.padron.id==ide_padron).select().first() #realizo un set para sacar los datos de la tabla padron\n# \tape=pa.Apellido \t#capturo el apellido\n# \tape=ape+","\t\t\t#le agrego una coma al apellido\n# \tnom=pa.Nombre \t\t#capturo el nombre\n# \tclase=pa.Clase \t\t#capturo la clase\n# \tclase=str(clase) \t#paso la clase a string para ponerlo en el pdf\n# \tdni=pa.DocumentoNro\t#capturo el dni\n# \tdni=str(dni)\t\t#paso el dni a string para ponerlo en el pdf\n# \tpasa=pa.Pasaporte\t#capturo el pasaporte\n# \tpasa=str(pasa)\t\t#paso el pasaporte a string\n# \tnacion=pa.IdPais\t#saco el id del pais \t\n# \tpaises=db(db.paises.id==nacion).select().first()# hago un set para sacar el pais\n# \tpais=paises.pais \t#saco el nombre del pais\n# \tvil={"S":"SOLTERO/A","C":"CASADO/A","D":"DIVORSIADO/A","V":"VIUDO/A"} #creo un diccionario \t\n# \tcivil=pa.EstadoCivil\t# capturo el estado civil\n# \te_civil=vil[civil]#reemplazo en el diccionario vil\t\n# \tprof=pa.Profesion  #saco la profesion\n# \tdirec=pa.Direccion #saco la direccion\n# \tclave={\'1\':"A.G.",\'2\':"C.I.",\'3\':"D.C.P.",\'4\':"D.E.",\'5\':"R.C.",\'6\':"S.P.",\'0\':None} #creo un diccionario para los tipos de prontuario\n# \ttipo=pa.IdProntuarioTipo #saco el id del tipo de prontuario\n# \ttipo=str(tipo)\t#\n# \tnpront=pa.ProntuarioNro\n# \tnpront=str(npront)\n# \tqtipo=clave[tipo]\t\n# \tsol=db(db.solicitud.id==ide_soli).select().first()\n# \tsolipor=sol.solicitado_por\n# \tnum=sol.nro_certificado\n# \tcapital=sol.capitalinterior\n# \tintervino=sol.intervino\n# \tfecha=sol.fecha_solicitada\t\n# \tuser=sol.usuario\n# \ttiene=sol.t_antecedentes\n# \tante=sol.antecedentes\n\t\n# \tfile = open("txt.txt", "w")\n# \tfile.write("Los Funcionarios Policiales que suscriben Certifican: \\n")\n# \tfile.write( "\\n" )\n# \tfile.write( "" +os.linesep)#espacion en blanco\n# \tfile.write("Que "+ ape+ nom + " Clase " +clase +" D.N.I. N\xc2\xba :" +dni +" de nacionalidad:"+ os.linesep)\n# \tfile.write(pais+" de estado civil: "+e_civil+" de profesion: "+prof+ os.linesep)\n# \tfile.write("con domicilio: "+direc+ os.linesep)\n\n# \tfile.write("Se encuentra indentificado/a en esta policia bajo Promtuario:"+ os.linesep )\n# \tfile.write(qtipo+" "+npront+ os.linesep )\n# \tfile.write("Observaciones:"+os.linesep )\n\t\n# \tfile.write(ante)\n# \tfile.write("A solicitud de la parte interesada y al solo efecto de ser presentada en: "+ os.linesep)\n# \tfile.write( solipor+"." +os.linesep)\n# \tfile.write( "Expiden el presente en la Ciudad de San Fernando del Valle de Catamarca(R.A.), con fecha:"+dia+"/"+mes+"/"+anio +os.linesep)\n# \tfile.write( "" +os.linesep)\n# \tfile.write( "Cert. N\xc2\xba"+num +os.linesep)\n# \tfile.write( "" +os.linesep)\n# \tfile.write( "Se expide conforme Ley N\xc2\xba4663, Art.8 Inc.\'C\' " +os.linesep)\n# \tfile.write( "" +os.linesep)\n# \tfile.write( "" +os.linesep)\n# \tfile.write( "" +os.linesep)\n# \tfile.write( "" +os.linesep)\n# \tfile.write( "-----------------------------------------------"+"                          "+"\t------------------------------------------------" +os.linesep)\n# \tfile.write( "       Jefe Div. Ant. Personales"+"                          \t"+"Jefe Depto.Inv. Judiciales (D-5)" +os.linesep)\t\n# \tfile.close()\n# \t#redirect(URL(c=\'imprimir\',f=\'con_antecedentes\',args=[ide_soli,ide_padron,dni]))\n# \treturn dict(ante=ante)\n\n# def con_antecedentes():\n# \tide_padron=request.args[1]\t#traigo el argumento del id del padron\n# \tide_soli=request.args[0] \t#traigo el argumento del id de la solicitud\n# \tdni=request.args[2] \n# \tfrom reportlab.pdfgen import canvas# clase para crear el documento\n# \tfrom reportlab.lib.colors import white,red,green,blue,gray,black#colores\t\n# \tfrom os import startfile\n# \tfrom reportlab.lib.utils import ImageReader\n# \timport StringIO\n# \timport PIL.Image\n# \tfrom reportlab.lib.styles import getSampleStyleSheet\n# \tfrom reportlab.lib.enums import TA_LEFT, TA_RIGHT, TA_CENTER, TA_JUSTIFY\n# \tfrom reportlab.platypus import SimpleDocTemplate, Paragraph, Spacer, Image\n# \timport os\n# \tfrom io import open\n# \timport reportlab.rl_config\n# \treportlab.rl_config.warnOnMissingFontGlyphs = 0\n# \tfrom reportlab.pdfbase import pdfmetrics\n# \tfrom reportlab.pdfbase.ttfonts import TTFont\n# \tfrom textwrap import wrap\n# \tpdfmetrics.registerFont(TTFont(\'Vera\', \'Vera.ttf\'))\n# \tpdfmetrics.registerFont(TTFont(\'VeraBd\', \'VeraBd.ttf\'))\n# \tpdfmetrics.registerFont(TTFont(\'VeraIt\', \'VeraIt.ttf\'))\n# \tpdfmetrics.registerFont(TTFont(\'VeraBI\', \'VeraBI.ttf\'))\t\n# \tpdf="con_antecedentes.pdf"#largo,alto#defino como se va a llamar el arhivo pfg\n# \toficio=(612,1010) #configuro los tama\xc3\xb1os de la hoja oficio \n# \t#A4=612.0, 792.0 \n# \tdoc = canvas.Canvas(pdf,pagesize=oficio)\n# \tmargen=db(db.margenes).select().first()\n# \tx = margen.x\n# \tlargo=612.0\t\n# \ty =margen.y\n# \talto=1010  \n# \testilos = getSampleStyleSheet()\n# \tstyle = estilos[\'BodyText\']\t\n# \tencabezado=[]\n# \theader1=doc.drawImage("d:\\\\web2py\\\\applications\\\\antecedentesplataforma\\\\static\\\\images\\\\escudo1.jpg",80,950,50,50)#insertar imagen\n# \tdoc.setFont("Helvetica-Bold", 18)#fuente de letra y tama\xc3\xb1o\n# \tencabezado.append(header1)\n# \theader2=doc.drawString(150+x,970+y,"CERTIFICADO DE ANTECEDENTES")#para poner texto valores x,y\n# \tencabezado.append(header2)\n# \theader3=doc.drawImage("d:\\\\web2py\\\\applications\\\\antecedentesplataforma\\\\static\\\\images\\\\escudo_policia.jpg",480,950,50,50)#insertar imagen\n# \tencabezado.append(header3)\n# \tdoc.setFont("Courier-BoldOblique", 11)#fuente de letra y tama\xc3\xb1o\n# \tdoc.drawString(210+x,950+y,"VALIDO POR SEIS MESES")#para poner texto valores x,y\t\n# \t#doc.drawText(text)\t\n# \tfrom reportlab.platypus import *\n# \tstory=[]\t\n# \ttextoArchivo = open("txt.txt", "r")  # Abrimos un archivo de texto\n# \ttext=""\n# \ttextobject = doc.beginText(40,890)  # Iniciamos el textobject\n# \ttextobject.setTextOrigin(40, 890)  # Ubicamos el cursor donde dibujar\n# \ttextobject.setFont("VeraIt", 8)\n# \tfor i in textoArchivo:\n# \t\t#i = i.replace("\\n","")  # Remplazamos el salto de linea\n# \t\t#textobject.textLine( i)  # Dibujamos la linea\n# \t\tp = Paragraph(i, style)\n#  \t\tstory.append(p)\n#  \t\tstory.append(Spacer(1,0.2))\n\t  \n# \t#textobject.setCharSpace(0.1)  # Espacio entre caracteres \n# \t#textobject.setWordSpace(0.2)  # Espacio entre palabras\t   \n# \t#wraped_text = "\\n".join(wrap(text, 80)) # 80 is line width\n# \tdoc.drawText(textobject)  # Dibujamos el texto pasando un objeto de texto\n# \tdoc.build(story)\n# \t#doc.showPage()\n# \tdoc.save()\t\n# \t#startfile(pdf)   \n# \treturn dict()\ndef margenes():\n\t#de esta funcion puedo configurar el las unidades x e y de los margenes\n\tmargen=db(db.margenes.id==1).select().first()\n\tx=margen.x\n\ty=margen.y\n\tform=SQLFORM.factory(\n\tField(\'x\',\'bolean\',label="X ,o Horizontal",default=x),\n\tField(\'y\',\'bolean\',label="Y ,o Vertical",default=y),\n\t\t)\n\tif form.accepts(request,session):\n    \t\tresponse.flash = \'formulario aceptado\'\n    \t\tmargen.update_record(x=form.vars.x,y=form.vars.y)\n    \t\tredirect(URL(c=\'imprimir\',f=\'margenes\')\n    \t\t\t)\n    \t\t\n    \t\t\n    \telif form.errors:\n        \tresponse.flash = \'el formulario tiene errores\'\n    \telse:\n        \tresponse.flash = \'por favor complete el formulario\'  \n\n\n\n\treturn dict(form=form)\n\n\n\n\n\n\n\n\t\n\n\n\n\t\n\n\n\n\n\t\n\n\t\n \n \n\n\t\n\n    \n\t\n\n\n\n\t\n\t\n\n\n\n\n\n\n\n\n\n\n\n\n\n\n\t\n\nresponse._vars=response._caller(dame_un_pdf)\n'
p7
sS'snapshot'
p8
(dp9
S'exception'
p10
(dp11
S'__getslice__'
p12
S"<method-wrapper '__getslice__' of exceptions.IOError object>"
p13
sS'__str__'
p14
S"<method-wrapper '__str__' of exceptions.IOError object>"
p15
sS'__reduce__'
p16
S'<built-in method __reduce__ of exceptions.IOError object>'
p17
sS'__dict__'
p18
S'{}'
p19
sS'__sizeof__'
p20
S'<built-in method __sizeof__ of exceptions.IOError object>'
p21
sS'__init__'
p22
S"<method-wrapper '__init__' of exceptions.IOError object>"
p23
sS'__setattr__'
p24
S"<method-wrapper '__setattr__' of exceptions.IOError object>"
p25
sS'__reduce_ex__'
p26
S'<built-in method __reduce_ex__ of exceptions.IOError object>'
p27
sS'__new__'
p28
S'<built-in method __new__ of type object>'
p29
sS'errno'
p30
S'None'
p31
sS'__format__'
p32
S'<built-in method __format__ of exceptions.IOError object>'
p33
sS'__class__'
p34
S"<type 'exceptions.IOError'>"
p35
sS'filename'
p36
S'None'
p37
sS'__doc__'
p38
S"'I/O operation failed.'"
p39
sS'__getitem__'
p40
S"<method-wrapper '__getitem__' of exceptions.IOError object>"
p41
sS'__setstate__'
p42
S'<built-in method __setstate__ of exceptions.IOError object>'
p43
sS'__getattribute__'
p44
S"<method-wrapper '__getattribute__' of exceptions.IOError object>"
p45
sS'args'
p46
S'(r\'Cannot open resource "d:\\web2py\\applications\\antecedentesplataforma\\static\\images\\encabezado.jpg"\',)'
p47
sS'__subclasshook__'
p48
S'<built-in method __subclasshook__ of type object>'
p49
sS'__unicode__'
p50
S'<built-in method __unicode__ of exceptions.IOError object>'
p51
sS'strerror'
p52
S'None'
p53
sS'__delattr__'
p54
S"<method-wrapper '__delattr__' of exceptions.IOError object>"
p55
sS'__repr__'
p56
S"<method-wrapper '__repr__' of exceptions.IOError object>"
p57
sS'__hash__'
p58
S"<method-wrapper '__hash__' of exceptions.IOError object>"
p59
ssS'evalue'
p60
S'Cannot open resource "d:\\web2py\\applications\\antecedentesplataforma\\static\\images\\encabezado.jpg"'
p61
sS'request'
p62
cgluon.html
XML_unpickle
p63
(S's:b\x00\x00<div><table><tr><td style="font-weight:bold;vertical-align:top;">ajax</td><td style="vertical-align:top;">:</td><td><div>False</div></td></tr><tr><td style="font-weight:bold;vertical-align:top;">application</td><td style="vertical-align:top;">:</td><td><div>antecedentesplataforma</div></td></tr><tr><td style="font-weight:bold;vertical-align:top;">args</td><td style="vertical-align:top;">:</td><td><div><table><tr><td><div>1</div></td></tr><tr><td><div>287566</div></td></tr><tr><td><div></div></td></tr></table></div></td></tr><tr><td style="font-weight:bold;vertical-align:top;">cid</td><td style="vertical-align:top;">:</td><td><div>None</div></td></tr><tr><td style="font-weight:bold;vertical-align:top;">client</td><td style="vertical-align:top;">:</td><td><div>127.0.0.1</div></td></tr><tr><td style="font-weight:bold;vertical-align:top;">controller</td><td style="vertical-align:top;">:</td><td><div>imprimir</div></td></tr><tr><td style="font-weight:bold;vertical-align:top;">cookies</td><td style="vertical-align:top;">:</td><td><div><table><tr><td style="font-weight:bold;vertical-align:top;">session_id_admin</td><td style="vertical-align:top;">:</td><td><div>127.0.0.1-fa0f3639-0464-4747-be6c-f7c621ae090a<table><tr><td style="font-weight:bold;vertical-align:top;">comment</td><td style="vertical-align:top;">:</td><td><div></div></td></tr><tr><td style="font-weight:bold;vertical-align:top;">domain</td><td style="vertical-align:top;">:</td><td><div></div></td></tr><tr><td style="font-weight:bold;vertical-align:top;">expires</td><td style="vertical-align:top;">:</td><td><div></div></td></tr><tr><td style="font-weight:bold;vertical-align:top;">httponly</td><td style="vertical-align:top;">:</td><td><div></div></td></tr><tr><td style="font-weight:bold;vertical-align:top;">max-age</td><td style="vertical-align:top;">:</td><td><div></div></td></tr><tr><td style="font-weight:bold;vertical-align:top;">path</td><td style="vertical-align:top;">:</td><td><div></div></td></tr><tr><td style="font-weight:bold;vertical-align:top;">secure</td><td style="vertical-align:top;">:</td><td><div></div></td></tr><tr><td style="font-weight:bold;vertical-align:top;">version</td><td style="vertical-align:top;">:</td><td><div></div></td></tr></table></div></td></tr><tr><td style="font-weight:bold;vertical-align:top;">session_id_antecedentesplataforma</td><td style="vertical-align:top;">:</td><td><div>127.0.0.1-fcf8de59-b979-45bb-b353-a8866d7afc51<table><tr><td style="font-weight:bold;vertical-align:top;">comment</td><td style="vertical-align:top;">:</td><td><div></div></td></tr><tr><td style="font-weight:bold;vertical-align:top;">domain</td><td style="vertical-align:top;">:</td><td><div></div></td></tr><tr><td style="font-weight:bold;vertical-align:top;">expires</td><td style="vertical-align:top;">:</td><td><div></div></td></tr><tr><td style="font-weight:bold;vertical-align:top;">httponly</td><td style="vertical-align:top;">:</td><td><div></div></td></tr><tr><td style="font-weight:bold;vertical-align:top;">max-age</td><td style="vertical-align:top;">:</td><td><div></div></td></tr><tr><td style="font-weight:bold;vertical-align:top;">path</td><td style="vertical-align:top;">:</td><td><div></div></td></tr><tr><td style="font-weight:bold;vertical-align:top;">secure</td><td style="vertical-align:top;">:</td><td><div></div></td></tr><tr><td style="font-weight:bold;vertical-align:top;">version</td><td style="vertical-align:top;">:</td><td><div></div></td></tr></table></div></td></tr><tr><td style="font-weight:bold;vertical-align:top;">session_id_welcome</td><td style="vertical-align:top;">:</td><td><div>127.0.0.1-d18d514f-c194-4290-b498-91c3962cbac5<table><tr><td style="font-weight:bold;vertical-align:top;">comment</td><td style="vertical-align:top;">:</td><td><div></div></td></tr><tr><td style="font-weight:bold;vertical-align:top;">domain</td><td style="vertical-align:top;">:</td><td><div></div></td></tr><tr><td style="font-weight:bold;vertical-align:top;">expires</td><td style="vertical-align:top;">:</td><td><div></div></td></tr><tr><td style="font-weight:bold;vertical-align:top;">httponly</td><td style="vertical-align:top;">:</td><td><div></div></td></tr><tr><td style="font-weight:bold;vertical-align:top;">max-age</td><td style="vertical-align:top;">:</td><td><div></div></td></tr><tr><td style="font-weight:bold;vertical-align:top;">path</td><td style="vertical-align:top;">:</td><td><div></div></td></tr><tr><td style="font-weight:bold;vertical-align:top;">secure</td><td style="vertical-align:top;">:</td><td><div></div></td></tr><tr><td style="font-weight:bold;vertical-align:top;">version</td><td style="vertical-align:top;">:</td><td><div></div></td></tr></table></div></td></tr></table></div></td></tr><tr><td style="font-weight:bold;vertical-align:top;">env</td><td style="vertical-align:top;">:</td><td><div><table><tr><td style="font-weight:bold;vertical-align:top;">HTTP_ACCEPT</td><td style="vertical-align:top;">:</td><td><div>text/html,application/xhtml+xml,application/xml;q=0.9,image/webp,image/apng,*/*;q=0.8,application/signed-exchange;v=b3</div></td></tr><tr><td style="font-weight:bold;vertical-align:top;">HTTP_ACCEPT_ENCODING</td><td style="vertical-align:top;">:</td><td><div>gzip, deflate, br</div></td></tr><tr><td style="font-weight:bold;vertical-align:top;">HTTP_ACCEPT_LANGUAGE</td><td style="vertical-align:top;">:</td><td><div>es-ES,es;q=0.9,en;q=0.8,gl;q=0.7</div></td></tr><tr><td style="font-weight:bold;vertical-align:top;">HTTP_CACHE_CONTROL</td><td style="vertical-align:top;">:</td><td><div>max-age=0</div></td></tr><tr><td style="font-weight:bold;vertical-align:top;">HTTP_CONNECTION</td><td style="vertical-align:top;">:</td><td><div>keep-alive</div></td></tr><tr><td style="font-weight:bold;vertical-align:top;">HTTP_COOKIE</td><td style="vertical-align:top;">:</td><td><div>session_id_welcome=127.0.0.1-d18d514f-c194-4290-b498-91c3962cbac5; session_id_admin=127.0.0.1-fa0f3639-0464-4747-be6c-f7c621ae090a; session_id_antecedentesplataforma=127.0.0.1-fcf8de59-b979-45bb-b353-a8866d7afc51</div></td></tr><tr><td style="font-weight:bold;vertical-align:top;">HTTP_HOST</td><td style="vertical-align:top;">:</td><td><div>127.0.0.1:8000</div></td></tr><tr><td style="font-weight:bold;vertical-align:top;">HTTP_REFERER</td><td style="vertical-align:top;">:</td><td><div>http://127.0.0.1:8000/antecedentesplataforma/confeccion/menu_imprimir/1/287566//</div></td></tr><tr><td style="font-weight:bold;vertical-align:top;">HTTP_SEC_FETCH_MODE</td><td style="vertical-align:top;">:</td><td><div>navigate</div></td></tr><tr><td style="font-weight:bold;vertical-align:top;">HTTP_SEC_FETCH_SITE</td><td style="vertical-align:top;">:</td><td><div>none</div></td></tr><tr><td style="font-weight:bold;vertical-align:top;">HTTP_SEC_FETCH_USER</td><td style="vertical-align:top;">:</td><td><div>?1</div></td></tr><tr><td style="font-weight:bold;vertical-align:top;">HTTP_UPGRADE_INSECURE_REQUESTS</td><td style="vertical-align:top;">:</td><td><div>1</div></td></tr><tr><td style="font-weight:bold;vertical-align:top;">HTTP_USER_AGENT</td><td style="vertical-align:top;">:</td><td><div>Mozilla/5.0 (Windows NT 6.1) AppleWebKit/537.36 (KHTML, like Gecko) Chrome/76.0.3809.132 Safari/537.36</div></td></tr><tr><td style="font-weight:bold;vertical-align:top;">PATH_INFO</td><td style="vertical-align:top;">:</td><td><div>/antecedentesplataforma/imprimir/dame_un_pdf/1/287566//</div></td></tr><tr><td style="font-weight:bold;vertical-align:top;">QUERY_STRING</td><td style="vertical-align:top;">:</td><td><div></div></td></tr><tr><td style="font-weight:bold;vertical-align:top;">REMOTE_ADDR</td><td style="vertical-align:top;">:</td><td><div>127.0.0.1</div></td></tr><tr><td style="font-weight:bold;vertical-align:top;">REMOTE_PORT</td><td style="vertical-align:top;">:</td><td><div>49176</div></td></tr><tr><td style="font-weight:bold;vertical-align:top;">REQUEST_METHOD</td><td style="vertical-align:top;">:</td><td><div>GET</div></td></tr><tr><td style="font-weight:bold;vertical-align:top;">SCRIPT_NAME</td><td style="vertical-align:top;">:</td><td><div></div></td></tr><tr><td style="font-weight:bold;vertical-align:top;">SERVER_NAME</td><td style="vertical-align:top;">:</td><td><div>HATAK3-PC</div></td></tr><tr><td style="font-weight:bold;vertical-align:top;">SERVER_PORT</td><td style="vertical-align:top;">:</td><td><div>8000</div></td></tr><tr><td style="font-weight:bold;vertical-align:top;">SERVER_PROTOCOL</td><td style="vertical-align:top;">:</td><td><div>HTTP/1.1</div></td></tr><tr><td style="font-weight:bold;vertical-align:top;">SERVER_SOFTWARE</td><td style="vertical-align:top;">:</td><td><div>Rocket 1.2.6</div></td></tr><tr><td style="font-weight:bold;vertical-align:top;">app_folders</td><td style="vertical-align:top;">:</td><td><div>set([&#x27;D:\\\\web2pyVersion2.14.6\\\\applications\\\\admin\\\\&#x27;, &#x27;D:\\\\web2pyVersion2.14.6\\\\applications\\\\antecedentesplataforma\\\\&#x27;, &#x27;D:\\\\web2pyVersion2.14.6\\\\applications\\\\welcome\\\\&#x27;])</div></td></tr><tr><td style="font-weight:bold;vertical-align:top;">applications_parent</td><td style="vertical-align:top;">:</td><td><div>D:\\web2pyVersion2.14.6</div></td></tr><tr><td style="font-weight:bold;vertical-align:top;">cmd_args</td><td style="vertical-align:top;">:</td><td><div><table></table></div></td></tr><tr><td style="font-weight:bold;vertical-align:top;">cmd_options</td><td style="vertical-align:top;">:</td><td><div>&lt;Values at 0x276ab98: {&#x27;verbose&#x27;: False, &#x27;ip&#x27;: &#x27;127.0.0.1&#x27;, &#x27;debuglevel&#x27;: 30, &#x27;with_scheduler&#x27;: False, &#x27;shutdown_timeout&#x27;: 5, &#x27;taskbar&#x27;: False, &#x27;with_coverage&#x27;: False, &#x27;pid_filename&#x27;: &#x27;httpserver.pid&#x27;, &#x27;maxthreads&#x27;: None, &#x27;softcron&#x27;: False, &#x27;server_name&#x27;: &#x27;HATAK3-PC&#x27;, &#x27;bpython&#x27;: False, &#x27;nogui&#x27;: False, &#x27;port&#x27;: 8000, &#x27;print_errors&#x27;: False, &#x27;extcron&#x27;: False, &#x27;runcron&#x27;: False, &#x27;run_system_tests&#x27;: False, &#x27;test&#x27;: None, &#x27;folder&#x27;: &#x27;D:\\\\web2pyVersion2.14.6&#x27;, &#x27;config&#x27;: &#x27;&#x27;, &#x27;minthreads&#x27;: None, &#x27;shell&#x27;: None, &#x27;run&#x27;: &#x27;&#x27;, &#x27;log_filename&#x27;: &#x27;httpserver.log&#x27;, &#x27;profiler_dir&#x27;: None, &#x27;args&#x27;: [&#x27;&#x27;], &#x27;socket_timeout&#x27;: 5, &#x27;ssl_ca_certificate&#x27;: None, &#x27;scheduler&#x27;: None, &#x27;interfaces&#x27;: None, &#x27;ssl_private_key&#x27;: &#x27;&#x27;, &#x27;gae&#x27;: None, &#x27;password&#x27;: &#x27;******&#x27;, &#x27;request_queue_size&#x27;: 5, &#x27;ssl_certificate&#x27;: &#x27;&#x27;, &#x27;cronjob&#x27;: False, &#x27;numthreads&#x27;: None, &#x27;quiet&#x27;: False, &#x27;import_models&#x27;: False, &#x27;timeout&#x27;: 10, &#x27;plain&#x27;: False, &#x27;nobanner&#x27;: False}&gt;</div></td></tr><tr><td style="font-weight:bold;vertical-align:top;">db_sessions</td><td style="vertical-align:top;">:</td><td><div>set([])</div></td></tr><tr><td style="font-weight:bold;vertical-align:top;">debugging</td><td style="vertical-align:top;">:</td><td><div>False</div></td></tr><tr><td style="font-weight:bold;vertical-align:top;">gluon_parent</td><td style="vertical-align:top;">:</td><td><div>D:\\web2pyVersion2.14.6</div></td></tr><tr><td style="font-weight:bold;vertical-align:top;">http_accept</td><td style="vertical-align:top;">:</td><td><div>text/html,application/xhtml+xml,application/xml;q=0.9,image/webp,image/apng,*/*;q=0.8,application/signed-exchange;v=b3</div></td></tr><tr><td style="font-weight:bold;vertical-align:top;">http_accept_encoding</td><td style="vertical-align:top;">:</td><td><div>gzip, deflate, br</div></td></tr><tr><td style="font-weight:bold;vertical-align:top;">http_accept_language</td><td style="vertical-align:top;">:</td><td><div>es-ES,es;q=0.9,en;q=0.8,gl;q=0.7</div></td></tr><tr><td style="font-weight:bold;vertical-align:top;">http_cache_control</td><td style="vertical-align:top;">:</td><td><div>max-age=0</div></td></tr><tr><td style="font-weight:bold;vertical-align:top;">http_connection</td><td style="vertical-align:top;">:</td><td><div>keep-alive</div></td></tr><tr><td style="font-weight:bold;vertical-align:top;">http_cookie</td><td style="vertical-align:top;">:</td><td><div>session_id_welcome=127.0.0.1-d18d514f-c194-4290-b498-91c3962cbac5; session_id_admin=127.0.0.1-fa0f3639-0464-4747-be6c-f7c621ae090a; session_id_antecedentesplataforma=127.0.0.1-fcf8de59-b979-45bb-b353-a8866d7afc51</div></td></tr><tr><td style="font-weight:bold;vertical-align:top;">http_host</td><td style="vertical-align:top;">:</td><td><div>127.0.0.1:8000</div></td></tr><tr><td style="font-weight:bold;vertical-align:top;">http_referer</td><td style="vertical-align:top;">:</td><td><div>http://127.0.0.1:8000/antecedentesplataforma/confeccion/menu_imprimir/1/287566//</div></td></tr><tr><td style="font-weight:bold;vertical-align:top;">http_sec_fetch_mode</td><td style="vertical-align:top;">:</td><td><div>navigate</div></td></tr><tr><td style="font-weight:bold;vertical-align:top;">http_sec_fetch_site</td><td style="vertical-align:top;">:</td><td><div>none</div></td></tr><tr><td style="font-weight:bold;vertical-align:top;">http_sec_fetch_user</td><td style="vertical-align:top;">:</td><td><div>?1</div></td></tr><tr><td style="font-weight:bold;vertical-align:top;">http_upgrade_insecure_requests</td><td style="vertical-align:top;">:</td><td><div>1</div></td></tr><tr><td style="font-weight:bold;vertical-align:top;">http_user_agent</td><td style="vertical-align:top;">:</td><td><div>Mozilla/5.0 (Windows NT 6.1) AppleWebKit/537.36 (KHTML, like Gecko) Chrome/76.0.3809.132 Safari/537.36</div></td></tr><tr><td style="font-weight:bold;vertical-align:top;">is_jython</td><td style="vertical-align:top;">:</td><td><div>False</div></td></tr><tr><td style="font-weight:bold;vertical-align:top;">is_pypy</td><td style="vertical-align:top;">:</td><td><div>False</div></td></tr><tr><td style="font-weight:bold;vertical-align:top;">is_source</td><td style="vertical-align:top;">:</td><td><div>False</div></td></tr><tr><td style="font-weight:bold;vertical-align:top;">local_hosts</td><td style="vertical-align:top;">:</td><td><div><table><tr><td><div>HATAK3-PC</div></td></tr><tr><td><div>169.254.120.32</div></td></tr><tr><td><div>::ffff:127.0.0.1</div></td></tr><tr><td><div>::1</div></td></tr><tr><td><div>fe80::b435:4451:4e49:7820%11</div></td></tr><tr><td><div>127.0.0.1</div></td></tr></table></div></td></tr><tr><td style="font-weight:bold;vertical-align:top;">path_info</td><td style="vertical-align:top;">:</td><td><div>/antecedentesplataforma/imprimir/dame_un_pdf/1/287566//</div></td></tr><tr><td style="font-weight:bold;vertical-align:top;">query_string</td><td style="vertical-align:top;">:</td><td><div></div></td></tr><tr><td style="font-weight:bold;vertical-align:top;">remote_addr</td><td style="vertical-align:top;">:</td><td><div>127.0.0.1</div></td></tr><tr><td style="font-weight:bold;vertical-align:top;">remote_port</td><td style="vertical-align:top;">:</td><td><div>49176</div></td></tr><tr><td style="font-weight:bold;vertical-align:top;">request_method</td><td style="vertical-align:top;">:</td><td><div>GET</div></td></tr><tr><td style="font-weight:bold;vertical-align:top;">request_uri</td><td style="vertical-align:top;">:</td><td><div>/antecedentesplataforma/imprimir/dame_un_pdf/1/287566//</div></td></tr><tr><td style="font-weight:bold;vertical-align:top;">script_name</td><td style="vertical-align:top;">:</td><td><div></div></td></tr><tr><td style="font-weight:bold;vertical-align:top;">server_name</td><td style="vertical-align:top;">:</td><td><div>HATAK3-PC</div></td></tr><tr><td style="font-weight:bold;vertical-align:top;">server_port</td><td style="vertical-align:top;">:</td><td><div>8000</div></td></tr><tr><td style="font-weight:bold;vertical-align:top;">server_protocol</td><td style="vertical-align:top;">:</td><td><div>HTTP/1.1</div></td></tr><tr><td style="font-weight:bold;vertical-align:top;">server_software</td><td style="vertical-align:top;">:</td><td><div>Rocket 1.2.6</div></td></tr><tr><td style="font-weight:bold;vertical-align:top;">web2py_path</td><td style="vertical-align:top;">:</td><td><div>D:\\web2pyVersion2.14.6</div></td></tr><tr><td style="font-weight:bold;vertical-align:top;">web2py_version</td><td style="vertical-align:top;">:</td><td><div>2.14.6-stable+timestamp.2016.05.10.00.21.47</div></td></tr><tr><td style="font-weight:bold;vertical-align:top;">wsgi.errors</td><td style="vertical-align:top;">:</td><td><div>&lt;open file &#x27;&lt;stderr&gt;&#x27;, mode &#x27;w&#x27; at 0x0132D0D0&gt;</div></td></tr><tr><td style="font-weight:bold;vertical-align:top;">wsgi.file_wrapper</td><td style="vertical-align:top;">:</td><td><div>&lt;class wsgiref.util.FileWrapper at 0x027D9CE0&gt;</div></td></tr><tr><td style="font-weight:bold;vertical-align:top;">wsgi.input</td><td style="vertical-align:top;">:</td><td><div>&lt;socket._fileobject object at 0x0397CF70&gt;</div></td></tr><tr><td style="font-weight:bold;vertical-align:top;">wsgi.multiprocess</td><td style="vertical-align:top;">:</td><td><div>False</div></td></tr><tr><td style="font-weight:bold;vertical-align:top;">wsgi.multithread</td><td style="vertical-align:top;">:</td><td><div>True</div></td></tr><tr><td style="font-weight:bold;vertical-align:top;">wsgi.run_once</td><td style="vertical-align:top;">:</td><td><div>False</div></td></tr><tr><td style="font-weight:bold;vertical-align:top;">wsgi.url_scheme</td><td style="vertical-align:top;">:</td><td><div>http</div></td></tr><tr><td style="font-weight:bold;vertical-align:top;">wsgi.version</td><td style="vertical-align:top;">:</td><td><div><table><tr><td><div>1</div></td></tr><tr><td><div>0</div></td></tr></table></div></td></tr><tr><td style="font-weight:bold;vertical-align:top;">wsgi_errors</td><td style="vertical-align:top;">:</td><td><div>&lt;open file &#x27;&lt;stderr&gt;&#x27;, mode &#x27;w&#x27; at 0x0132D0D0&gt;</div></td></tr><tr><td style="font-weight:bold;vertical-align:top;">wsgi_file_wrapper</td><td style="vertical-align:top;">:</td><td><div>&lt;class wsgiref.util.FileWrapper at 0x027D9CE0&gt;</div></td></tr><tr><td style="font-weight:bold;vertical-align:top;">wsgi_input</td><td style="vertical-align:top;">:</td><td><div>&lt;socket._fileobject object at 0x0397CF70&gt;</div></td></tr><tr><td style="font-weight:bold;vertical-align:top;">wsgi_multiprocess</td><td style="vertical-align:top;">:</td><td><div>False</div></td></tr><tr><td style="font-weight:bold;vertical-align:top;">wsgi_multithread</td><td style="vertical-align:top;">:</td><td><div>True</div></td></tr><tr><td style="font-weight:bold;vertical-align:top;">wsgi_run_once</td><td style="vertical-align:top;">:</td><td><div>False</div></td></tr><tr><td style="font-weight:bold;vertical-align:top;">wsgi_url_scheme</td><td style="vertical-align:top;">:</td><td><div>http</div></td></tr><tr><td style="font-weight:bold;vertical-align:top;">wsgi_version</td><td style="vertical-align:top;">:</td><td><div><table><tr><td><div>1</div></td></tr><tr><td><div>0</div></td></tr></table></div></td></tr></table></div></td></tr><tr><td style="font-weight:bold;vertical-align:top;">extension</td><td style="vertical-align:top;">:</td><td><div>html</div></td></tr><tr><td style="font-weight:bold;vertical-align:top;">folder</td><td style="vertical-align:top;">:</td><td><div>D:\\web2pyVersion2.14.6\\applications\\antecedentesplataforma\\</div></td></tr><tr><td style="font-weight:bold;vertical-align:top;">function</td><td style="vertical-align:top;">:</td><td><div>dame_un_pdf</div></td></tr><tr><td style="font-weight:bold;vertical-align:top;">global_settings</td><td style="vertical-align:top;">:</td><td><div><table><tr><td style="font-weight:bold;vertical-align:top;">app_folders</td><td style="vertical-align:top;">:</td><td><div>set([&#x27;D:\\\\web2pyVersion2.14.6\\\\applications\\\\admin\\\\&#x27;, &#x27;D:\\\\web2pyVersion2.14.6\\\\applications\\\\antecedentesplataforma\\\\&#x27;, &#x27;D:\\\\web2pyVersion2.14.6\\\\applications\\\\welcome\\\\&#x27;])</div></td></tr><tr><td style="font-weight:bold;vertical-align:top;">applications_parent</td><td style="vertical-align:top;">:</td><td><div>D:\\web2pyVersion2.14.6</div></td></tr><tr><td style="font-weight:bold;vertical-align:top;">cmd_args</td><td style="vertical-align:top;">:</td><td><div><table></table></div></td></tr><tr><td style="font-weight:bold;vertical-align:top;">cmd_options</td><td style="vertical-align:top;">:</td><td><div>&lt;Values at 0x276ab98: {&#x27;verbose&#x27;: False, &#x27;ip&#x27;: &#x27;127.0.0.1&#x27;, &#x27;debuglevel&#x27;: 30, &#x27;with_scheduler&#x27;: False, &#x27;shutdown_timeout&#x27;: 5, &#x27;taskbar&#x27;: False, &#x27;with_coverage&#x27;: False, &#x27;pid_filename&#x27;: &#x27;httpserver.pid&#x27;, &#x27;maxthreads&#x27;: None, &#x27;softcron&#x27;: False, &#x27;server_name&#x27;: &#x27;HATAK3-PC&#x27;, &#x27;bpython&#x27;: False, &#x27;nogui&#x27;: False, &#x27;port&#x27;: 8000, &#x27;print_errors&#x27;: False, &#x27;extcron&#x27;: False, &#x27;runcron&#x27;: False, &#x27;run_system_tests&#x27;: False, &#x27;test&#x27;: None, &#x27;folder&#x27;: &#x27;D:\\\\web2pyVersion2.14.6&#x27;, &#x27;config&#x27;: &#x27;&#x27;, &#x27;minthreads&#x27;: None, &#x27;shell&#x27;: None, &#x27;run&#x27;: &#x27;&#x27;, &#x27;log_filename&#x27;: &#x27;httpserver.log&#x27;, &#x27;profiler_dir&#x27;: None, &#x27;args&#x27;: [&#x27;&#x27;], &#x27;socket_timeout&#x27;: 5, &#x27;ssl_ca_certificate&#x27;: None, &#x27;scheduler&#x27;: None, &#x27;interfaces&#x27;: None, &#x27;ssl_private_key&#x27;: &#x27;&#x27;, &#x27;gae&#x27;: None, &#x27;password&#x27;: &#x27;******&#x27;, &#x27;request_queue_size&#x27;: 5, &#x27;ssl_certificate&#x27;: &#x27;&#x27;, &#x27;cronjob&#x27;: False, &#x27;numthreads&#x27;: None, &#x27;quiet&#x27;: False, &#x27;import_models&#x27;: False, &#x27;timeout&#x27;: 10, &#x27;plain&#x27;: False, &#x27;nobanner&#x27;: False}&gt;</div></td></tr><tr><td style="font-weight:bold;vertical-align:top;">db_sessions</td><td style="vertical-align:top;">:</td><td><div>set([])</div></td></tr><tr><td style="font-weight:bold;vertical-align:top;">debugging</td><td style="vertical-align:top;">:</td><td><div>False</div></td></tr><tr><td style="font-weight:bold;vertical-align:top;">gluon_parent</td><td style="vertical-align:top;">:</td><td><div>D:\\web2pyVersion2.14.6</div></td></tr><tr><td style="font-weight:bold;vertical-align:top;">is_jython</td><td style="vertical-align:top;">:</td><td><div>False</div></td></tr><tr><td style="font-weight:bold;vertical-align:top;">is_pypy</td><td style="vertical-align:top;">:</td><td><div>False</div></td></tr><tr><td style="font-weight:bold;vertical-align:top;">is_source</td><td style="vertical-align:top;">:</td><td><div>False</div></td></tr><tr><td style="font-weight:bold;vertical-align:top;">local_hosts</td><td style="vertical-align:top;">:</td><td><div><table><tr><td><div>HATAK3-PC</div></td></tr><tr><td><div>169.254.120.32</div></td></tr><tr><td><div>::ffff:127.0.0.1</div></td></tr><tr><td><div>::1</div></td></tr><tr><td><div>fe80::b435:4451:4e49:7820%11</div></td></tr><tr><td><div>127.0.0.1</div></td></tr></table></div></td></tr><tr><td style="font-weight:bold;vertical-align:top;">web2py_version</td><td style="vertical-align:top;">:</td><td><div>2.14.6-stable+timestamp.2016.05.10.00.21.47</div></td></tr></table></div></td></tr><tr><td style="font-weight:bold;vertical-align:top;">is_https</td><td style="vertical-align:top;">:</td><td><div>False</div></td></tr><tr><td style="font-weight:bold;vertical-align:top;">is_local</td><td style="vertical-align:top;">:</td><td><div>True</div></td></tr><tr><td style="font-weight:bold;vertical-align:top;">is_restful</td><td style="vertical-align:top;">:</td><td><div>False</div></td></tr><tr><td style="font-weight:bold;vertical-align:top;">is_scheduler</td><td style="vertical-align:top;">:</td><td><div>False</div></td></tr><tr><td style="font-weight:bold;vertical-align:top;">is_shell</td><td style="vertical-align:top;">:</td><td><div>False</div></td></tr><tr><td style="font-weight:bold;vertical-align:top;">now</td><td style="vertical-align:top;">:</td><td><div>datetime.datetime(2019, 9, 16, 13, 32, 4, 184000)</div></td></tr><tr><td style="font-weight:bold;vertical-align:top;">raw_args</td><td style="vertical-align:top;">:</td><td><div>1/287566/</div></td></tr><tr><td style="font-weight:bold;vertical-align:top;">raw_extension</td><td style="vertical-align:top;">:</td><td><div>None</div></td></tr><tr><td style="font-weight:bold;vertical-align:top;">url</td><td style="vertical-align:top;">:</td><td><div>/antecedentesplataforma/imprimir/dame_un_pdf/1/287566//</div></td></tr><tr><td style="font-weight:bold;vertical-align:top;">utcnow</td><td style="vertical-align:top;">:</td><td><div>datetime.datetime(2019, 9, 16, 16, 32, 4, 184000)</div></td></tr><tr><td style="font-weight:bold;vertical-align:top;">wsgi</td><td style="vertical-align:top;">:</td><td><div>&lt;gluon.main.LazyWSGI object at 0x03E86B30&gt;</div></td></tr></table></div>'
tRp64
sS'frames'
p65
(lp66
(dp67
S'file'
p68
S'D:\\web2pyVersion2.14.6\\gluon\\restricted.py'
p69
sS'dump'
p70
(dp71
S'environment'
p72
S"{'A': <class 'gluon.html.A'>, 'ANY_OF': <class 'gluon.validators.ANY_OF'>, 'ASSIGNJS': <function ASSIGNJS>, 'AppConfig': <function AppConfig>, 'Auth': <class 'gluon.tools.Auth'>, 'B': <class 'gluon.html.B'>, 'BEAUTIFY': <class 'gluon.html.BEAUTIFY'>, 'BODY': <class 'gluon.html.BODY'>, 'BR': <class 'gluon.html.BR'>, 'BUTTON': <class 'gluon.html.BUTTON'>, ...}"
p73
sS'ccode'
p74
S'<code object <module> at 08217770, file "D:\\web2...entesplataforma\\controllers/imprimir.py", line 2>'
p75
ssS'lnum'
p76
I227
sS'lines'
p77
(dp78
I224
S'            ccode = code'
p79
sI225
S'        else:'
p80
sI226
S'            ccode = compile2(code, layer)'
p81
sI227
S'        exec ccode in environment'
p82
sI228
S'    except HTTP:'
p83
sI229
S'        raise'
p84
sI230
S'    except RestrictedError:'
p85
sI231
S'        # do not encapsulate (obfuscate) the original RestrictedError'
p86
sI222
S'    try:'
p87
sI223
S'        if isinstance(code, types.CodeType):'
p88
ssS'call'
p89
S"(code='\\nfrom reportlab.pdfgen import canvas\\n# def encab...\\n\\t\\n\\nresponse._vars=response._caller(dame_un_pdf)\\n', environment={'A': <class 'gluon.html.A'>, 'ANY_OF': <class 'gluon.validators.ANY_OF'>, 'ASSIGNJS': <function ASSIGNJS>, 'AppConfig': <function AppConfig>, 'Auth': <class 'gluon.tools.Auth'>, 'B': <class 'gluon.html.B'>, 'BEAUTIFY': <class 'gluon.html.BEAUTIFY'>, 'BODY': <class 'gluon.html.BODY'>, 'BR': <class 'gluon.html.BR'>, 'BUTTON': <class 'gluon.html.BUTTON'>, ...}, layer=r'D:\\web2pyVersion2.14.6\\applications\\antecedentesplataforma\\controllers/imprimir.py')"
p90
sS'func'
p91
S'restricted'
p92
sa(dp93
g68
S'D:\\web2pyVersion2.14.6\\applications\\antecedentesplataforma\\controllers\\imprimir.py'
p94
sg70
(dp95
sg76
I529
sg77
(dp96
I518
S''
sI519
S''
sI520
S''
sI521
S''
sI522
S''
sI523
S''
sI524
S''
sI525
S''
sI526
S''
sI527
S''
ssg89
S'()'
p97
sg91
S'<module>'
p98
sa(dp99
g68
S'D:\\web2pyVersion2.14.6\\gluon\\globals.py'
p100
sg70
(dp101
S'self'
p102
S'undefined'
p103
sS'f'
S'<function dame_un_pdf>'
p104
ssg76
I417
sg77
(dp105
I416
S'        self._vars = None'
p106
sI417
S'        self._caller = lambda f: f()'
p107
sI418
S'        self._view_environment = None'
p108
sI419
S'        self._custom_commit = None'
p109
sI420
S'        self._custom_rollback = None'
p110
sI421
S"        self.generic_patterns = ['*']"
p111
sI412
S"        self.flash = ''            # used by the default view layout"
p112
sI413
S'        self.meta = Storage()      # used by web2py_ajax.html'
p113
sI414
S'        self.menu = []             # used by the default view layout'
p114
sI415
S'        self.files = []            # used by web2py_ajax.html'
p115
ssg89
S'(f=<function dame_un_pdf>)'
p116
sg91
S'<lambda>'
p117
sa(dp118
g68
S'D:\\web2pyVersion2.14.6\\applications\\antecedentesplataforma\\controllers\\imprimir.py'
p119
sg70
(dp120
S'width'
p121
g103
sS'Image'
p122
S'<class reportlab.platypus.flowables.Image>'
p123
sS'imagen_logo'
p124
g103
sS'height'
p125
g103
ssg76
I235
sg77
(dp126
I230
S'\tsol.update_record(estado_solicitud="Impreso")'
p127
sI231
S''
sI232
S'\t#cargo las imagenes###################################################################################################'
p128
sI233
S''
sI234
S'    \t#~ #Una imagen.'
p129
sI235
S'\timagen_logo = Image("d:\\\\web2py\\\\applications\\\\antecedentesplataforma\\\\static\\\\images\\\\encabezado.jpg", width=500, height=80)'
p130
sI236
S'\timagen_firma = Image("d:\\\\web2py\\\\applications\\\\antecedentesplataforma\\\\static\\\\images\\\\firma.jpg", width=500, height=100)'
p131
sI237
S'\t##############################################################################################################################'
p132
sI238
S''
sI239
S'\t###############################################################################################################################'
p133
ssg89
S'()'
p134
sg91
S'dame_un_pdf'
p135
sa(dp136
g68
S'D:\\web2pyVersion2.14.6\\reportlab\\platypus\\flowables.py'
p137
sg70
(dp138
S'open_for_read'
p139
S'<function open_for_read>'
p140
sS'filename'
p141
S"r'd:\\web2py\\applications\\antecedentesplataforma\\static\\images\\encabezado.jpg'"
p142
sS'f'
g103
ssg76
I425
sg77
(dp143
I420
S'            self._file = self.filename = filename'
p144
sI421
S"        if not fp and os.path.splitext(filename)[1] in ['.jpg', '.JPG', '.jpeg', '.JPEG']:"
p145
sI422
S'            # if it is a JPEG, will be inlined within the file -'
p146
sI423
S'            # but we still need to know its size now'
p147
sI424
S'            from reportlab.lib.utils import open_for_read'
p148
sI425
S"            f = open_for_read(filename, 'b')"
p149
sI426
S'            try:'
p150
sI427
S'                try:'
p151
sI428
S'                    info = pdfutils.readJPEGInfo(f)'
p152
sI429
S'                except:'
p153
ssg89
S"(self=<reportlab.platypus.flowables.Image instance>, filename=r'd:\\web2py\\applications\\antecedentesplataforma\\static\\images\\encabezado.jpg', width=500, height=80, kind='direct', mask='auto', lazy=1, hAlign='CENTER')"
p154
sg91
g22
sa(dp155
g68
S'D:\\web2pyVersion2.14.6\\reportlab\\lib\\utils.py'
p156
sg70
(dp157
S'builtinIOError'
p158
S"<type 'exceptions.IOError'>"
p159
sS'name'
p160
S"r'd:\\web2py\\applications\\antecedentesplataforma\\static\\images\\encabezado.jpg'"
p161
ssg76
I672
sg77
(dp162
I672
S'            raise IOError(\'Cannot open resource "%s"\' % name)'
p163
sI673
S'del urlopen, datareader'
p164
sI674
S''
sI675
S"def open_and_read(name,mode='b'):"
p165
sI676
S'    f = open_for_read(name,mode)'
p166
sI667
S'        return open_for_read_by_name(name,mode)'
p167
sI668
S'    except:'
p168
sI669
S'        try:'
p169
sI670
S"            return getBytesIO(datareader(name) if name[:5].lower()=='data:' else urlopen(name).read())"
p170
sI671
S'        except:'
p171
ssg89
S"(name=r'd:\\web2py\\applications\\antecedentesplataforma\\static\\images\\encabezado.jpg', mode='b', urlopen=<function urlopen>, datareader=<function datareader>)"
p172
sg91
S'open_for_read'
p173
sasS'pyver'
p174
S'Python 2.7.9: D:\\web2pyVersion2.14.6\\web2py.exe (prefix: )'
p175
sS'session'
p176
g63
(S's\xf7\n\x00\x00<div><table><tr><td style="font-weight:bold;vertical-align:top;">auth</td><td style="vertical-align:top;">:</td><td><div><table><tr><td style="font-weight:bold;vertical-align:top;">expiration</td><td style="vertical-align:top;">:</td><td><div>3600</div></td></tr><tr><td style="font-weight:bold;vertical-align:top;">hmac_key</td><td style="vertical-align:top;">:</td><td><div>193bc1a6-5a24-4661-b8a2-be962abd1580</div></td></tr><tr><td style="font-weight:bold;vertical-align:top;">last_visit</td><td style="vertical-align:top;">:</td><td><div>datetime.datetime(2019, 9, 16, 13, 32, 4, 184000)</div></td></tr><tr><td style="font-weight:bold;vertical-align:top;">remember_me</td><td style="vertical-align:top;">:</td><td><div>False</div></td></tr><tr><td style="font-weight:bold;vertical-align:top;">user</td><td style="vertical-align:top;">:</td><td><div><table><tr><td style="font-weight:bold;vertical-align:top;">dni</td><td style="vertical-align:top;">:</td><td><div>29917029</div></td></tr><tr><td style="font-weight:bold;vertical-align:top;">email</td><td style="vertical-align:top;">:</td><td><div>juan@ulivar.com</div></td></tr><tr><td style="font-weight:bold;vertical-align:top;">first_name</td><td style="vertical-align:top;">:</td><td><div>juan</div></td></tr><tr><td style="font-weight:bold;vertical-align:top;">id</td><td style="vertical-align:top;">:</td><td><div>1L</div></td></tr><tr><td style="font-weight:bold;vertical-align:top;">iniciales</td><td style="vertical-align:top;">:</td><td><div>J.U.</div></td></tr><tr><td style="font-weight:bold;vertical-align:top;">last_name</td><td style="vertical-align:top;">:</td><td><div>ulivar</div></td></tr><tr><td style="font-weight:bold;vertical-align:top;">oficina</td><td style="vertical-align:top;">:</td><td><div>Super</div></td></tr><tr><td style="font-weight:bold;vertical-align:top;">registration_id</td><td style="vertical-align:top;">:</td><td><div></div></td></tr><tr><td style="font-weight:bold;vertical-align:top;">registration_key</td><td style="vertical-align:top;">:</td><td><div></div></td></tr><tr><td style="font-weight:bold;vertical-align:top;">reset_password_key</td><td style="vertical-align:top;">:</td><td><div></div></td></tr><tr><td style="font-weight:bold;vertical-align:top;">username</td><td style="vertical-align:top;">:</td><td><div>uli</div></td></tr></table></div></td></tr><tr><td style="font-weight:bold;vertical-align:top;">user_groups</td><td style="vertical-align:top;">:</td><td><div><table><tr><td style="font-weight:bold;vertical-align:top;">1</td><td style="vertical-align:top;">:</td><td><div>Super</div></td></tr></table></div></td></tr></table></div></td></tr><tr><td style="font-weight:bold;vertical-align:top;">flash</td><td style="vertical-align:top;">:</td><td><div>None</div></td></tr></table></div>'
tRp177
sS'etype'
p178
S"<type 'exceptions.IOError'>"
p179
sS'date'
p180
S'Mon Sep 16 13:32:04 2019'
p181
sS'response'
p182
g63
(S's\xee@\x00\x00<div><table><tr><td style="font-weight:bold;vertical-align:top;">body</td><td style="vertical-align:top;">:</td><td><div>&lt;cStringIO.StringO object at 0x03E867E0&gt;</div></td></tr><tr><td style="font-weight:bold;vertical-align:top;">cookies</td><td style="vertical-align:top;">:</td><td><div><table><tr><td style="font-weight:bold;vertical-align:top;">session_id_antecedentesplataforma</td><td style="vertical-align:top;">:</td><td><div>127.0.0.1-fcf8de59-b979-45bb-b353-a8866d7afc51<table><tr><td style="font-weight:bold;vertical-align:top;">comment</td><td style="vertical-align:top;">:</td><td><div></div></td></tr><tr><td style="font-weight:bold;vertical-align:top;">domain</td><td style="vertical-align:top;">:</td><td><div></div></td></tr><tr><td style="font-weight:bold;vertical-align:top;">expires</td><td style="vertical-align:top;">:</td><td><div></div></td></tr><tr><td style="font-weight:bold;vertical-align:top;">httponly</td><td style="vertical-align:top;">:</td><td><div></div></td></tr><tr><td style="font-weight:bold;vertical-align:top;">max-age</td><td style="vertical-align:top;">:</td><td><div></div></td></tr><tr><td style="font-weight:bold;vertical-align:top;">path</td><td style="vertical-align:top;">:</td><td><div>/</div></td></tr><tr><td style="font-weight:bold;vertical-align:top;">secure</td><td style="vertical-align:top;">:</td><td><div></div></td></tr><tr><td style="font-weight:bold;vertical-align:top;">version</td><td style="vertical-align:top;">:</td><td><div></div></td></tr></table></div></td></tr></table></div></td></tr><tr><td style="font-weight:bold;vertical-align:top;">delimiters</td><td style="vertical-align:top;">:</td><td><div><table><tr><td><div>{{</div></td></tr><tr><td><div>}}</div></td></tr></table></div></td></tr><tr><td style="font-weight:bold;vertical-align:top;">files</td><td style="vertical-align:top;">:</td><td><div><table></table></div></td></tr><tr><td style="font-weight:bold;vertical-align:top;">flash</td><td style="vertical-align:top;">:</td><td><div></div></td></tr><tr><td style="font-weight:bold;vertical-align:top;">form_label_separator</td><td style="vertical-align:top;">:</td><td><div></div></td></tr><tr><td style="font-weight:bold;vertical-align:top;">formstyle</td><td style="vertical-align:top;">:</td><td><div>bootstrap3_inline</div></td></tr><tr><td style="font-weight:bold;vertical-align:top;">generic_patterns</td><td style="vertical-align:top;">:</td><td><div><table><tr><td><div>*</div></td></tr></table></div></td></tr><tr><td style="font-weight:bold;vertical-align:top;">google_analytics_id</td><td style="vertical-align:top;">:</td><td><div>None</div></td></tr><tr><td style="font-weight:bold;vertical-align:top;">headers</td><td style="vertical-align:top;">:</td><td><div><table><tr><td style="font-weight:bold;vertical-align:top;">X-Powered-By</td><td style="vertical-align:top;">:</td><td><div>web2py</div></td></tr></table></div></td></tr><tr><td style="font-weight:bold;vertical-align:top;">logo</td><td style="vertical-align:top;">:</td><td><div><a class="navbar-brand" href="http://www.web2py.com/" id="web2py-logo"><b>web<span>2</span>py</b>&trade;&nbsp;</a></div></td></tr><tr><td style="font-weight:bold;vertical-align:top;">menu</td><td style="vertical-align:top;">:</td><td><div><table><tr><td><div><table><tr><td><div>Inicio</div></td></tr><tr><td><div>False</div></td></tr><tr><td><div>/antecedentesplataforma/default/index</div></td></tr><tr><td><div><table></table></div></td></tr></table></div></td></tr><tr><td><div><table><tr><td><div>Mis Sitios</div></td></tr><tr><td><div>False</div></td></tr><tr><td><div>/admin/default/site</div></td></tr></table></div></td></tr><tr><td><div><table><tr><td><div>Esta Aplicaci\xc3\xb3n</div></td></tr><tr><td><div>False</div></td></tr><tr><td><div>#</div></td></tr><tr><td><div><table><tr><td><div><table><tr><td><div>Design</div></td></tr><tr><td><div>False</div></td></tr><tr><td><div>/admin/default/design/antecedentesplataforma</div></td></tr></table></div></td></tr><tr><td><div><li class="divider"></li></div></td></tr><tr><td><div><table><tr><td><div>Controlador</div></td></tr><tr><td><div>False</div></td></tr><tr><td><div>/admin/default/edit/antecedentesplataforma/controllers/imprimir.py</div></td></tr></table></div></td></tr><tr><td><div><table><tr><td><div>Vista</div></td></tr><tr><td><div>False</div></td></tr><tr><td><div>/admin/default/edit/antecedentesplataforma/views/imprimir/dame_un_pdf.html</div></td></tr></table></div></td></tr><tr><td><div><table><tr><td><div>Modelo BDD</div></td></tr><tr><td><div>False</div></td></tr><tr><td><div>/admin/default/edit/antecedentesplataforma/models/db.py</div></td></tr></table></div></td></tr><tr><td><div><table><tr><td><div>Modelo "menu"</div></td></tr><tr><td><div>False</div></td></tr><tr><td><div>/admin/default/edit/antecedentesplataforma/models/menu.py</div></td></tr></table></div></td></tr><tr><td><div><table><tr><td><div>Config.ini</div></td></tr><tr><td><div>False</div></td></tr><tr><td><div>/admin/default/edit/antecedentesplataforma/private/appconfig.ini</div></td></tr></table></div></td></tr><tr><td><div><table><tr><td><div>Dise\xc3\xb1o de p\xc3\xa1gina</div></td></tr><tr><td><div>False</div></td></tr><tr><td><div>/admin/default/edit/antecedentesplataforma/views/layout.html</div></td></tr></table></div></td></tr><tr><td><div><table><tr><td><div>Hoja de estilo</div></td></tr><tr><td><div>False</div></td></tr><tr><td><div>/admin/default/edit/antecedentesplataforma/static/css/web2py-bootstrap3.css</div></td></tr></table></div></td></tr><tr><td><div><table><tr><td><div>Base de datos</div></td></tr><tr><td><div>False</div></td></tr><tr><td><div>/antecedentesplataforma/appadmin/index</div></td></tr></table></div></td></tr><tr><td><div><table><tr><td><div>Errores</div></td></tr><tr><td><div>False</div></td></tr><tr><td><div>/admin/default/errors/antecedentesplataforma</div></td></tr></table></div></td></tr><tr><td><div><table><tr><td><div>Acerca de</div></td></tr><tr><td><div>False</div></td></tr><tr><td><div>/admin/default/about/antecedentesplataforma</div></td></tr></table></div></td></tr></table></div></td></tr></table></div></td></tr><tr><td><div><table><tr><td><div>web2py.com</div></td></tr><tr><td><div>False</div></td></tr><tr><td><div>#</div></td></tr><tr><td><div><table><tr><td><div><table><tr><td><div>Descargas</div></td></tr><tr><td><div>False</div></td></tr><tr><td><div>http://www.web2py.com/examples/default/download</div></td></tr></table></div></td></tr><tr><td><div><table><tr><td><div>Soporte</div></td></tr><tr><td><div>False</div></td></tr><tr><td><div>http://www.web2py.com/examples/default/support</div></td></tr></table></div></td></tr><tr><td><div><table><tr><td><div>Demostraci\xc3\xb3n</div></td></tr><tr><td><div>False</div></td></tr><tr><td><div>http://web2py.com/demo_admin</div></td></tr></table></div></td></tr><tr><td><div><table><tr><td><div>Ejemplos R\xc3\xa1pidos</div></td></tr><tr><td><div>False</div></td></tr><tr><td><div>http://web2py.com/examples/default/examples</div></td></tr></table></div></td></tr><tr><td><div><table><tr><td><div>FAQ</div></td></tr><tr><td><div>False</div></td></tr><tr><td><div>http://web2py.com/AlterEgo</div></td></tr></table></div></td></tr><tr><td><div><table><tr><td><div>V\xc3\xaddeos</div></td></tr><tr><td><div>False</div></td></tr><tr><td><div>http://www.web2py.com/examples/default/videos/</div></td></tr></table></div></td></tr><tr><td><div><table><tr><td><div>Aplicaciones Libres</div></td></tr><tr><td><div>False</div></td></tr><tr><td><div>http://web2py.com/appliances</div></td></tr></table></div></td></tr><tr><td><div><table><tr><td><div>Plugins</div></td></tr><tr><td><div>False</div></td></tr><tr><td><div>http://web2py.com/plugins</div></td></tr></table></div></td></tr><tr><td><div><table><tr><td><div>Recetas</div></td></tr><tr><td><div>False</div></td></tr><tr><td><div>http://web2pyslices.com/</div></td></tr></table></div></td></tr></table></div></td></tr></table></div></td></tr><tr><td><div><table><tr><td><div>Documentaci\xc3\xb3n</div></td></tr><tr><td><div>False</div></td></tr><tr><td><div>#</div></td></tr><tr><td><div><table><tr><td><div><table><tr><td><div>Online book</div></td></tr><tr><td><div>False</div></td></tr><tr><td><div>http://www.web2py.com/book</div></td></tr></table></div></td></tr><tr><td><div><li class="divider"></li></div></td></tr><tr><td><div><table><tr><td><div>Prefacio</div></td></tr><tr><td><div>False</div></td></tr><tr><td><div>http://www.web2py.com/book/default/chapter/00</div></td></tr></table></div></td></tr><tr><td><div><table><tr><td><div>Introducci\xc3\xb3n</div></td></tr><tr><td><div>False</div></td></tr><tr><td><div>http://www.web2py.com/book/default/chapter/01</div></td></tr></table></div></td></tr><tr><td><div><table><tr><td><div>Python</div></td></tr><tr><td><div>False</div></td></tr><tr><td><div>http://www.web2py.com/book/default/chapter/02</div></td></tr></table></div></td></tr><tr><td><div><table><tr><td><div>Resumen</div></td></tr><tr><td><div>False</div></td></tr><tr><td><div>http://www.web2py.com/book/default/chapter/03</div></td></tr></table></div></td></tr><tr><td><div><table><tr><td><div>El N\xc3\xbacleo</div></td></tr><tr><td><div>False</div></td></tr><tr><td><div>http://www.web2py.com/book/default/chapter/04</div></td></tr></table></div></td></tr><tr><td><div><table><tr><td><div>Las Vistas</div></td></tr><tr><td><div>False</div></td></tr><tr><td><div>http://www.web2py.com/book/default/chapter/05</div></td></tr></table></div></td></tr><tr><td><div><table><tr><td><div>Base de datos</div></td></tr><tr><td><div>False</div></td></tr><tr><td><div>http://www.web2py.com/book/default/chapter/06</div></td></tr></table></div></td></tr><tr><td><div><table><tr><td><div>Formularios y validadores</div></td></tr><tr><td><div>False</div></td></tr><tr><td><div>http://www.web2py.com/book/default/chapter/07</div></td></tr></table></div></td></tr><tr><td><div><table><tr><td><div>Correo electr\xc3\xb3nico y SMS</div></td></tr><tr><td><div>False</div></td></tr><tr><td><div>http://www.web2py.com/book/default/chapter/08</div></td></tr></table></div></td></tr><tr><td><div><table><tr><td><div>Control de Acceso</div></td></tr><tr><td><div>False</div></td></tr><tr><td><div>http://www.web2py.com/book/default/chapter/09</div></td></tr></table></div></td></tr><tr><td><div><table><tr><td><div>Servicios</div></td></tr><tr><td><div>False</div></td></tr><tr><td><div>http://www.web2py.com/book/default/chapter/10</div></td></tr></table></div></td></tr><tr><td><div><table><tr><td><div>Recetas AJAX</div></td></tr><tr><td><div>False</div></td></tr><tr><td><div>http://www.web2py.com/book/default/chapter/11</div></td></tr></table></div></td></tr><tr><td><div><table><tr><td><div>Componentes y Plugins</div></td></tr><tr><td><div>False</div></td></tr><tr><td><div>http://www.web2py.com/book/default/chapter/12</div></td></tr></table></div></td></tr><tr><td><div><table><tr><td><div>Recetas de despliegue</div></td></tr><tr><td><div>False</div></td></tr><tr><td><div>http://www.web2py.com/book/default/chapter/13</div></td></tr></table></div></td></tr><tr><td><div><table><tr><td><div>Otras Recetas</div></td></tr><tr><td><div>False</div></td></tr><tr><td><div>http://www.web2py.com/book/default/chapter/14</div></td></tr></table></div></td></tr><tr><td><div><table><tr><td><div>Helping web2py</div></td></tr><tr><td><div>False</div></td></tr><tr><td><div>http://www.web2py.com/book/default/chapter/15</div></td></tr></table></div></td></tr><tr><td><div><table><tr><td><div>Buy web2py\'s book</div></td></tr><tr><td><div>False</div></td></tr><tr><td><div>http://stores.lulu.com/web2py</div></td></tr></table></div></td></tr></table></div></td></tr></table></div></td></tr><tr><td><div><table><tr><td><div>Comunidad</div></td></tr><tr><td><div>False</div></td></tr><tr><td><div>None</div></td></tr><tr><td><div><table><tr><td><div><table><tr><td><div>Grupos</div></td></tr><tr><td><div>False</div></td></tr><tr><td><div>http://www.web2py.com/examples/default/usergroups</div></td></tr></table></div></td></tr><tr><td><div><table><tr><td><div>Twitter</div></td></tr><tr><td><div>False</div></td></tr><tr><td><div>http://twitter.com/web2py</div></td></tr></table></div></td></tr><tr><td><div><table><tr><td><div>Chat en vivo</div></td></tr><tr><td><div>False</div></td></tr><tr><td><div>http://webchat.freenode.net/?channels=web2py</div></td></tr></table></div></td></tr></table></div></td></tr></table></div></td></tr></table></div></td></tr><tr><td style="font-weight:bold;vertical-align:top;">meta</td><td style="vertical-align:top;">:</td><td><div><table><tr><td style="font-weight:bold;vertical-align:top;">author</td><td style="vertical-align:top;">:</td><td><div>Your Name &lt;you@example.com&gt;</div></td></tr><tr><td style="font-weight:bold;vertical-align:top;">description</td><td style="vertical-align:top;">:</td><td><div>a cool new app</div></td></tr><tr><td style="font-weight:bold;vertical-align:top;">generator</td><td style="vertical-align:top;">:</td><td><div>Web2py Web Framework</div></td></tr><tr><td style="font-weight:bold;vertical-align:top;">keywords</td><td style="vertical-align:top;">:</td><td><div><table><tr><td><div>web2py</div></td></tr><tr><td><div>python</div></td></tr><tr><td><div>framework</div></td></tr></table></div></td></tr></table></div></td></tr><tr><td style="font-weight:bold;vertical-align:top;">models_to_run</td><td style="vertical-align:top;">:</td><td><div><table><tr><td><div>^\\w+\\.py$</div></td></tr><tr><td><div>^imprimir/\\w+\\.py$</div></td></tr><tr><td><div>^imprimir/dame_un_pdf/\\w+\\.py$</div></td></tr></table></div></td></tr><tr><td style="font-weight:bold;vertical-align:top;">postprocessing</td><td style="vertical-align:top;">:</td><td><div><table></table></div></td></tr><tr><td style="font-weight:bold;vertical-align:top;">session_client</td><td style="vertical-align:top;">:</td><td><div>127.0.0.1</div></td></tr><tr><td style="font-weight:bold;vertical-align:top;">session_cookie_compression_level</td><td style="vertical-align:top;">:</td><td><div>None</div></td></tr><tr><td style="font-weight:bold;vertical-align:top;">session_cookie_expires</td><td style="vertical-align:top;">:</td><td><div>None</div></td></tr><tr><td style="font-weight:bold;vertical-align:top;">session_data_name</td><td style="vertical-align:top;">:</td><td><div>session_data_antecedentesplataforma</div></td></tr><tr><td style="font-weight:bold;vertical-align:top;">session_file</td><td style="vertical-align:top;">:</td><td><div>&lt;open file &#x27;D:\\\\web2pyVersion2.14.6\\\\applications\\\\antecedentesplataforma\\\\sessions\\\\1e1\\\\19e\\\\127.0.0.1-fcf8de59-b979-45bb-b353-a8866d7afc51&#x27;, mode &#x27;rb+&#x27; at 0x0421B390&gt;</div></td></tr><tr><td style="font-weight:bold;vertical-align:top;">session_filename</td><td style="vertical-align:top;">:</td><td><div>D:\\web2pyVersion2.14.6\\applications\\antecedentesplataforma\\sessions\\127.0.0.1-fcf8de59-b979-45bb-b353-a8866d7afc51</div></td></tr><tr><td style="font-weight:bold;vertical-align:top;">session_hash</td><td style="vertical-align:top;">:</td><td><div>0154185bc1e30111f26774e9b1e4c29d</div></td></tr><tr><td style="font-weight:bold;vertical-align:top;">session_id</td><td style="vertical-align:top;">:</td><td><div>127.0.0.1-fcf8de59-b979-45bb-b353-a8866d7afc51</div></td></tr><tr><td style="font-weight:bold;vertical-align:top;">session_id_name</td><td style="vertical-align:top;">:</td><td><div>session_id_antecedentesplataforma</div></td></tr><tr><td style="font-weight:bold;vertical-align:top;">session_locked</td><td style="vertical-align:top;">:</td><td><div>True</div></td></tr><tr><td style="font-weight:bold;vertical-align:top;">session_masterapp</td><td style="vertical-align:top;">:</td><td><div>antecedentesplataforma</div></td></tr><tr><td style="font-weight:bold;vertical-align:top;">session_new</td><td style="vertical-align:top;">:</td><td><div>False</div></td></tr><tr><td style="font-weight:bold;vertical-align:top;">session_storage_type</td><td style="vertical-align:top;">:</td><td><div>file</div></td></tr><tr><td style="font-weight:bold;vertical-align:top;">status</td><td style="vertical-align:top;">:</td><td><div>200</div></td></tr><tr><td style="font-weight:bold;vertical-align:top;">subtitle</td><td style="vertical-align:top;">:</td><td><div></div></td></tr><tr><td style="font-weight:bold;vertical-align:top;">title</td><td style="vertical-align:top;">:</td><td><div>Antecedentesplataforma</div></td></tr><tr><td style="font-weight:bold;vertical-align:top;">view</td><td style="vertical-align:top;">:</td><td><div>imprimir/dame_un_pdf.html</div></td></tr></table></div>'
tRp183
sS'locals'
p184
(dp185
S'urlopen'
p186
S'<function urlopen>'
p187
sS'datareader'
p188
S'<function datareader>'
p189
sS'mode'
p190
S"'b'"
p191
sS'name'
p192
S"r'd:\\web2py\\applications\\antecedentesplataforma\\static\\images\\encabezado.jpg'"
p193
sssS'traceback'
p194
S'Traceback (most recent call last):\n  File "D:\\web2pyVersion2.14.6\\gluon\\restricted.py", line 227, in restricted\n    exec ccode in environment\n  File "D:\\web2pyVersion2.14.6\\applications\\antecedentesplataforma\\controllers/imprimir.py", line 529, in <module>\n  File "D:\\web2pyVersion2.14.6\\gluon\\globals.py", line 417, in <lambda>\n    self._caller = lambda f: f()\n  File "D:\\web2pyVersion2.14.6\\applications\\antecedentesplataforma\\controllers/imprimir.py", line 235, in dame_un_pdf\n    imagen_logo = Image("d:\\\\web2py\\\\applications\\\\antecedentesplataforma\\\\static\\\\images\\\\encabezado.jpg", width=500, height=80)\n  File "reportlab\\platypus\\flowables.py", line 425, in __init__\n    f = open_for_read(filename, \'b\')\n  File "reportlab\\lib\\utils.py", line 672, in open_for_read\n    raise IOError(\'Cannot open resource "%s"\' % name)\nIOError: Cannot open resource "d:\\web2py\\applications\\antecedentesplataforma\\static\\images\\encabezado.jpg"\n'
p195
s.