(dp1
S'output'
p2
S"<type 'exceptions.ValueError'> invalid literal for long() with base 10: 'ARGENTINA'"
p3
sS'layer'
p4
S'D:\\web2py\\applications\\antecedentesplataforma\\controllers/confeccion.py'
p5
sS'code'
p6
S'def confeccion():\n\treturn dict()\ndef por_sistema():\n\tfrom gluon.serializers import json\t\t\t#importo json\n\tsetsoli=db(db.solicitud.estado_solicitud=="Confeccion").select()\t#realizo un set de los registros con estado confeccion\n\tco=json(setsoli)\t\t\t\t\t\t\t\t\t\t\t\t\t#trasformo el set a formato json\n\n\treturn dict(co=co)\ndef procesar():\t\n\tfrom datetime import date,time\n\tfecha=date.today()\n\t\n\tquien=auth.user.id            #atrapo el usuario logueado\n    \tuser=db(db.auth_user.id==quien).select().first()#pregunto quien esta logueado\n    \tusuario_nombre=user.first_name\n    \tusuario_apellido=user.last_name\n    \tusuario=usuario_nombre+" "+usuario_apellido#concateno cadena para generar el nombre del usuario\n    \tiniciales=user.iniciales\n\n    \t\n\tclave={\'1\':"A.G.",\'2\':"C.I.",\'3\':"D.C.P",\'4\':"D.E",\'5\':"R.C",\'6\':"S.P.",\'0\':None}\n\tvalor={\'A.G.\':"1",\'C.I.\':"2",\'D.C.P.\':"3",\'D.E.\':"4",\'R.C.\':"5",\'S.P.\':"6",None:\'0\'}\n\n    \t\t\t\t\t\t\t\t\t\n\tide_soli=int(request.args[0])#atrapo id\n\tsetsoli=db(db.solicitud.id==ide_soli).select().last()\t#realizo un ser para sacar datos de la tabla\n\tdnpa_soli=setsoli.dni  \t#dni/pasaporte de la tabla solicitud\n\tsoli_por_soli=setsoli.solicitado_por\t\t\t\t\t#solicitado por de la tabla solicitud\n\tcapital_soli=setsoli.capitalinterior\n\ttiene=setsoli.t_antecedentes\n\tanteceden=setsoli.antecedentes\t\t\t\t\t\n\tsetpadron=db((db.padron.DocumentoNro==dnpa_soli)|(db.padron.Pasaporte==dnpa_soli)).select().first()\n\tide_padron=setpadron.id \t\t\t\t\t\t\t\t#saco el id de la persona en la tabla padron\n\tdni_padron=setpadron.DocumentoNro\n\tpasa_padron=setpadron.Pasaporte\n\tapellido_padron=setpadron.Apellido\n\tnombre_padron=setpadron.Nombre\n\tProfesion_padron=setpadron.Profesion\n\tte=setpadron.IdProntuarioTipo\t\t#tipo de padron\n\tte=str(te)#convierto a string\n\ttipo=clave[te]#reemplazo en el diccionario para sacar el tipo a mostrar en el formulario\n\ttipo=str(tipo)#paso a cadena el tipo de prontuario para mostrar en el formulario\t\n\tnum_padron=setpadron.ProntuarioNro\n\tdomi_padron=setpadron.Direccion\n\tprof_padron=setpadron.Profesion\n\tcivil_padron=setpadron.EstadoCivil\n\tclase_padron=setpadron.Clase\n\tpais_padron=setpadron.IdPais\n\tpais_padron=pais_padron\t\t\n\t#realizo un factory para modificar los valores a imprimir\n\ttpront=""\n\tqtipo=""\n\t\n\n    \t\n\n\tform=SQLFORM.factory(\n\tField(\'dni\',\'int\',label="Ingrese el Dni",requires=IS_NOT_EMPTY(error_message=\'El campo puede estar vac\xc3\xado\'),default=dnpa_soli),\n\tField(\'pasaporte\',label="Ingrese el Pasaporte",default=pasa_padron),\n\tField(\'tipo\',label="Tipo de Prontuario",requires=IS_IN_SET(["A.G.","C.I.","D.C.P.","D.E.","R.C.","S.P."],error_message=\'Error escoja una opcion\'),default=tipo),\n\tField(\'nprontuario\',label="N\xc2\xba de Prontuario",default=num_padron),\n\tField(\'apellido\',label="Apellido",default=apellido_padron),\n\tField(\'nombre\',label=\'Nombre\',default=nombre_padron),\n\tField(\'domicilio\',label=\'Domicilio\',default=domi_padron),\n\tField(\'e_civil\',label=\'Estado Civil\',requires=IS_IN_SET(["S","C","D","V"],error_message=\'Elija una opcion\'),default=civil_padron),\n\tField(\'clase\',\'int\',label=\'Clase\',default=clase_padron,requires=IS_INT_IN_RANGE(1900,2100,error_message=\'Error la clase debe ser ej: 1942\')),\n\tField(\'Profesion\',default=Profesion_padron),\n\tField(\'pais\',label=\'Pais\',requires=IS_IN_DB(db,\'paises.pais\',error_message=\'Error escoja una opcion\'),default=pais_padron),\n\tField(\'soli_por\',label=\'Solicitado Por\',default=soli_por_soli),\n\tField(\'intervino\',label=\'Intervino\',default=iniciales),\n\tField(\'donde\',label="Localidad",requires=IS_IN_SET(["Capital","Interior"],error_message=\'Error escoja una opcion\'),default=capital_soli),\n\tField(\'t_antece\',label="Tiene Antecedentes",requires=IS_IN_SET(["SI","NO"],error_message=\'Error escoja una opcion\'),default=tiene),\n\tField(\'antecedentes\',\'text\',default=anteceden,label=\'Antecedentes\'),\n\n    )   \t\n           \n    \tif form.accepts(request,session):\n    \t\t#tomo el valor q toma el campo del form tipo \n\n    \t\ttpront=form.vars.tipo\n    \t\ttpront=str(tpront)\n    \t\tqtipo=valor[tpront]\n    \t\tqtipo=str(qtipo)\n    \t\t\n    \t\t\n        \t#actualizo los campos en la tabla padron\n        \tsetpadron.update_record(IdProntuarioTipo=qtipo,\n        \t\tProntuarioNro=form.vars.nprontuario,Direccion=form.vars.domicilio,Clase=form.vars.clase,\n        \t\tIdPais=form.vars.pais,Profesion=form.vars.Profesion)\n\n        \tsetsoli.update_record(apellido=form.vars.apellido,nombre=form.vars.nombre,tipo_prontuario=tipo,\n        \t\tprontuario=form.vars.nprontuario,solicitado_por=form.vars.soli_por,intervino=form.vars.intervino\n        \t\t,capitalinterior=form.vars.donde,estado_solicitud="Completado",usuario=usuario,\n        \t\tantecedentes=form.vars.antecedentes,t_antecedentes=form.vars.t_antece)\n\n        \tdb.historial.insert(dni=form.vars.dni,pasaporte=form.vars.pasaporte,nombre=form.vars.nombre,\n        \t\tapellido=form.vars.apellido,capitalinterior=form.vars.donde,intervino=form.vars.intervino,\n        \t\tt_antecedentes=form.vars.t_antece,antecedentes=form.vars.antecedentes,fecha_solicitada=fecha\n         #redirect(URL(c=\'confeccion\',f=\'pre_imprimir\'))          \t\t\n        \t\t)  \n\n\n    \telif form.errors:\n            response.flash = \'el formulario tiene errores\'\n    \telse:\n            response.flash = \'por favor complete el formulario\'\n\n\n\t\n\n\treturn dict(dnpa_soli=dnpa_soli,iniciales=iniciales,dni_padron=dni_padron\n \t,pasa_padron=pasa_padron,apellido_padron=apellido_padron,nombre_padron=nombre_padron,tipo=tipo\n \t,num_padron=num_padron,domi_padron=domi_padron,prof_padron=prof_padron,civil_padron=civil_padron\n \t,clase_padron=clase_padron,pais_padron=pais_padron,ide_soli=ide_soli,capital_soli=capital_soli,\n \tsoli_por_soli=soli_por_soli,ide_padron=ide_padron,form=form,clave=clave,valor=valor,qtipo=qtipo,fecha=fecha)\n \t\ndef pre_imprimir():\n\t\n\n\n\n\treturn dict() \t\n\t\n\n\t\t\nresponse._vars=response._caller(procesar)\n'
p7
sS'snapshot'
p8
(dp9
S'exception'
p10
(dp11
S'__hash__'
p12
S"<method-wrapper '__hash__' of exceptions.ValueError object>"
p13
sS'__setattr__'
p14
S"<method-wrapper '__setattr__' of exceptions.ValueError object>"
p15
sS'__reduce_ex__'
p16
S'<built-in method __reduce_ex__ of exceptions.ValueError object>'
p17
sS'__getslice__'
p18
S"<method-wrapper '__getslice__' of exceptions.ValueError object>"
p19
sS'__getitem__'
p20
S"<method-wrapper '__getitem__' of exceptions.ValueError object>"
p21
sS'__setstate__'
p22
S'<built-in method __setstate__ of exceptions.ValueError object>'
p23
sS'__reduce__'
p24
S'<built-in method __reduce__ of exceptions.ValueError object>'
p25
sS'__str__'
p26
S"<method-wrapper '__str__' of exceptions.ValueError object>"
p27
sS'__format__'
p28
S'<built-in method __format__ of exceptions.ValueError object>'
p29
sS'__getattribute__'
p30
S"<method-wrapper '__getattribute__' of exceptions.ValueError object>"
p31
sS'__class__'
p32
S"<type 'exceptions.ValueError'>"
p33
sS'__unicode__'
p34
S'<built-in method __unicode__ of exceptions.ValueError object>'
p35
sS'__delattr__'
p36
S"<method-wrapper '__delattr__' of exceptions.ValueError object>"
p37
sS'__subclasshook__'
p38
S'<built-in method __subclasshook__ of type object>'
p39
sS'__repr__'
p40
S"<method-wrapper '__repr__' of exceptions.ValueError object>"
p41
sS'args'
p42
S'("invalid literal for long() with base 10: \'ARGENTINA\'",)'
p43
sS'__dict__'
p44
S'{}'
p45
sS'__sizeof__'
p46
S'<built-in method __sizeof__ of exceptions.ValueError object>'
p47
sS'__doc__'
p48
S"'Inappropriate argument value (of correct type).'"
p49
sS'__init__'
p50
S"<method-wrapper '__init__' of exceptions.ValueError object>"
p51
sS'__new__'
p52
S'<built-in method __new__ of type object>'
p53
ssS'evalue'
p54
S"invalid literal for long() with base 10: 'ARGENTINA'"
p55
sS'request'
p56
cgluon.html
XML_unpickle
p57
(S's\xf6d\x00\x00<div><table><tr><td style="font-weight:bold;vertical-align:top;">ajax</td><td style="vertical-align:top;">:</td><td><div>False</div></td></tr><tr><td style="font-weight:bold;vertical-align:top;">application</td><td style="vertical-align:top;">:</td><td><div>antecedentesplataforma</div></td></tr><tr><td style="font-weight:bold;vertical-align:top;">args</td><td style="vertical-align:top;">:</td><td><div><table><tr><td><div>71088</div></td></tr></table></div></td></tr><tr><td style="font-weight:bold;vertical-align:top;">cid</td><td style="vertical-align:top;">:</td><td><div>None</div></td></tr><tr><td style="font-weight:bold;vertical-align:top;">client</td><td style="vertical-align:top;">:</td><td><div>127.0.0.1</div></td></tr><tr><td style="font-weight:bold;vertical-align:top;">controller</td><td style="vertical-align:top;">:</td><td><div>confeccion</div></td></tr><tr><td style="font-weight:bold;vertical-align:top;">cookies</td><td style="vertical-align:top;">:</td><td><div><table><tr><td style="font-weight:bold;vertical-align:top;">session_id_admin</td><td style="vertical-align:top;">:</td><td><div>127.0.0.1-a3bf07a4-4f13-46ca-870e-b250a4f707fd<table><tr><td style="font-weight:bold;vertical-align:top;">comment</td><td style="vertical-align:top;">:</td><td><div></div></td></tr><tr><td style="font-weight:bold;vertical-align:top;">domain</td><td style="vertical-align:top;">:</td><td><div></div></td></tr><tr><td style="font-weight:bold;vertical-align:top;">expires</td><td style="vertical-align:top;">:</td><td><div></div></td></tr><tr><td style="font-weight:bold;vertical-align:top;">httponly</td><td style="vertical-align:top;">:</td><td><div></div></td></tr><tr><td style="font-weight:bold;vertical-align:top;">max-age</td><td style="vertical-align:top;">:</td><td><div></div></td></tr><tr><td style="font-weight:bold;vertical-align:top;">path</td><td style="vertical-align:top;">:</td><td><div></div></td></tr><tr><td style="font-weight:bold;vertical-align:top;">secure</td><td style="vertical-align:top;">:</td><td><div></div></td></tr><tr><td style="font-weight:bold;vertical-align:top;">version</td><td style="vertical-align:top;">:</td><td><div></div></td></tr></table></div></td></tr><tr><td style="font-weight:bold;vertical-align:top;">session_id_antecedentesplataforma</td><td style="vertical-align:top;">:</td><td><div>127.0.0.1-9fd3fe3c-dda4-4589-bb56-14df99b5a51f<table><tr><td style="font-weight:bold;vertical-align:top;">comment</td><td style="vertical-align:top;">:</td><td><div></div></td></tr><tr><td style="font-weight:bold;vertical-align:top;">domain</td><td style="vertical-align:top;">:</td><td><div></div></td></tr><tr><td style="font-weight:bold;vertical-align:top;">expires</td><td style="vertical-align:top;">:</td><td><div></div></td></tr><tr><td style="font-weight:bold;vertical-align:top;">httponly</td><td style="vertical-align:top;">:</td><td><div></div></td></tr><tr><td style="font-weight:bold;vertical-align:top;">max-age</td><td style="vertical-align:top;">:</td><td><div></div></td></tr><tr><td style="font-weight:bold;vertical-align:top;">path</td><td style="vertical-align:top;">:</td><td><div></div></td></tr><tr><td style="font-weight:bold;vertical-align:top;">secure</td><td style="vertical-align:top;">:</td><td><div></div></td></tr><tr><td style="font-weight:bold;vertical-align:top;">version</td><td style="vertical-align:top;">:</td><td><div></div></td></tr></table></div></td></tr><tr><td style="font-weight:bold;vertical-align:top;">session_id_welcome</td><td style="vertical-align:top;">:</td><td><div>127.0.0.1-e12215ac-ea6b-4058-bef2-8bad4711289c<table><tr><td style="font-weight:bold;vertical-align:top;">comment</td><td style="vertical-align:top;">:</td><td><div></div></td></tr><tr><td style="font-weight:bold;vertical-align:top;">domain</td><td style="vertical-align:top;">:</td><td><div></div></td></tr><tr><td style="font-weight:bold;vertical-align:top;">expires</td><td style="vertical-align:top;">:</td><td><div></div></td></tr><tr><td style="font-weight:bold;vertical-align:top;">httponly</td><td style="vertical-align:top;">:</td><td><div></div></td></tr><tr><td style="font-weight:bold;vertical-align:top;">max-age</td><td style="vertical-align:top;">:</td><td><div></div></td></tr><tr><td style="font-weight:bold;vertical-align:top;">path</td><td style="vertical-align:top;">:</td><td><div></div></td></tr><tr><td style="font-weight:bold;vertical-align:top;">secure</td><td style="vertical-align:top;">:</td><td><div></div></td></tr><tr><td style="font-weight:bold;vertical-align:top;">version</td><td style="vertical-align:top;">:</td><td><div></div></td></tr></table></div></td></tr></table></div></td></tr><tr><td style="font-weight:bold;vertical-align:top;">env</td><td style="vertical-align:top;">:</td><td><div><table><tr><td style="font-weight:bold;vertical-align:top;">CONTENT_LENGTH</td><td style="vertical-align:top;">:</td><td><div>1943</div></td></tr><tr><td style="font-weight:bold;vertical-align:top;">CONTENT_TYPE</td><td style="vertical-align:top;">:</td><td><div>multipart/form-data; boundary=----WebKitFormBoundarysCT0iBNse9NpAiVI</div></td></tr><tr><td style="font-weight:bold;vertical-align:top;">HTTP_ACCEPT</td><td style="vertical-align:top;">:</td><td><div>text/html,application/xhtml+xml,application/xml;q=0.9,image/webp,image/apng,*/*;q=0.8,application/signed-exchange;v=b3</div></td></tr><tr><td style="font-weight:bold;vertical-align:top;">HTTP_ACCEPT_ENCODING</td><td style="vertical-align:top;">:</td><td><div>gzip, deflate, br</div></td></tr><tr><td style="font-weight:bold;vertical-align:top;">HTTP_ACCEPT_LANGUAGE</td><td style="vertical-align:top;">:</td><td><div>es-ES,es;q=0.9,en;q=0.8</div></td></tr><tr><td style="font-weight:bold;vertical-align:top;">HTTP_CACHE_CONTROL</td><td style="vertical-align:top;">:</td><td><div>max-age=0</div></td></tr><tr><td style="font-weight:bold;vertical-align:top;">HTTP_CONNECTION</td><td style="vertical-align:top;">:</td><td><div>keep-alive</div></td></tr><tr><td style="font-weight:bold;vertical-align:top;">HTTP_CONTENT_LENGTH</td><td style="vertical-align:top;">:</td><td><div>1943</div></td></tr><tr><td style="font-weight:bold;vertical-align:top;">HTTP_CONTENT_TYPE</td><td style="vertical-align:top;">:</td><td><div>multipart/form-data; boundary=----WebKitFormBoundarysCT0iBNse9NpAiVI</div></td></tr><tr><td style="font-weight:bold;vertical-align:top;">HTTP_COOKIE</td><td style="vertical-align:top;">:</td><td><div>session_id_welcome=127.0.0.1-e12215ac-ea6b-4058-bef2-8bad4711289c; session_id_admin=127.0.0.1-a3bf07a4-4f13-46ca-870e-b250a4f707fd; session_id_antecedentesplataforma=127.0.0.1-9fd3fe3c-dda4-4589-bb56-14df99b5a51f</div></td></tr><tr><td style="font-weight:bold;vertical-align:top;">HTTP_HOST</td><td style="vertical-align:top;">:</td><td><div>127.0.0.1:8000</div></td></tr><tr><td style="font-weight:bold;vertical-align:top;">HTTP_ORIGIN</td><td style="vertical-align:top;">:</td><td><div>http://127.0.0.1:8000</div></td></tr><tr><td style="font-weight:bold;vertical-align:top;">HTTP_REFERER</td><td style="vertical-align:top;">:</td><td><div>http://127.0.0.1:8000/antecedentesplataforma/confeccion/procesar/71088</div></td></tr><tr><td style="font-weight:bold;vertical-align:top;">HTTP_UPGRADE_INSECURE_REQUESTS</td><td style="vertical-align:top;">:</td><td><div>1</div></td></tr><tr><td style="font-weight:bold;vertical-align:top;">HTTP_USER_AGENT</td><td style="vertical-align:top;">:</td><td><div>Mozilla/5.0 (Windows NT 6.1) AppleWebKit/537.36 (KHTML, like Gecko) Chrome/73.0.3683.103 Safari/537.36</div></td></tr><tr><td style="font-weight:bold;vertical-align:top;">PATH_INFO</td><td style="vertical-align:top;">:</td><td><div>/antecedentesplataforma/confeccion/procesar/71088</div></td></tr><tr><td style="font-weight:bold;vertical-align:top;">QUERY_STRING</td><td style="vertical-align:top;">:</td><td><div></div></td></tr><tr><td style="font-weight:bold;vertical-align:top;">REMOTE_ADDR</td><td style="vertical-align:top;">:</td><td><div>127.0.0.1</div></td></tr><tr><td style="font-weight:bold;vertical-align:top;">REMOTE_PORT</td><td style="vertical-align:top;">:</td><td><div>3087</div></td></tr><tr><td style="font-weight:bold;vertical-align:top;">REQUEST_METHOD</td><td style="vertical-align:top;">:</td><td><div>POST</div></td></tr><tr><td style="font-weight:bold;vertical-align:top;">SCRIPT_NAME</td><td style="vertical-align:top;">:</td><td><div></div></td></tr><tr><td style="font-weight:bold;vertical-align:top;">SERVER_NAME</td><td style="vertical-align:top;">:</td><td><div>HaTaK3-PC</div></td></tr><tr><td style="font-weight:bold;vertical-align:top;">SERVER_PORT</td><td style="vertical-align:top;">:</td><td><div>8000</div></td></tr><tr><td style="font-weight:bold;vertical-align:top;">SERVER_PROTOCOL</td><td style="vertical-align:top;">:</td><td><div>HTTP/1.1</div></td></tr><tr><td style="font-weight:bold;vertical-align:top;">SERVER_SOFTWARE</td><td style="vertical-align:top;">:</td><td><div>Rocket 1.2.6</div></td></tr><tr><td style="font-weight:bold;vertical-align:top;">app_folders</td><td style="vertical-align:top;">:</td><td><div>set([&#x27;D:\\\\web2py\\\\applications\\\\admin\\\\&#x27;, &#x27;D:\\\\web2py\\\\applications\\\\welcome\\\\&#x27;, &#x27;D:\\\\web2py\\\\applications\\\\antecedentesplataforma\\\\&#x27;])</div></td></tr><tr><td style="font-weight:bold;vertical-align:top;">applications_parent</td><td style="vertical-align:top;">:</td><td><div>D:\\web2py</div></td></tr><tr><td style="font-weight:bold;vertical-align:top;">cmd_args</td><td style="vertical-align:top;">:</td><td><div><table></table></div></td></tr><tr><td style="font-weight:bold;vertical-align:top;">cmd_options</td><td style="vertical-align:top;">:</td><td><div>&lt;Values at 0x27edd50: {&#x27;verbose&#x27;: False, &#x27;ip&#x27;: &#x27;127.0.0.1&#x27;, &#x27;debuglevel&#x27;: 30, &#x27;with_scheduler&#x27;: False, &#x27;shutdown_timeout&#x27;: 5, &#x27;taskbar&#x27;: False, &#x27;with_coverage&#x27;: False, &#x27;pid_filename&#x27;: &#x27;httpserver.pid&#x27;, &#x27;maxthreads&#x27;: None, &#x27;softcron&#x27;: False, &#x27;server_name&#x27;: &#x27;HaTaK3-PC&#x27;, &#x27;bpython&#x27;: False, &#x27;nogui&#x27;: False, &#x27;port&#x27;: 8000, &#x27;print_errors&#x27;: False, &#x27;extcron&#x27;: False, &#x27;runcron&#x27;: False, &#x27;run_system_tests&#x27;: False, &#x27;test&#x27;: None, &#x27;folder&#x27;: &#x27;D:\\\\web2py&#x27;, &#x27;config&#x27;: &#x27;&#x27;, &#x27;minthreads&#x27;: None, &#x27;shell&#x27;: None, &#x27;run&#x27;: &#x27;&#x27;, &#x27;log_filename&#x27;: &#x27;httpserver.log&#x27;, &#x27;profiler_dir&#x27;: None, &#x27;args&#x27;: [&#x27;&#x27;], &#x27;socket_timeout&#x27;: 5, &#x27;ssl_ca_certificate&#x27;: None, &#x27;scheduler&#x27;: None, &#x27;interfaces&#x27;: None, &#x27;ssl_private_key&#x27;: &#x27;&#x27;, &#x27;gae&#x27;: None, &#x27;password&#x27;: &#x27;******&#x27;, &#x27;request_queue_size&#x27;: 5, &#x27;ssl_certificate&#x27;: &#x27;&#x27;, &#x27;cronjob&#x27;: False, &#x27;numthreads&#x27;: None, &#x27;quiet&#x27;: False, &#x27;import_models&#x27;: False, &#x27;timeout&#x27;: 10, &#x27;plain&#x27;: False, &#x27;nobanner&#x27;: False}&gt;</div></td></tr><tr><td style="font-weight:bold;vertical-align:top;">content_length</td><td style="vertical-align:top;">:</td><td><div>1943</div></td></tr><tr><td style="font-weight:bold;vertical-align:top;">content_type</td><td style="vertical-align:top;">:</td><td><div>multipart/form-data; boundary=----WebKitFormBoundarysCT0iBNse9NpAiVI</div></td></tr><tr><td style="font-weight:bold;vertical-align:top;">db_sessions</td><td style="vertical-align:top;">:</td><td><div>set([])</div></td></tr><tr><td style="font-weight:bold;vertical-align:top;">debugging</td><td style="vertical-align:top;">:</td><td><div>False</div></td></tr><tr><td style="font-weight:bold;vertical-align:top;">gluon_parent</td><td style="vertical-align:top;">:</td><td><div>D:\\web2py</div></td></tr><tr><td style="font-weight:bold;vertical-align:top;">http_accept</td><td style="vertical-align:top;">:</td><td><div>text/html,application/xhtml+xml,application/xml;q=0.9,image/webp,image/apng,*/*;q=0.8,application/signed-exchange;v=b3</div></td></tr><tr><td style="font-weight:bold;vertical-align:top;">http_accept_encoding</td><td style="vertical-align:top;">:</td><td><div>gzip, deflate, br</div></td></tr><tr><td style="font-weight:bold;vertical-align:top;">http_accept_language</td><td style="vertical-align:top;">:</td><td><div>es-ES,es;q=0.9,en;q=0.8</div></td></tr><tr><td style="font-weight:bold;vertical-align:top;">http_cache_control</td><td style="vertical-align:top;">:</td><td><div>max-age=0</div></td></tr><tr><td style="font-weight:bold;vertical-align:top;">http_connection</td><td style="vertical-align:top;">:</td><td><div>keep-alive</div></td></tr><tr><td style="font-weight:bold;vertical-align:top;">http_content_length</td><td style="vertical-align:top;">:</td><td><div>1943</div></td></tr><tr><td style="font-weight:bold;vertical-align:top;">http_content_type</td><td style="vertical-align:top;">:</td><td><div>multipart/form-data; boundary=----WebKitFormBoundarysCT0iBNse9NpAiVI</div></td></tr><tr><td style="font-weight:bold;vertical-align:top;">http_cookie</td><td style="vertical-align:top;">:</td><td><div>session_id_welcome=127.0.0.1-e12215ac-ea6b-4058-bef2-8bad4711289c; session_id_admin=127.0.0.1-a3bf07a4-4f13-46ca-870e-b250a4f707fd; session_id_antecedentesplataforma=127.0.0.1-9fd3fe3c-dda4-4589-bb56-14df99b5a51f</div></td></tr><tr><td style="font-weight:bold;vertical-align:top;">http_host</td><td style="vertical-align:top;">:</td><td><div>127.0.0.1:8000</div></td></tr><tr><td style="font-weight:bold;vertical-align:top;">http_origin</td><td style="vertical-align:top;">:</td><td><div>http://127.0.0.1:8000</div></td></tr><tr><td style="font-weight:bold;vertical-align:top;">http_referer</td><td style="vertical-align:top;">:</td><td><div>http://127.0.0.1:8000/antecedentesplataforma/confeccion/procesar/71088</div></td></tr><tr><td style="font-weight:bold;vertical-align:top;">http_upgrade_insecure_requests</td><td style="vertical-align:top;">:</td><td><div>1</div></td></tr><tr><td style="font-weight:bold;vertical-align:top;">http_user_agent</td><td style="vertical-align:top;">:</td><td><div>Mozilla/5.0 (Windows NT 6.1) AppleWebKit/537.36 (KHTML, like Gecko) Chrome/73.0.3683.103 Safari/537.36</div></td></tr><tr><td style="font-weight:bold;vertical-align:top;">is_jython</td><td style="vertical-align:top;">:</td><td><div>False</div></td></tr><tr><td style="font-weight:bold;vertical-align:top;">is_pypy</td><td style="vertical-align:top;">:</td><td><div>False</div></td></tr><tr><td style="font-weight:bold;vertical-align:top;">is_source</td><td style="vertical-align:top;">:</td><td><div>False</div></td></tr><tr><td style="font-weight:bold;vertical-align:top;">local_hosts</td><td style="vertical-align:top;">:</td><td><div><table><tr><td><div>HaTaK3-PC</div></td></tr><tr><td><div>::ffff:127.0.0.1</div></td></tr><tr><td><div>::1</div></td></tr><tr><td><div>fe80::65c7:8cfe:1866:2ddb%12</div></td></tr><tr><td><div>10.150.0.69</div></td></tr><tr><td><div>fe80::6de3:fa60:8d1c:59aa%11</div></td></tr><tr><td><div>127.0.0.1</div></td></tr><tr><td><div>192.168.56.1</div></td></tr></table></div></td></tr><tr><td style="font-weight:bold;vertical-align:top;">path_info</td><td style="vertical-align:top;">:</td><td><div>/antecedentesplataforma/confeccion/procesar/71088</div></td></tr><tr><td style="font-weight:bold;vertical-align:top;">query_string</td><td style="vertical-align:top;">:</td><td><div></div></td></tr><tr><td style="font-weight:bold;vertical-align:top;">remote_addr</td><td style="vertical-align:top;">:</td><td><div>127.0.0.1</div></td></tr><tr><td style="font-weight:bold;vertical-align:top;">remote_port</td><td style="vertical-align:top;">:</td><td><div>3087</div></td></tr><tr><td style="font-weight:bold;vertical-align:top;">request_method</td><td style="vertical-align:top;">:</td><td><div>POST</div></td></tr><tr><td style="font-weight:bold;vertical-align:top;">request_uri</td><td style="vertical-align:top;">:</td><td><div>/antecedentesplataforma/confeccion/procesar/71088</div></td></tr><tr><td style="font-weight:bold;vertical-align:top;">script_name</td><td style="vertical-align:top;">:</td><td><div></div></td></tr><tr><td style="font-weight:bold;vertical-align:top;">server_name</td><td style="vertical-align:top;">:</td><td><div>HaTaK3-PC</div></td></tr><tr><td style="font-weight:bold;vertical-align:top;">server_port</td><td style="vertical-align:top;">:</td><td><div>8000</div></td></tr><tr><td style="font-weight:bold;vertical-align:top;">server_protocol</td><td style="vertical-align:top;">:</td><td><div>HTTP/1.1</div></td></tr><tr><td style="font-weight:bold;vertical-align:top;">server_software</td><td style="vertical-align:top;">:</td><td><div>Rocket 1.2.6</div></td></tr><tr><td style="font-weight:bold;vertical-align:top;">web2py_path</td><td style="vertical-align:top;">:</td><td><div>D:\\web2py</div></td></tr><tr><td style="font-weight:bold;vertical-align:top;">web2py_version</td><td style="vertical-align:top;">:</td><td><div>2.14.6-stable+timestamp.2016.05.10.00.21.47</div></td></tr><tr><td style="font-weight:bold;vertical-align:top;">wsgi.errors</td><td style="vertical-align:top;">:</td><td><div>&lt;open file &#x27;&lt;stderr&gt;&#x27;, mode &#x27;w&#x27; at 0x0124D0D0&gt;</div></td></tr><tr><td style="font-weight:bold;vertical-align:top;">wsgi.file_wrapper</td><td style="vertical-align:top;">:</td><td><div>&lt;class wsgiref.util.FileWrapper at 0x028EE4C8&gt;</div></td></tr><tr><td style="font-weight:bold;vertical-align:top;">wsgi.input</td><td style="vertical-align:top;">:</td><td><div>&lt;socket._fileobject object at 0x03CA8BF0&gt;</div></td></tr><tr><td style="font-weight:bold;vertical-align:top;">wsgi.multiprocess</td><td style="vertical-align:top;">:</td><td><div>False</div></td></tr><tr><td style="font-weight:bold;vertical-align:top;">wsgi.multithread</td><td style="vertical-align:top;">:</td><td><div>True</div></td></tr><tr><td style="font-weight:bold;vertical-align:top;">wsgi.run_once</td><td style="vertical-align:top;">:</td><td><div>False</div></td></tr><tr><td style="font-weight:bold;vertical-align:top;">wsgi.url_scheme</td><td style="vertical-align:top;">:</td><td><div>http</div></td></tr><tr><td style="font-weight:bold;vertical-align:top;">wsgi.version</td><td style="vertical-align:top;">:</td><td><div><table><tr><td><div>1</div></td></tr><tr><td><div>0</div></td></tr></table></div></td></tr><tr><td style="font-weight:bold;vertical-align:top;">wsgi_errors</td><td style="vertical-align:top;">:</td><td><div>&lt;open file &#x27;&lt;stderr&gt;&#x27;, mode &#x27;w&#x27; at 0x0124D0D0&gt;</div></td></tr><tr><td style="font-weight:bold;vertical-align:top;">wsgi_file_wrapper</td><td style="vertical-align:top;">:</td><td><div>&lt;class wsgiref.util.FileWrapper at 0x028EE4C8&gt;</div></td></tr><tr><td style="font-weight:bold;vertical-align:top;">wsgi_input</td><td style="vertical-align:top;">:</td><td><div>&lt;socket._fileobject object at 0x03CA8BF0&gt;</div></td></tr><tr><td style="font-weight:bold;vertical-align:top;">wsgi_multiprocess</td><td style="vertical-align:top;">:</td><td><div>False</div></td></tr><tr><td style="font-weight:bold;vertical-align:top;">wsgi_multithread</td><td style="vertical-align:top;">:</td><td><div>True</div></td></tr><tr><td style="font-weight:bold;vertical-align:top;">wsgi_run_once</td><td style="vertical-align:top;">:</td><td><div>False</div></td></tr><tr><td style="font-weight:bold;vertical-align:top;">wsgi_url_scheme</td><td style="vertical-align:top;">:</td><td><div>http</div></td></tr><tr><td style="font-weight:bold;vertical-align:top;">wsgi_version</td><td style="vertical-align:top;">:</td><td><div><table><tr><td><div>1</div></td></tr><tr><td><div>0</div></td></tr></table></div></td></tr></table></div></td></tr><tr><td style="font-weight:bold;vertical-align:top;">extension</td><td style="vertical-align:top;">:</td><td><div>html</div></td></tr><tr><td style="font-weight:bold;vertical-align:top;">folder</td><td style="vertical-align:top;">:</td><td><div>D:\\web2py\\applications\\antecedentesplataforma\\</div></td></tr><tr><td style="font-weight:bold;vertical-align:top;">function</td><td style="vertical-align:top;">:</td><td><div>procesar</div></td></tr><tr><td style="font-weight:bold;vertical-align:top;">global_settings</td><td style="vertical-align:top;">:</td><td><div><table><tr><td style="font-weight:bold;vertical-align:top;">app_folders</td><td style="vertical-align:top;">:</td><td><div>set([&#x27;D:\\\\web2py\\\\applications\\\\admin\\\\&#x27;, &#x27;D:\\\\web2py\\\\applications\\\\welcome\\\\&#x27;, &#x27;D:\\\\web2py\\\\applications\\\\antecedentesplataforma\\\\&#x27;])</div></td></tr><tr><td style="font-weight:bold;vertical-align:top;">applications_parent</td><td style="vertical-align:top;">:</td><td><div>D:\\web2py</div></td></tr><tr><td style="font-weight:bold;vertical-align:top;">cmd_args</td><td style="vertical-align:top;">:</td><td><div><table></table></div></td></tr><tr><td style="font-weight:bold;vertical-align:top;">cmd_options</td><td style="vertical-align:top;">:</td><td><div>&lt;Values at 0x27edd50: {&#x27;verbose&#x27;: False, &#x27;ip&#x27;: &#x27;127.0.0.1&#x27;, &#x27;debuglevel&#x27;: 30, &#x27;with_scheduler&#x27;: False, &#x27;shutdown_timeout&#x27;: 5, &#x27;taskbar&#x27;: False, &#x27;with_coverage&#x27;: False, &#x27;pid_filename&#x27;: &#x27;httpserver.pid&#x27;, &#x27;maxthreads&#x27;: None, &#x27;softcron&#x27;: False, &#x27;server_name&#x27;: &#x27;HaTaK3-PC&#x27;, &#x27;bpython&#x27;: False, &#x27;nogui&#x27;: False, &#x27;port&#x27;: 8000, &#x27;print_errors&#x27;: False, &#x27;extcron&#x27;: False, &#x27;runcron&#x27;: False, &#x27;run_system_tests&#x27;: False, &#x27;test&#x27;: None, &#x27;folder&#x27;: &#x27;D:\\\\web2py&#x27;, &#x27;config&#x27;: &#x27;&#x27;, &#x27;minthreads&#x27;: None, &#x27;shell&#x27;: None, &#x27;run&#x27;: &#x27;&#x27;, &#x27;log_filename&#x27;: &#x27;httpserver.log&#x27;, &#x27;profiler_dir&#x27;: None, &#x27;args&#x27;: [&#x27;&#x27;], &#x27;socket_timeout&#x27;: 5, &#x27;ssl_ca_certificate&#x27;: None, &#x27;scheduler&#x27;: None, &#x27;interfaces&#x27;: None, &#x27;ssl_private_key&#x27;: &#x27;&#x27;, &#x27;gae&#x27;: None, &#x27;password&#x27;: &#x27;******&#x27;, &#x27;request_queue_size&#x27;: 5, &#x27;ssl_certificate&#x27;: &#x27;&#x27;, &#x27;cronjob&#x27;: False, &#x27;numthreads&#x27;: None, &#x27;quiet&#x27;: False, &#x27;import_models&#x27;: False, &#x27;timeout&#x27;: 10, &#x27;plain&#x27;: False, &#x27;nobanner&#x27;: False}&gt;</div></td></tr><tr><td style="font-weight:bold;vertical-align:top;">db_sessions</td><td style="vertical-align:top;">:</td><td><div>set([])</div></td></tr><tr><td style="font-weight:bold;vertical-align:top;">debugging</td><td style="vertical-align:top;">:</td><td><div>False</div></td></tr><tr><td style="font-weight:bold;vertical-align:top;">gluon_parent</td><td style="vertical-align:top;">:</td><td><div>D:\\web2py</div></td></tr><tr><td style="font-weight:bold;vertical-align:top;">is_jython</td><td style="vertical-align:top;">:</td><td><div>False</div></td></tr><tr><td style="font-weight:bold;vertical-align:top;">is_pypy</td><td style="vertical-align:top;">:</td><td><div>False</div></td></tr><tr><td style="font-weight:bold;vertical-align:top;">is_source</td><td style="vertical-align:top;">:</td><td><div>False</div></td></tr><tr><td style="font-weight:bold;vertical-align:top;">local_hosts</td><td style="vertical-align:top;">:</td><td><div><table><tr><td><div>HaTaK3-PC</div></td></tr><tr><td><div>::ffff:127.0.0.1</div></td></tr><tr><td><div>::1</div></td></tr><tr><td><div>fe80::65c7:8cfe:1866:2ddb%12</div></td></tr><tr><td><div>10.150.0.69</div></td></tr><tr><td><div>fe80::6de3:fa60:8d1c:59aa%11</div></td></tr><tr><td><div>127.0.0.1</div></td></tr><tr><td><div>192.168.56.1</div></td></tr></table></div></td></tr><tr><td style="font-weight:bold;vertical-align:top;">web2py_version</td><td style="vertical-align:top;">:</td><td><div>2.14.6-stable+timestamp.2016.05.10.00.21.47</div></td></tr></table></div></td></tr><tr><td style="font-weight:bold;vertical-align:top;">is_https</td><td style="vertical-align:top;">:</td><td><div>False</div></td></tr><tr><td style="font-weight:bold;vertical-align:top;">is_local</td><td style="vertical-align:top;">:</td><td><div>True</div></td></tr><tr><td style="font-weight:bold;vertical-align:top;">is_restful</td><td style="vertical-align:top;">:</td><td><div>False</div></td></tr><tr><td style="font-weight:bold;vertical-align:top;">is_scheduler</td><td style="vertical-align:top;">:</td><td><div>False</div></td></tr><tr><td style="font-weight:bold;vertical-align:top;">is_shell</td><td style="vertical-align:top;">:</td><td><div>False</div></td></tr><tr><td style="font-weight:bold;vertical-align:top;">now</td><td style="vertical-align:top;">:</td><td><div>datetime.datetime(2019, 4, 19, 7, 50, 48, 344000)</div></td></tr><tr><td style="font-weight:bold;vertical-align:top;">raw_args</td><td style="vertical-align:top;">:</td><td><div>71088</div></td></tr><tr><td style="font-weight:bold;vertical-align:top;">raw_extension</td><td style="vertical-align:top;">:</td><td><div>None</div></td></tr><tr><td style="font-weight:bold;vertical-align:top;">url</td><td style="vertical-align:top;">:</td><td><div>/antecedentesplataforma/confeccion/procesar/71088</div></td></tr><tr><td style="font-weight:bold;vertical-align:top;">utcnow</td><td style="vertical-align:top;">:</td><td><div>datetime.datetime(2019, 4, 19, 10, 50, 48, 344000)</div></td></tr><tr><td style="font-weight:bold;vertical-align:top;">wsgi</td><td style="vertical-align:top;">:</td><td><div>&lt;gluon.main.LazyWSGI object at 0x081050B0&gt;</div></td></tr></table></div>'
tRp58
sS'frames'
p59
(lp60
(dp61
S'file'
p62
S'D:\\web2py\\gluon\\restricted.py'
p63
sS'dump'
p64
(dp65
S'environment'
p66
S"{'A': <class 'gluon.html.A'>, 'ANY_OF': <class 'gluon.validators.ANY_OF'>, 'ASSIGNJS': <function ASSIGNJS>, 'AppConfig': <function AppConfig>, 'Auth': <class 'gluon.tools.Auth'>, 'B': <class 'gluon.html.B'>, 'BEAUTIFY': <class 'gluon.html.BEAUTIFY'>, 'BODY': <class 'gluon.html.BODY'>, 'BR': <class 'gluon.html.BR'>, 'BUTTON': <class 'gluon.html.BUTTON'>, ...}"
p67
sS'ccode'
p68
S'<code object <module> at 03E75260, file "D:\\web2...tesplataforma\\controllers/confeccion.py", line 1>'
p69
ssS'lnum'
p70
I227
sS'lines'
p71
(dp72
I224
S'            ccode = code'
p73
sI225
S'        else:'
p74
sI226
S'            ccode = compile2(code, layer)'
p75
sI227
S'        exec ccode in environment'
p76
sI228
S'    except HTTP:'
p77
sI229
S'        raise'
p78
sI230
S'    except RestrictedError:'
p79
sI231
S'        # do not encapsulate (obfuscate) the original RestrictedError'
p80
sI222
S'    try:'
p81
sI223
S'        if isinstance(code, types.CodeType):'
p82
ssS'call'
p83
S"(code='def confeccion():\\n\\treturn dict()\\ndef por_sistema...\\n\\t\\n\\n\\t\\t\\nresponse._vars=response._caller(procesar)\\n', environment={'A': <class 'gluon.html.A'>, 'ANY_OF': <class 'gluon.validators.ANY_OF'>, 'ASSIGNJS': <function ASSIGNJS>, 'AppConfig': <function AppConfig>, 'Auth': <class 'gluon.tools.Auth'>, 'B': <class 'gluon.html.B'>, 'BEAUTIFY': <class 'gluon.html.BEAUTIFY'>, 'BODY': <class 'gluon.html.BODY'>, 'BR': <class 'gluon.html.BR'>, 'BUTTON': <class 'gluon.html.BUTTON'>, ...}, layer=r'D:\\web2py\\applications\\antecedentesplataforma\\controllers/confeccion.py')"
p84
sS'func'
p85
S'restricted'
p86
sa(dp87
g62
S'D:\\web2py\\applications\\antecedentesplataforma\\controllers\\confeccion.py'
p88
sg64
(dp89
sg70
I126
sg71
(dp90
I116
S''
sI117
S'def pre_imprimir():'
p91
sI118
S''
sI119
S''
sI120
S''
sI121
S''
sI122
S'\treturn dict()'
p92
sI123
S''
sI124
S''
sI125
S''
ssg83
S'()'
p93
sg85
S'<module>'
p94
sa(dp95
g62
S'D:\\web2py\\gluon\\globals.py'
p96
sg64
(dp97
S'self'
p98
S'undefined'
p99
sS'f'
S'<function procesar>'
p100
ssg70
I417
sg71
(dp101
I416
S'        self._vars = None'
p102
sI417
S'        self._caller = lambda f: f()'
p103
sI418
S'        self._view_environment = None'
p104
sI419
S'        self._custom_commit = None'
p105
sI420
S'        self._custom_rollback = None'
p106
sI421
S"        self.generic_patterns = ['*']"
p107
sI412
S"        self.flash = ''            # used by the default view layout"
p108
sI413
S'        self.meta = Storage()      # used by web2py_ajax.html'
p109
sI414
S'        self.menu = []             # used by the default view layout'
p110
sI415
S'        self.files = []            # used by web2py_ajax.html'
p111
ssg83
S'(f=<function procesar>)'
p112
sg85
S'<lambda>'
p113
sa(dp114
g62
S'D:\\web2py\\applications\\antecedentesplataforma\\controllers\\confeccion.py'
p115
sg64
(dp116
S'form.vars.pais'
p117
S"'ARGENTINA'"
p118
sS'IdPais'
p119
g99
sS'form'
p120
S'<gluon.sqlhtml.SQLFORM object>'
p121
sS'Profesion'
p122
g99
sS'form.vars'
p123
S"<Storage {'pasaporte': '', 'antecedentes': '', '...ITA C/LOS REGIONALES N\\xc2\\xb0 2311-CAP.-CTCA.'}>"
p124
sS'form.vars.Profesion'
p125
S"'TEC. DE NIVEL MEDIO EN INFORMATICA'"
p126
ssg70
I89
sg71
(dp127
I84
S''
sI85
S''
sI86
S'        \t#actualizo los campos en la tabla padron'
p128
sI87
S'        \tsetpadron.update_record(IdProntuarioTipo=qtipo,'
p129
sI88
S'        \t\tProntuarioNro=form.vars.nprontuario,Direccion=form.vars.domicilio,Clase=form.vars.clase,'
p130
sI89
S'        \t\tIdPais=form.vars.pais,Profesion=form.vars.Profesion)'
p131
sI90
S''
sI91
S'        \tsetsoli.update_record(apellido=form.vars.apellido,nombre=form.vars.nombre,tipo_prontuario=tipo,'
p132
sI92
S'        \t\tprontuario=form.vars.nprontuario,solicitado_por=form.vars.soli_por,intervino=form.vars.intervino'
p133
sI93
S'        \t\t,capitalinterior=form.vars.donde,estado_solicitud="Completado",usuario=usuario,'
p134
ssg83
S'()'
p135
sg85
S'procesar'
p136
sa(dp137
g62
S'D:\\web2py\\gluon\\packages\\dal\\pydal\\helpers\\classes.py'
p138
sg64
(dp139
S'newfields'
p140
S"{'Clase': 1982, 'Direccion': 'B\\xc2\\xb0 LA VI\\xc3\\x91ITA C/LOS REGIONALES N\\xc2\\xb0 2311-CAP.-CTCA.', 'IdPais': 'ARGENTINA', 'IdProntuarioTipo': '1', 'Profesion': 'TEC. DE NIVEL MEDIO EN INFORMATICA', 'ProntuarioNro': '164440'}"
p141
ssg70
I245
sg71
(dp142
I240
S'        newfields = fields or dict(colset)'
p143
sI241
S'        for fieldname in list(newfields.keys()):'
p144
sI242
S"            if fieldname not in table.fields or table[fieldname].type == 'id':"
p145
sI243
S'                del newfields[fieldname]'
p146
sI244
S'        table._db(table._id == id, ignore_common_filters=True).update('
p147
sI245
S'            **newfields'
p148
sI246
S'        )'
p149
sI247
S'        colset.update(newfields)'
p150
sI248
S'        return colset'
p151
sI249
S''
ssg83
S"(self=<pydal.helpers.classes.RecordUpdater object>, **fields={'Clase': 1982, 'Direccion': 'B\\xc2\\xb0 LA VI\\xc3\\x91ITA C/LOS REGIONALES N\\xc2\\xb0 2311-CAP.-CTCA.', 'IdPais': 'ARGENTINA', 'IdProntuarioTipo': '1', 'Profesion': 'TEC. DE NIVEL MEDIO EN INFORMATICA', 'ProntuarioNro': '164440'})"
p152
sg85
S'__call__'
p153
sa(dp154
g62
S'D:\\web2py\\gluon\\packages\\dal\\pydal\\objects.py'
p155
sg64
(dp156
S'table._tablename'
p157
S"'padron'"
p158
sS'db._adapter'
p159
S'<pydal.adapters.sqlite.SQLiteAdapter object>'
p160
sS'fields'
p161
S"[(<pydal.objects.Field object>, 'ARGENTINA'), (<pydal.objects.Field object>, '164440'), (<pydal.objects.Field object>, 1982), (<pydal.objects.Field object>, 'B\\xc2\\xb0 LA VI\\xc3\\x91ITA C/LOS REGIONALES N\\xc2\\xb0 2311-CAP.-CTCA.'), (<pydal.objects.Field object>, 'TEC. DE NIVEL MEDIO EN INFORMATICA'), (<pydal.objects.Field object>, '1')]"
p162
sS'self'
p163
S'<Set (padron.id = 150519)>'
p164
sS'db'
p165
S'<DAL uri="sqlite://storage.sqlite">'
p166
sS'self.query'
p167
S'<Query (padron.id = 150519)>'
p168
sS'ret'
p169
g99
sS'table'
p170
S'<Table padron (id, Apellido, Nombre, Clase, Docu... IdProntuarioTipo, ProntuarioNro, Observaciones)>'
p171
sS'db._adapter.update'
p172
S'<bound method SQLiteAdapter.update of <pydal.adapters.sqlite.SQLiteAdapter object>>'
p173
ssg70
I2054
sg71
(dp174
I2049
S'        if any(f(self, update_fields) for f in table._before_update):'
p175
sI2050
S'            return 0'
p176
sI2051
S'        fields = table._listify(update_fields, update=True)'
p177
sI2052
S'        if not fields:'
p178
sI2053
S'            raise SyntaxError("No fields to update")'
p179
sI2054
S'        ret = db._adapter.update("%s" % table._tablename, self.query, fields)'
p180
sI2055
S'        ret and [f(self, update_fields) for f in table._after_update]'
p181
sI2056
S'        return ret'
p182
sI2057
S''
sI2058
S'    def update_naive(self, **update_fields):'
p183
ssg83
S"(self=<Set (padron.id = 150519)>, **update_fields={'Clase': 1982, 'Direccion': 'B\\xc2\\xb0 LA VI\\xc3\\x91ITA C/LOS REGIONALES N\\xc2\\xb0 2311-CAP.-CTCA.', 'IdPais': 'ARGENTINA', 'IdProntuarioTipo': '1', 'Profesion': 'TEC. DE NIVEL MEDIO EN INFORMATICA', 'ProntuarioNro': '164440'})"
p184
sg85
S'update'
p185
sa(dp186
g62
S'D:\\web2py\\gluon\\packages\\dal\\pydal\\adapters\\base.py'
p187
sg64
(dp188
S'self._update'
p189
S'<bound method SQLiteAdapter._update of <pydal.adapters.sqlite.SQLiteAdapter object>>'
p190
sS'fields'
p191
S"[(<pydal.objects.Field object>, 'ARGENTINA'), (<pydal.objects.Field object>, '164440'), (<pydal.objects.Field object>, 1982), (<pydal.objects.Field object>, 'B\\xc2\\xb0 LA VI\\xc3\\x91ITA C/LOS REGIONALES N\\xc2\\xb0 2311-CAP.-CTCA.'), (<pydal.objects.Field object>, 'TEC. DE NIVEL MEDIO EN INFORMATICA'), (<pydal.objects.Field object>, '1')]"
p192
sS'self'
p193
S'<pydal.adapters.sqlite.SQLiteAdapter object>'
p194
sS'tablename'
p195
S"'padron'"
p196
sS'sql'
p197
g99
sS'query'
p198
S'<Query (padron.id = 150519)>'
p199
ssg70
I1023
sg71
(dp200
I1024
S'        try:'
p201
sI1025
S'            self.execute(sql)'
p202
sI1026
S'        except Exception:'
p203
sI1027
S'            e = sys.exc_info()[1]'
p204
sI1018
S'                              for (field, value) in fields])'
p205
sI1019
S'        tablename = self.db[tablename].sqlsafe'
p206
sI1020
S"        return 'UPDATE %s SET %s%s;' % (tablename, sql_v, sql_w)"
p207
sI1021
S''
sI1022
S'    def update(self, tablename, query, fields):'
p208
sI1023
S'        sql = self._update(tablename, query, fields)'
p209
ssg83
S"(self=<pydal.adapters.sqlite.SQLiteAdapter object>, tablename='padron', query=<Query (padron.id = 150519)>, fields=[(<pydal.objects.Field object>, 'ARGENTINA'), (<pydal.objects.Field object>, '164440'), (<pydal.objects.Field object>, 1982), (<pydal.objects.Field object>, 'B\\xc2\\xb0 LA VI\\xc3\\x91ITA C/LOS REGIONALES N\\xc2\\xb0 2311-CAP.-CTCA.'), (<pydal.objects.Field object>, 'TEC. DE NIVEL MEDIO EN INFORMATICA'), (<pydal.objects.Field object>, '1')])"
p210
sg85
g185
sa(dp211
g62
S'D:\\web2py\\gluon\\packages\\dal\\pydal\\adapters\\base.py'
p212
sg64
(dp213
S'field'
p214
S'<pydal.objects.Field object>'
p215
sS'value'
p216
S"'ARGENTINA'"
p217
sS'fields'
p218
S"[(<pydal.objects.Field object>, 'ARGENTINA'), (<pydal.objects.Field object>, '164440'), (<pydal.objects.Field object>, 1982), (<pydal.objects.Field object>, 'B\\xc2\\xb0 LA VI\\xc3\\x91ITA C/LOS REGIONALES N\\xc2\\xb0 2311-CAP.-CTCA.'), (<pydal.objects.Field object>, 'TEC. DE NIVEL MEDIO EN INFORMATICA'), (<pydal.objects.Field object>, '1')]"
p219
ssg70
I1018
sg71
(dp220
I1013
S"            sql_w = ' WHERE ' + self.expand(query)"
p221
sI1014
S'        else:'
p222
sI1015
S"            sql_w = ''"
p223
sI1016
S"        sql_v = ','.join(['%s=%s' % (field.sqlsafe_name,"
p224
sI1017
S'                                     self.expand(value, field.type)) \\'
p225
sI1018
S'                              for (field, value) in fields])'
p226
sI1019
S'        tablename = self.db[tablename].sqlsafe'
p227
sI1020
S"        return 'UPDATE %s SET %s%s;' % (tablename, sql_v, sql_w)"
p228
sI1021
S''
sI1022
S'    def update(self, tablename, query, fields):'
p229
ssg83
S"(self=<pydal.adapters.sqlite.SQLiteAdapter object>, tablename='padron', query=<Query (padron.id = 150519)>, fields=[(<pydal.objects.Field object>, 'ARGENTINA'), (<pydal.objects.Field object>, '164440'), (<pydal.objects.Field object>, 1982), (<pydal.objects.Field object>, 'B\\xc2\\xb0 LA VI\\xc3\\x91ITA C/LOS REGIONALES N\\xc2\\xb0 2311-CAP.-CTCA.'), (<pydal.objects.Field object>, 'TEC. DE NIVEL MEDIO EN INFORMATICA'), (<pydal.objects.Field object>, '1')])"
p230
sg85
S'_update'
p231
sa(dp232
g62
S'D:\\web2py\\gluon\\packages\\dal\\pydal\\adapters\\base.py'
p233
sg64
(dp234
S'self.represent'
p235
S'<bound method SQLiteAdapter.represent of <pydal.adapters.sqlite.SQLiteAdapter object>>'
p236
sS'rv'
p237
g99
sS'expression'
p238
S"'ARGENTINA'"
p239
sS'self'
p240
S'<pydal.adapters.sqlite.SQLiteAdapter object>'
p241
sS'field_type'
p242
S"'reference paises'"
p243
ssg70
I962
sg71
(dp244
I960
S'                rv = op()'
p245
sI961
S'        elif field_type:'
p246
sI962
S'            rv = self.represent(expression, field_type)'
p247
sI963
S'        elif isinstance(expression, (list, tuple)):'
p248
sI964
S"            rv = ','.join(self.represent(item, field_type)"
p249
sI965
S'                          for item in expression)'
p250
sI966
S'        elif isinstance(expression, bool):'
p251
sI957
S'                    op = op[:-1]'
p252
sI958
S"                rv = '(%s)' % op"
p253
sI959
S'            else:'
p254
ssg83
S"(self=<pydal.adapters.sqlite.SQLiteAdapter object>, expression='ARGENTINA', field_type='reference paises', colnames=False)"
p255
sg85
S'expand'
p256
sa(dp257
g62
S'D:\\web2py\\gluon\\packages\\dal\\pydal\\adapters\\base.py'
p258
sg64
(dp259
S'builtinstr'
p260
S"<type 'str'>"
p261
sS'global long'
p262
S"<type 'long'>"
p263
sS'obj'
p264
S"'ARGENTINA'"
p265
ssg70
I1442
sg71
(dp266
I1440
S'            referenced = fieldtype[9:].strip()'
p267
sI1441
S'            if referenced in self.db.tables:'
p268
sI1442
S'                return str(long(obj))'
p269
sI1443
S"            p = referenced.partition('.')"
p270
sI1444
S"            if p[2] != '':"
p271
sI1445
S'                try:'
p272
sI1446
S'                    ftype = self.db[p[0]][p[2]].type'
p273
sI1437
S'            return str(obj)'
p274
sI1438
S"        elif field_is_type('reference'): # reference"
p275
sI1439
S'            # check for tablename first'
p276
ssg83
S"(self=<pydal.adapters.sqlite.SQLiteAdapter object>, obj='ARGENTINA', fieldtype='reference paises')"
p277
sg85
S'represent'
p278
sasS'pyver'
p279
S'Python 2.7.9: D:\\web2py\\web2py.exe (prefix: )'
p280
sS'session'
p281
g57
(S's#\x0c\x00\x00<div><table><tr><td style="font-weight:bold;vertical-align:top;">auth</td><td style="vertical-align:top;">:</td><td><div><table><tr><td style="font-weight:bold;vertical-align:top;">expiration</td><td style="vertical-align:top;">:</td><td><div>3600</div></td></tr><tr><td style="font-weight:bold;vertical-align:top;">hmac_key</td><td style="vertical-align:top;">:</td><td><div>0cbdc9ae-ae6d-422b-b3ee-17d7fe848e03</div></td></tr><tr><td style="font-weight:bold;vertical-align:top;">last_visit</td><td style="vertical-align:top;">:</td><td><div>datetime.datetime(2019, 4, 19, 7, 46, 13, 726000)</div></td></tr><tr><td style="font-weight:bold;vertical-align:top;">remember_me</td><td style="vertical-align:top;">:</td><td><div>False</div></td></tr><tr><td style="font-weight:bold;vertical-align:top;">user</td><td style="vertical-align:top;">:</td><td><div><table><tr><td style="font-weight:bold;vertical-align:top;">dni</td><td style="vertical-align:top;">:</td><td><div>29917029</div></td></tr><tr><td style="font-weight:bold;vertical-align:top;">email</td><td style="vertical-align:top;">:</td><td><div>juan@ulivar.com</div></td></tr><tr><td style="font-weight:bold;vertical-align:top;">first_name</td><td style="vertical-align:top;">:</td><td><div>juan</div></td></tr><tr><td style="font-weight:bold;vertical-align:top;">id</td><td style="vertical-align:top;">:</td><td><div>1L</div></td></tr><tr><td style="font-weight:bold;vertical-align:top;">iniciales</td><td style="vertical-align:top;">:</td><td><div>J.U.</div></td></tr><tr><td style="font-weight:bold;vertical-align:top;">last_name</td><td style="vertical-align:top;">:</td><td><div>ulivar</div></td></tr><tr><td style="font-weight:bold;vertical-align:top;">oficina</td><td style="vertical-align:top;">:</td><td><div>Super</div></td></tr><tr><td style="font-weight:bold;vertical-align:top;">registration_id</td><td style="vertical-align:top;">:</td><td><div></div></td></tr><tr><td style="font-weight:bold;vertical-align:top;">registration_key</td><td style="vertical-align:top;">:</td><td><div></div></td></tr><tr><td style="font-weight:bold;vertical-align:top;">reset_password_key</td><td style="vertical-align:top;">:</td><td><div></div></td></tr><tr><td style="font-weight:bold;vertical-align:top;">username</td><td style="vertical-align:top;">:</td><td><div>uli</div></td></tr></table></div></td></tr><tr><td style="font-weight:bold;vertical-align:top;">user_groups</td><td style="vertical-align:top;">:</td><td><div><table><tr><td style="font-weight:bold;vertical-align:top;">1</td><td style="vertical-align:top;">:</td><td><div>Super</div></td></tr></table></div></td></tr></table></div></td></tr><tr><td style="font-weight:bold;vertical-align:top;">flash</td><td style="vertical-align:top;">:</td><td><div>None</div></td></tr><tr><td style="font-weight:bold;vertical-align:top;">last_orderby</td><td style="vertical-align:top;">:</td><td><div>None</div></td></tr><tr><td style="font-weight:bold;vertical-align:top;">last_query</td><td style="vertical-align:top;">:</td><td><div>db.padron.DocumentoNro==29917029</div></td></tr></table></div>'
tRp282
sS'etype'
p283
S"<type 'exceptions.ValueError'>"
p284
sS'date'
p285
S'Fri Apr 19 07:50:48 2019'
p286
sS'response'
p287
g57
(S's\xd5@\x00\x00<div><table><tr><td style="font-weight:bold;vertical-align:top;">body</td><td style="vertical-align:top;">:</td><td><div>&lt;cStringIO.StringO object at 0x0810AC20&gt;</div></td></tr><tr><td style="font-weight:bold;vertical-align:top;">cookies</td><td style="vertical-align:top;">:</td><td><div><table><tr><td style="font-weight:bold;vertical-align:top;">session_id_antecedentesplataforma</td><td style="vertical-align:top;">:</td><td><div>127.0.0.1-9fd3fe3c-dda4-4589-bb56-14df99b5a51f<table><tr><td style="font-weight:bold;vertical-align:top;">comment</td><td style="vertical-align:top;">:</td><td><div></div></td></tr><tr><td style="font-weight:bold;vertical-align:top;">domain</td><td style="vertical-align:top;">:</td><td><div></div></td></tr><tr><td style="font-weight:bold;vertical-align:top;">expires</td><td style="vertical-align:top;">:</td><td><div></div></td></tr><tr><td style="font-weight:bold;vertical-align:top;">httponly</td><td style="vertical-align:top;">:</td><td><div></div></td></tr><tr><td style="font-weight:bold;vertical-align:top;">max-age</td><td style="vertical-align:top;">:</td><td><div></div></td></tr><tr><td style="font-weight:bold;vertical-align:top;">path</td><td style="vertical-align:top;">:</td><td><div>/</div></td></tr><tr><td style="font-weight:bold;vertical-align:top;">secure</td><td style="vertical-align:top;">:</td><td><div></div></td></tr><tr><td style="font-weight:bold;vertical-align:top;">version</td><td style="vertical-align:top;">:</td><td><div></div></td></tr></table></div></td></tr></table></div></td></tr><tr><td style="font-weight:bold;vertical-align:top;">delimiters</td><td style="vertical-align:top;">:</td><td><div><table><tr><td><div>{{</div></td></tr><tr><td><div>}}</div></td></tr></table></div></td></tr><tr><td style="font-weight:bold;vertical-align:top;">files</td><td style="vertical-align:top;">:</td><td><div><table></table></div></td></tr><tr><td style="font-weight:bold;vertical-align:top;">flash</td><td style="vertical-align:top;">:</td><td><div></div></td></tr><tr><td style="font-weight:bold;vertical-align:top;">form_label_separator</td><td style="vertical-align:top;">:</td><td><div></div></td></tr><tr><td style="font-weight:bold;vertical-align:top;">formstyle</td><td style="vertical-align:top;">:</td><td><div>bootstrap3_inline</div></td></tr><tr><td style="font-weight:bold;vertical-align:top;">generic_patterns</td><td style="vertical-align:top;">:</td><td><div><table><tr><td><div>*</div></td></tr></table></div></td></tr><tr><td style="font-weight:bold;vertical-align:top;">google_analytics_id</td><td style="vertical-align:top;">:</td><td><div>None</div></td></tr><tr><td style="font-weight:bold;vertical-align:top;">headers</td><td style="vertical-align:top;">:</td><td><div><table><tr><td style="font-weight:bold;vertical-align:top;">X-Powered-By</td><td style="vertical-align:top;">:</td><td><div>web2py</div></td></tr></table></div></td></tr><tr><td style="font-weight:bold;vertical-align:top;">logo</td><td style="vertical-align:top;">:</td><td><div><a class="navbar-brand" href="http://www.web2py.com/" id="web2py-logo"><b>web<span>2</span>py</b>&trade;&nbsp;</a></div></td></tr><tr><td style="font-weight:bold;vertical-align:top;">menu</td><td style="vertical-align:top;">:</td><td><div><table><tr><td><div><table><tr><td><div>Inicio</div></td></tr><tr><td><div>False</div></td></tr><tr><td><div>/antecedentesplataforma/default/index</div></td></tr><tr><td><div><table></table></div></td></tr></table></div></td></tr><tr><td><div><table><tr><td><div>Mis Sitios</div></td></tr><tr><td><div>False</div></td></tr><tr><td><div>/admin/default/site</div></td></tr></table></div></td></tr><tr><td><div><table><tr><td><div>Esta Aplicaci\xc3\xb3n</div></td></tr><tr><td><div>False</div></td></tr><tr><td><div>#</div></td></tr><tr><td><div><table><tr><td><div><table><tr><td><div>Design</div></td></tr><tr><td><div>False</div></td></tr><tr><td><div>/admin/default/design/antecedentesplataforma</div></td></tr></table></div></td></tr><tr><td><div><li class="divider"></li></div></td></tr><tr><td><div><table><tr><td><div>Controlador</div></td></tr><tr><td><div>False</div></td></tr><tr><td><div>/admin/default/edit/antecedentesplataforma/controllers/confeccion.py</div></td></tr></table></div></td></tr><tr><td><div><table><tr><td><div>Vista</div></td></tr><tr><td><div>False</div></td></tr><tr><td><div>/admin/default/edit/antecedentesplataforma/views/confeccion/procesar.html</div></td></tr></table></div></td></tr><tr><td><div><table><tr><td><div>Modelo BDD</div></td></tr><tr><td><div>False</div></td></tr><tr><td><div>/admin/default/edit/antecedentesplataforma/models/db.py</div></td></tr></table></div></td></tr><tr><td><div><table><tr><td><div>Modelo "menu"</div></td></tr><tr><td><div>False</div></td></tr><tr><td><div>/admin/default/edit/antecedentesplataforma/models/menu.py</div></td></tr></table></div></td></tr><tr><td><div><table><tr><td><div>Config.ini</div></td></tr><tr><td><div>False</div></td></tr><tr><td><div>/admin/default/edit/antecedentesplataforma/private/appconfig.ini</div></td></tr></table></div></td></tr><tr><td><div><table><tr><td><div>Dise\xc3\xb1o de p\xc3\xa1gina</div></td></tr><tr><td><div>False</div></td></tr><tr><td><div>/admin/default/edit/antecedentesplataforma/views/layout.html</div></td></tr></table></div></td></tr><tr><td><div><table><tr><td><div>Hoja de estilo</div></td></tr><tr><td><div>False</div></td></tr><tr><td><div>/admin/default/edit/antecedentesplataforma/static/css/web2py-bootstrap3.css</div></td></tr></table></div></td></tr><tr><td><div><table><tr><td><div>Base de datos</div></td></tr><tr><td><div>False</div></td></tr><tr><td><div>/antecedentesplataforma/appadmin/index</div></td></tr></table></div></td></tr><tr><td><div><table><tr><td><div>Errores</div></td></tr><tr><td><div>False</div></td></tr><tr><td><div>/admin/default/errors/antecedentesplataforma</div></td></tr></table></div></td></tr><tr><td><div><table><tr><td><div>Acerca de</div></td></tr><tr><td><div>False</div></td></tr><tr><td><div>/admin/default/about/antecedentesplataforma</div></td></tr></table></div></td></tr></table></div></td></tr></table></div></td></tr><tr><td><div><table><tr><td><div>web2py.com</div></td></tr><tr><td><div>False</div></td></tr><tr><td><div>#</div></td></tr><tr><td><div><table><tr><td><div><table><tr><td><div>Descargas</div></td></tr><tr><td><div>False</div></td></tr><tr><td><div>http://www.web2py.com/examples/default/download</div></td></tr></table></div></td></tr><tr><td><div><table><tr><td><div>Soporte</div></td></tr><tr><td><div>False</div></td></tr><tr><td><div>http://www.web2py.com/examples/default/support</div></td></tr></table></div></td></tr><tr><td><div><table><tr><td><div>Demostraci\xc3\xb3n</div></td></tr><tr><td><div>False</div></td></tr><tr><td><div>http://web2py.com/demo_admin</div></td></tr></table></div></td></tr><tr><td><div><table><tr><td><div>Ejemplos R\xc3\xa1pidos</div></td></tr><tr><td><div>False</div></td></tr><tr><td><div>http://web2py.com/examples/default/examples</div></td></tr></table></div></td></tr><tr><td><div><table><tr><td><div>FAQ</div></td></tr><tr><td><div>False</div></td></tr><tr><td><div>http://web2py.com/AlterEgo</div></td></tr></table></div></td></tr><tr><td><div><table><tr><td><div>V\xc3\xaddeos</div></td></tr><tr><td><div>False</div></td></tr><tr><td><div>http://www.web2py.com/examples/default/videos/</div></td></tr></table></div></td></tr><tr><td><div><table><tr><td><div>Aplicaciones Libres</div></td></tr><tr><td><div>False</div></td></tr><tr><td><div>http://web2py.com/appliances</div></td></tr></table></div></td></tr><tr><td><div><table><tr><td><div>Plugins</div></td></tr><tr><td><div>False</div></td></tr><tr><td><div>http://web2py.com/plugins</div></td></tr></table></div></td></tr><tr><td><div><table><tr><td><div>Recetas</div></td></tr><tr><td><div>False</div></td></tr><tr><td><div>http://web2pyslices.com/</div></td></tr></table></div></td></tr></table></div></td></tr></table></div></td></tr><tr><td><div><table><tr><td><div>Documentaci\xc3\xb3n</div></td></tr><tr><td><div>False</div></td></tr><tr><td><div>#</div></td></tr><tr><td><div><table><tr><td><div><table><tr><td><div>Online book</div></td></tr><tr><td><div>False</div></td></tr><tr><td><div>http://www.web2py.com/book</div></td></tr></table></div></td></tr><tr><td><div><li class="divider"></li></div></td></tr><tr><td><div><table><tr><td><div>Prefacio</div></td></tr><tr><td><div>False</div></td></tr><tr><td><div>http://www.web2py.com/book/default/chapter/00</div></td></tr></table></div></td></tr><tr><td><div><table><tr><td><div>Introducci\xc3\xb3n</div></td></tr><tr><td><div>False</div></td></tr><tr><td><div>http://www.web2py.com/book/default/chapter/01</div></td></tr></table></div></td></tr><tr><td><div><table><tr><td><div>Python</div></td></tr><tr><td><div>False</div></td></tr><tr><td><div>http://www.web2py.com/book/default/chapter/02</div></td></tr></table></div></td></tr><tr><td><div><table><tr><td><div>Resumen</div></td></tr><tr><td><div>False</div></td></tr><tr><td><div>http://www.web2py.com/book/default/chapter/03</div></td></tr></table></div></td></tr><tr><td><div><table><tr><td><div>El N\xc3\xbacleo</div></td></tr><tr><td><div>False</div></td></tr><tr><td><div>http://www.web2py.com/book/default/chapter/04</div></td></tr></table></div></td></tr><tr><td><div><table><tr><td><div>Las Vistas</div></td></tr><tr><td><div>False</div></td></tr><tr><td><div>http://www.web2py.com/book/default/chapter/05</div></td></tr></table></div></td></tr><tr><td><div><table><tr><td><div>Base de datos</div></td></tr><tr><td><div>False</div></td></tr><tr><td><div>http://www.web2py.com/book/default/chapter/06</div></td></tr></table></div></td></tr><tr><td><div><table><tr><td><div>Formularios y validadores</div></td></tr><tr><td><div>False</div></td></tr><tr><td><div>http://www.web2py.com/book/default/chapter/07</div></td></tr></table></div></td></tr><tr><td><div><table><tr><td><div>Correo electr\xc3\xb3nico y SMS</div></td></tr><tr><td><div>False</div></td></tr><tr><td><div>http://www.web2py.com/book/default/chapter/08</div></td></tr></table></div></td></tr><tr><td><div><table><tr><td><div>Control de Acceso</div></td></tr><tr><td><div>False</div></td></tr><tr><td><div>http://www.web2py.com/book/default/chapter/09</div></td></tr></table></div></td></tr><tr><td><div><table><tr><td><div>Servicios</div></td></tr><tr><td><div>False</div></td></tr><tr><td><div>http://www.web2py.com/book/default/chapter/10</div></td></tr></table></div></td></tr><tr><td><div><table><tr><td><div>Recetas AJAX</div></td></tr><tr><td><div>False</div></td></tr><tr><td><div>http://www.web2py.com/book/default/chapter/11</div></td></tr></table></div></td></tr><tr><td><div><table><tr><td><div>Componentes y Plugins</div></td></tr><tr><td><div>False</div></td></tr><tr><td><div>http://www.web2py.com/book/default/chapter/12</div></td></tr></table></div></td></tr><tr><td><div><table><tr><td><div>Recetas de despliegue</div></td></tr><tr><td><div>False</div></td></tr><tr><td><div>http://www.web2py.com/book/default/chapter/13</div></td></tr></table></div></td></tr><tr><td><div><table><tr><td><div>Otras Recetas</div></td></tr><tr><td><div>False</div></td></tr><tr><td><div>http://www.web2py.com/book/default/chapter/14</div></td></tr></table></div></td></tr><tr><td><div><table><tr><td><div>Helping web2py</div></td></tr><tr><td><div>False</div></td></tr><tr><td><div>http://www.web2py.com/book/default/chapter/15</div></td></tr></table></div></td></tr><tr><td><div><table><tr><td><div>Buy web2py\'s book</div></td></tr><tr><td><div>False</div></td></tr><tr><td><div>http://stores.lulu.com/web2py</div></td></tr></table></div></td></tr></table></div></td></tr></table></div></td></tr><tr><td><div><table><tr><td><div>Comunidad</div></td></tr><tr><td><div>False</div></td></tr><tr><td><div>None</div></td></tr><tr><td><div><table><tr><td><div><table><tr><td><div>Grupos</div></td></tr><tr><td><div>False</div></td></tr><tr><td><div>http://www.web2py.com/examples/default/usergroups</div></td></tr></table></div></td></tr><tr><td><div><table><tr><td><div>Twitter</div></td></tr><tr><td><div>False</div></td></tr><tr><td><div>http://twitter.com/web2py</div></td></tr></table></div></td></tr><tr><td><div><table><tr><td><div>Chat en vivo</div></td></tr><tr><td><div>False</div></td></tr><tr><td><div>http://webchat.freenode.net/?channels=web2py</div></td></tr></table></div></td></tr></table></div></td></tr></table></div></td></tr></table></div></td></tr><tr><td style="font-weight:bold;vertical-align:top;">meta</td><td style="vertical-align:top;">:</td><td><div><table><tr><td style="font-weight:bold;vertical-align:top;">author</td><td style="vertical-align:top;">:</td><td><div>Your Name &lt;you@example.com&gt;</div></td></tr><tr><td style="font-weight:bold;vertical-align:top;">description</td><td style="vertical-align:top;">:</td><td><div>a cool new app</div></td></tr><tr><td style="font-weight:bold;vertical-align:top;">generator</td><td style="vertical-align:top;">:</td><td><div>Web2py Web Framework</div></td></tr><tr><td style="font-weight:bold;vertical-align:top;">keywords</td><td style="vertical-align:top;">:</td><td><div><table><tr><td><div>web2py</div></td></tr><tr><td><div>python</div></td></tr><tr><td><div>framework</div></td></tr></table></div></td></tr></table></div></td></tr><tr><td style="font-weight:bold;vertical-align:top;">models_to_run</td><td style="vertical-align:top;">:</td><td><div><table><tr><td><div>^\\w+\\.py$</div></td></tr><tr><td><div>^confeccion/\\w+\\.py$</div></td></tr><tr><td><div>^confeccion/procesar/\\w+\\.py$</div></td></tr></table></div></td></tr><tr><td style="font-weight:bold;vertical-align:top;">postprocessing</td><td style="vertical-align:top;">:</td><td><div><table></table></div></td></tr><tr><td style="font-weight:bold;vertical-align:top;">session_client</td><td style="vertical-align:top;">:</td><td><div>127.0.0.1</div></td></tr><tr><td style="font-weight:bold;vertical-align:top;">session_cookie_compression_level</td><td style="vertical-align:top;">:</td><td><div>None</div></td></tr><tr><td style="font-weight:bold;vertical-align:top;">session_cookie_expires</td><td style="vertical-align:top;">:</td><td><div>None</div></td></tr><tr><td style="font-weight:bold;vertical-align:top;">session_data_name</td><td style="vertical-align:top;">:</td><td><div>session_data_antecedentesplataforma</div></td></tr><tr><td style="font-weight:bold;vertical-align:top;">session_file</td><td style="vertical-align:top;">:</td><td><div>&lt;open file &#x27;D:\\\\web2py\\\\applications\\\\antecedentesplataforma\\\\sessions\\\\1a6\\\\01b\\\\127.0.0.1-9fd3fe3c-dda4-4589-bb56-14df99b5a51f&#x27;, mode &#x27;rb+&#x27; at 0x09701D88&gt;</div></td></tr><tr><td style="font-weight:bold;vertical-align:top;">session_filename</td><td style="vertical-align:top;">:</td><td><div>D:\\web2py\\applications\\antecedentesplataforma\\sessions\\127.0.0.1-9fd3fe3c-dda4-4589-bb56-14df99b5a51f</div></td></tr><tr><td style="font-weight:bold;vertical-align:top;">session_hash</td><td style="vertical-align:top;">:</td><td><div>c7ba3da89c6b4e6744205cee3d835616</div></td></tr><tr><td style="font-weight:bold;vertical-align:top;">session_id</td><td style="vertical-align:top;">:</td><td><div>127.0.0.1-9fd3fe3c-dda4-4589-bb56-14df99b5a51f</div></td></tr><tr><td style="font-weight:bold;vertical-align:top;">session_id_name</td><td style="vertical-align:top;">:</td><td><div>session_id_antecedentesplataforma</div></td></tr><tr><td style="font-weight:bold;vertical-align:top;">session_locked</td><td style="vertical-align:top;">:</td><td><div>True</div></td></tr><tr><td style="font-weight:bold;vertical-align:top;">session_masterapp</td><td style="vertical-align:top;">:</td><td><div>antecedentesplataforma</div></td></tr><tr><td style="font-weight:bold;vertical-align:top;">session_new</td><td style="vertical-align:top;">:</td><td><div>False</div></td></tr><tr><td style="font-weight:bold;vertical-align:top;">session_storage_type</td><td style="vertical-align:top;">:</td><td><div>file</div></td></tr><tr><td style="font-weight:bold;vertical-align:top;">status</td><td style="vertical-align:top;">:</td><td><div>200</div></td></tr><tr><td style="font-weight:bold;vertical-align:top;">subtitle</td><td style="vertical-align:top;">:</td><td><div></div></td></tr><tr><td style="font-weight:bold;vertical-align:top;">title</td><td style="vertical-align:top;">:</td><td><div>Antecedentesplataforma</div></td></tr><tr><td style="font-weight:bold;vertical-align:top;">view</td><td style="vertical-align:top;">:</td><td><div>confeccion/procesar.html</div></td></tr></table></div>'
tRp288
sS'locals'
p289
(dp290
S'referenced'
p291
S"'paises'"
p292
sS'obj'
p293
S"'ARGENTINA'"
p294
sS'self'
p295
S'<pydal.adapters.sqlite.SQLiteAdapter object>'
p296
sS'r'
S'None'
p297
sS'fieldtype'
p298
S"'reference paises'"
p299
sS'field_is_type'
p300
S'<built-in method startswith of str object>'
p301
sssS'traceback'
p302
S'Traceback (most recent call last):\n  File "D:\\web2py\\gluon\\restricted.py", line 227, in restricted\n    exec ccode in environment\n  File "D:\\web2py\\applications\\antecedentesplataforma\\controllers/confeccion.py", line 126, in <module>\n  File "D:\\web2py\\gluon\\globals.py", line 417, in <lambda>\n    self._caller = lambda f: f()\n  File "D:\\web2py\\applications\\antecedentesplataforma\\controllers/confeccion.py", line 89, in procesar\n    IdPais=form.vars.pais,Profesion=form.vars.Profesion)\n  File "D:\\web2py\\gluon\\packages\\dal\\pydal\\helpers\\classes.py", line 245, in __call__\n    **newfields\n  File "D:\\web2py\\gluon\\packages\\dal\\pydal\\objects.py", line 2054, in update\n    ret = db._adapter.update("%s" % table._tablename, self.query, fields)\n  File "D:\\web2py\\gluon\\packages\\dal\\pydal\\adapters\\base.py", line 1023, in update\n    sql = self._update(tablename, query, fields)\n  File "D:\\web2py\\gluon\\packages\\dal\\pydal\\adapters\\base.py", line 1018, in _update\n    for (field, value) in fields])\n  File "D:\\web2py\\gluon\\packages\\dal\\pydal\\adapters\\base.py", line 962, in expand\n    rv = self.represent(expression, field_type)\n  File "D:\\web2py\\gluon\\packages\\dal\\pydal\\adapters\\base.py", line 1442, in represent\n    return str(long(obj))\nValueError: invalid literal for long() with base 10: \'ARGENTINA\'\n'
p303
s.