(dp1
S'output'
p2
S"<type 'exceptions.SyntaxError'> Field: unknown field type: int for dni"
p3
sS'layer'
p4
S'D:\\web2py\\applications\\antecedentesplataforma\\models\\db.py'
p5
sS'code'
p6
S'# -*- coding: utf-8 -*-\n\n# -------------------------------------------------------------------------\n# This scaffolding model makes your app work on Google App Engine too\n# File is released under public domain and you can use without limitations\n# -------------------------------------------------------------------------\n\nif request.global_settings.web2py_version < "2.14.1":\n    raise HTTP(500, "Requires web2py 2.13.3 or newer")\n\n# -------------------------------------------------------------------------\n# if SSL/HTTPS is properly configured and you want all HTTP requests to\n# be redirected to HTTPS, uncomment the line below:\n# -------------------------------------------------------------------------\n# request.requires_https()\n\n# -------------------------------------------------------------------------\n# app configuration made easy. Look inside private/appconfig.ini\n# -------------------------------------------------------------------------\nfrom gluon.contrib.appconfig import AppConfig\n\n# -------------------------------------------------------------------------\n# once in production, remove reload=True to gain full speed\n# -------------------------------------------------------------------------\nmyconf = AppConfig(reload=True)\n\nif not request.env.web2py_runtime_gae:\n    # ---------------------------------------------------------------------\n    # if NOT running on Google App Engine use SQLite or other DB\n    # ---------------------------------------------------------------------\n    db = DAL(myconf.get(\'db.uri\'),\n             pool_size=myconf.get(\'db.pool_size\'),\n             migrate_enabled=myconf.get(\'db.migrate\'),\n             check_reserved=[\'all\'])\nelse:\n    # ---------------------------------------------------------------------\n    # connect to Google BigTable (optional \'google:datastore://namespace\')\n    # ---------------------------------------------------------------------\n    db = DAL(\'google:datastore+ndb\')\n    # ---------------------------------------------------------------------\n    # store sessions and tickets there\n    # ---------------------------------------------------------------------\n    session.connect(request, response, db=db)\n    # ---------------------------------------------------------------------\n    # or store session in Memcache, Redis, etc.\n    # from gluon.contrib.memdb import MEMDB\n    # from google.appengine.api.memcache import Client\n    # session.connect(request, response, db = MEMDB(Client()))\n    # ---------------------------------------------------------------------\n\n# -------------------------------------------------------------------------\n# by default give a view/generic.extension to all actions from localhost\n# none otherwise. a pattern can be \'controller/function.extension\'\n# -------------------------------------------------------------------------\nresponse.generic_patterns = [\'*\'] if request.is_local else []\n# -------------------------------------------------------------------------\n# choose a style for forms\n# -------------------------------------------------------------------------\nresponse.formstyle = myconf.get(\'forms.formstyle\')  # or \'bootstrap3_stacked\' or \'bootstrap2\' or other\nresponse.form_label_separator = myconf.get(\'forms.separator\') or \'\'\n\n# -------------------------------------------------------------------------\n# (optional) optimize handling of static files\n# -------------------------------------------------------------------------\n# response.optimize_css = \'concat,minify,inline\'\n# response.optimize_js = \'concat,minify,inline\'\n\n# -------------------------------------------------------------------------\n# (optional) static assets folder versioning\n# -------------------------------------------------------------------------\n# response.static_version = \'0.0.0\'\n\n# -------------------------------------------------------------------------\n# Here is sample code if you need for\n# - email capabilities\n# - authentication (registration, login, logout, ... )\n# - authorization (role based authorization)\n# - services (xml, csv, json, xmlrpc, jsonrpc, amf, rss)\n# - old style crud actions\n# (more options discussed in gluon/tools.py)\n# -------------------------------------------------------------------------\n\nfrom gluon.tools import Auth, Service, PluginManager\n\n#host names must be a list of allowed host names (glob syntax allowed)\nauth = Auth(db, host_names=myconf.get(\'host.names\'))\nservice = Service()\nplugins = PluginManager()\n\n# -------------------------------------------------------------------------\n# create all tables needed by auth if not custom tables\n# -------------------------------------------------------------------------\nauth.settings.extra_fields[\'auth_user\'] = [Field(\'oficina\'),Field(\'dni\'),Field(\'iniciales\')]\nauth.define_tables(username=True, signature=False)\n\n# -------------------------------------------------------------------------\n# configure email\n# -------------------------------------------------------------------------\nmail = auth.settings.mailer\nmail.settings.server = \'logging\' if request.is_local else myconf.get(\'smtp.server\')\nmail.settings.sender = myconf.get(\'smtp.sender\')\nmail.settings.login = myconf.get(\'smtp.login\')\nmail.settings.tls = myconf.get(\'smtp.tls\') or False\nmail.settings.ssl = myconf.get(\'smtp.ssl\') or False\n\n# -------------------------------------------------------------------------\n# configure auth policy\n# -------------------------------------------------------------------------\n#auth.settings.registration_requires_verification = False\n#auth.settings.registration_requires_approval = False\n#auth.settings.reset_password_requires_verification = True\nauth.settings.actions_disabled.append(\'register\')\nauth.settings.actions_disabled.append(\'retrieve_username\')\nauth.settings.actions_disabled.append(\'request_reset_password\')\n\nauth.settings.remember_me_form=False\nauth.settings.registration_requires_approval = True\nauth.settings.on_failed_authorization = \\\n    URL(\'sin_autorizacion\')\n# -------------------------------------------------------------------------\n# Define your tables below (or better in another model file) for example\n#\n# >>> db.define_table(\'mytable\', Field(\'myfield\', \'string\'))\n#\n# Fields can be \'string\',\'text\',\'password\',\'integer\',\'double\',\'boolean\'\n#       \'date\',\'time\',\'datetime\',\'blob\',\'upload\', \'reference TABLENAME\'\n# There is an implicit \'id integer autoincrement\' field\n# Consult manual for more options, validators, etc.\n#\n# More API examples for controllers:\n#\n# >>> db.mytable.insert(myfield=\'value\')\n# >>> rows = db(db.mytable.myfield == \'value\').select(db.mytable.ALL)\n# >>> for row in rows: print row.id, row.myfield\n# -------------------------------------------------------------------------\n\n# -------------------------------------------------------------------------\n# after defining tables, uncomment below to enable auditing\n# -------------------------------------------------------------------------\n# auth.enable_record_versioning(db)\n#db = DAL(mysql://root:root@localhost/antecedentes-interno)\n#http://localhost/antecedentes-interno/\n\ndb.define_table(\'paises\',\n    \n    \n    Field(\'pais\'),\n\n    format=\'%(pais)s\'\n    )\ndb.define_table(\'prontuario\',\n    \n    \n    Field(\'Tprontuario\'),\n    format=\'%(Tprontuario)s\'\n    \n    )\n\ndb.define_table(\'padron\',\n       \n    Field(\'Apellido\',requires=IS_UPPER()),\n    Field(\'Nombre\',requires=IS_UPPER()),\n    Field(\'Clase\',requires=IS_UPPER()),\n    Field(\'DocumentoNro\',requires=IS_UPPER()),\n    Field(\'Pasaporte\',requires=IS_UPPER()),\n    Field(\'IdPais\',db.paises),\n    Field(\'Genero\',requires=IS_IN_SET(["M","F"])),\n    Field(\'EstadoCivil\',label=\'Estado Civil\',requires=IS_IN_SET(["S","C","D","V"])),         \n    Field(\'Profesion\',requires=IS_UPPER()),\n    Field(\'Direccion\',requires=IS_UPPER()),\n    Field(\'IdProntuarioTipo\',db.prontuario),\n    Field(\'ProntuarioNro\'),\n    Field(\'Observaciones\',requires=IS_UPPER()))\n\ndb.define_table(\'solicitud\',    \n    Field(\'dni\',\'int\'),    \n    Field(\'apellido\',requires=IS_UPPER()),  \n    Field(\'nombre\',requires=IS_UPPER()),       \n    Field(\'genero\'),\n    Field(\'tipo_prontuario\'),   \n    Field(\'prontuario\'),\n    Field(\'nro_certificado\'),\n    Field(\'estado_solicitud\'),\n    Field(\'fecha_solicitada\',\'datetime\',requires=[IS_NOT_EMPTY(),IS_DATETIME()]),\n    Field(\'hora\',\'datetime\',requires=[IS_NOT_EMPTY(),IS_DATETIME()]),   \n    Field(\'solicitado_por\',requires=IS_UPPER()),#ante las autoridades q lo requieran\n    Field(\'capitalinterior\',requires=IS_IN_SET(["CAPITAL","INTERIOR",""]) ),\n    Field(\'intervino\',requires=IS_UPPER()),#usuario q carga\n    Field(\'usuario\',requires=IS_UPPER()),\n    Field(\'ip_solicitante\'),\n    Field(\'ip_confeccion\'),\n    )\ndb.define_table(\'historial\',      \n    Field(\'dni\'),\n    Field(\'pasaporte\'),    \n    Field(\'nombre\',requires=IS_UPPER()),    \n    Field(\'apellido\',requires=IS_UPPER()),\n    Field(\'nro_certificado\'),\n    Field(\'capitalinterior\'),\n    Field(\'intervino\'),#usuario q carga\n    Field(\'fecha\',\'datetime\'),\n    Field(\'hora\'),\n    Field(\'solicitado_por\',requires=IS_UPPER()),##ante las autoridades q lo requieran\n    Field(\'t_antecedentes\',requires=IS_IN_SET(["SI","NO"])),\n    Field(\'antecedentes\',\'text\',requires=IS_UPPER()),\n\n    )\n\n\n\n#------------------------------------------------\n#---------------Validadores------------------------\ndb.padron.IdPais.requires=IS_IN_DB(db,\'paises\',\'%(pais)s\')\ndb.padron.IdProntuarioTipo.requires=IS_IN_DB(db,\'prontuario\',\'%(Tprontuario)s\')\ndb.auth_user.oficina.requires=IS_IN_SET([\'Turnos\',\'Confeccion\',\'Super\'])\n#db.solicitud.genero.requires=IS_IN_SET(["S","C","D","V"])  \n    '
p7
sS'snapshot'
p8
(dp9
S'exception'
p10
(dp11
S'__getslice__'
p12
S"<method-wrapper '__getslice__' of exceptions.SyntaxError object>"
p13
sS'text'
p14
S'None'
p15
sS'__str__'
p16
S"<method-wrapper '__str__' of exceptions.SyntaxError object>"
p17
sS'__reduce__'
p18
S'<built-in method __reduce__ of exceptions.SyntaxError object>'
p19
sS'__dict__'
p20
S'{}'
p21
sS'__sizeof__'
p22
S'<built-in method __sizeof__ of exceptions.SyntaxError object>'
p23
sS'__init__'
p24
S"<method-wrapper '__init__' of exceptions.SyntaxError object>"
p25
sS'__setattr__'
p26
S"<method-wrapper '__setattr__' of exceptions.SyntaxError object>"
p27
sS'__reduce_ex__'
p28
S'<built-in method __reduce_ex__ of exceptions.SyntaxError object>'
p29
sS'__new__'
p30
S'<built-in method __new__ of type object>'
p31
sS'__format__'
p32
S'<built-in method __format__ of exceptions.SyntaxError object>'
p33
sS'__class__'
p34
S"<type 'exceptions.SyntaxError'>"
p35
sS'filename'
p36
S'None'
p37
sS'lineno'
p38
S'None'
p39
sS'msg'
p40
S"'Field: unknown field type: int for dni'"
p41
sS'__doc__'
p42
S"'Invalid syntax.'"
p43
sS'__getitem__'
p44
S"<method-wrapper '__getitem__' of exceptions.SyntaxError object>"
p45
sS'__setstate__'
p46
S'<built-in method __setstate__ of exceptions.SyntaxError object>'
p47
sS'__getattribute__'
p48
S"<method-wrapper '__getattribute__' of exceptions.SyntaxError object>"
p49
sS'print_file_and_line'
p50
S'None'
p51
sS'args'
p52
S"('Field: unknown field type: int for dni',)"
p53
sS'__subclasshook__'
p54
S'<built-in method __subclasshook__ of type object>'
p55
sS'offset'
p56
S'None'
p57
sS'__unicode__'
p58
S'<built-in method __unicode__ of exceptions.SyntaxError object>'
p59
sS'__delattr__'
p60
S"<method-wrapper '__delattr__' of exceptions.SyntaxError object>"
p61
sS'__repr__'
p62
S"<method-wrapper '__repr__' of exceptions.SyntaxError object>"
p63
sS'__hash__'
p64
S"<method-wrapper '__hash__' of exceptions.SyntaxError object>"
p65
ssS'evalue'
p66
S'Field: unknown field type: int for dni'
p67
sS'request'
p68
cgluon.html
XML_unpickle
p69
(S's\xb0d\x00\x00<div><table><tr><td style="font-weight:bold;vertical-align:top;">ajax</td><td style="vertical-align:top;">:</td><td><div>False</div></td></tr><tr><td style="font-weight:bold;vertical-align:top;">application</td><td style="vertical-align:top;">:</td><td><div>antecedentesplataforma</div></td></tr><tr><td style="font-weight:bold;vertical-align:top;">args</td><td style="vertical-align:top;">:</td><td><div><table><tr><td><div>71088</div></td></tr></table></div></td></tr><tr><td style="font-weight:bold;vertical-align:top;">cid</td><td style="vertical-align:top;">:</td><td><div>None</div></td></tr><tr><td style="font-weight:bold;vertical-align:top;">client</td><td style="vertical-align:top;">:</td><td><div>127.0.0.1</div></td></tr><tr><td style="font-weight:bold;vertical-align:top;">controller</td><td style="vertical-align:top;">:</td><td><div>confeccion</div></td></tr><tr><td style="font-weight:bold;vertical-align:top;">cookies</td><td style="vertical-align:top;">:</td><td><div><table><tr><td style="font-weight:bold;vertical-align:top;">session_id_admin</td><td style="vertical-align:top;">:</td><td><div>127.0.0.1-c3995f3f-778f-4a07-87dd-7407da7cf588<table><tr><td style="font-weight:bold;vertical-align:top;">comment</td><td style="vertical-align:top;">:</td><td><div></div></td></tr><tr><td style="font-weight:bold;vertical-align:top;">domain</td><td style="vertical-align:top;">:</td><td><div></div></td></tr><tr><td style="font-weight:bold;vertical-align:top;">expires</td><td style="vertical-align:top;">:</td><td><div></div></td></tr><tr><td style="font-weight:bold;vertical-align:top;">httponly</td><td style="vertical-align:top;">:</td><td><div></div></td></tr><tr><td style="font-weight:bold;vertical-align:top;">max-age</td><td style="vertical-align:top;">:</td><td><div></div></td></tr><tr><td style="font-weight:bold;vertical-align:top;">path</td><td style="vertical-align:top;">:</td><td><div></div></td></tr><tr><td style="font-weight:bold;vertical-align:top;">secure</td><td style="vertical-align:top;">:</td><td><div></div></td></tr><tr><td style="font-weight:bold;vertical-align:top;">version</td><td style="vertical-align:top;">:</td><td><div></div></td></tr></table></div></td></tr><tr><td style="font-weight:bold;vertical-align:top;">session_id_antecedentesplataforma</td><td style="vertical-align:top;">:</td><td><div>127.0.0.1-1a14456a-a255-4383-bf58-4f7aa309f245<table><tr><td style="font-weight:bold;vertical-align:top;">comment</td><td style="vertical-align:top;">:</td><td><div></div></td></tr><tr><td style="font-weight:bold;vertical-align:top;">domain</td><td style="vertical-align:top;">:</td><td><div></div></td></tr><tr><td style="font-weight:bold;vertical-align:top;">expires</td><td style="vertical-align:top;">:</td><td><div></div></td></tr><tr><td style="font-weight:bold;vertical-align:top;">httponly</td><td style="vertical-align:top;">:</td><td><div></div></td></tr><tr><td style="font-weight:bold;vertical-align:top;">max-age</td><td style="vertical-align:top;">:</td><td><div></div></td></tr><tr><td style="font-weight:bold;vertical-align:top;">path</td><td style="vertical-align:top;">:</td><td><div></div></td></tr><tr><td style="font-weight:bold;vertical-align:top;">secure</td><td style="vertical-align:top;">:</td><td><div></div></td></tr><tr><td style="font-weight:bold;vertical-align:top;">version</td><td style="vertical-align:top;">:</td><td><div></div></td></tr></table></div></td></tr><tr><td style="font-weight:bold;vertical-align:top;">session_id_welcome</td><td style="vertical-align:top;">:</td><td><div>127.0.0.1-7ec82c24-f720-4ff4-bae7-68c7afcb12b9<table><tr><td style="font-weight:bold;vertical-align:top;">comment</td><td style="vertical-align:top;">:</td><td><div></div></td></tr><tr><td style="font-weight:bold;vertical-align:top;">domain</td><td style="vertical-align:top;">:</td><td><div></div></td></tr><tr><td style="font-weight:bold;vertical-align:top;">expires</td><td style="vertical-align:top;">:</td><td><div></div></td></tr><tr><td style="font-weight:bold;vertical-align:top;">httponly</td><td style="vertical-align:top;">:</td><td><div></div></td></tr><tr><td style="font-weight:bold;vertical-align:top;">max-age</td><td style="vertical-align:top;">:</td><td><div></div></td></tr><tr><td style="font-weight:bold;vertical-align:top;">path</td><td style="vertical-align:top;">:</td><td><div></div></td></tr><tr><td style="font-weight:bold;vertical-align:top;">secure</td><td style="vertical-align:top;">:</td><td><div></div></td></tr><tr><td style="font-weight:bold;vertical-align:top;">version</td><td style="vertical-align:top;">:</td><td><div></div></td></tr></table></div></td></tr></table></div></td></tr><tr><td style="font-weight:bold;vertical-align:top;">env</td><td style="vertical-align:top;">:</td><td><div><table><tr><td style="font-weight:bold;vertical-align:top;">CONTENT_LENGTH</td><td style="vertical-align:top;">:</td><td><div>1921</div></td></tr><tr><td style="font-weight:bold;vertical-align:top;">CONTENT_TYPE</td><td style="vertical-align:top;">:</td><td><div>multipart/form-data; boundary=----WebKitFormBoundarye1fQfRTpAchzNeaw</div></td></tr><tr><td style="font-weight:bold;vertical-align:top;">HTTP_ACCEPT</td><td style="vertical-align:top;">:</td><td><div>text/html,application/xhtml+xml,application/xml;q=0.9,image/webp,image/apng,*/*;q=0.8</div></td></tr><tr><td style="font-weight:bold;vertical-align:top;">HTTP_ACCEPT_ENCODING</td><td style="vertical-align:top;">:</td><td><div>gzip, deflate, br</div></td></tr><tr><td style="font-weight:bold;vertical-align:top;">HTTP_ACCEPT_LANGUAGE</td><td style="vertical-align:top;">:</td><td><div>es-ES,es;q=0.9,en;q=0.8</div></td></tr><tr><td style="font-weight:bold;vertical-align:top;">HTTP_CACHE_CONTROL</td><td style="vertical-align:top;">:</td><td><div>max-age=0</div></td></tr><tr><td style="font-weight:bold;vertical-align:top;">HTTP_CONNECTION</td><td style="vertical-align:top;">:</td><td><div>keep-alive</div></td></tr><tr><td style="font-weight:bold;vertical-align:top;">HTTP_CONTENT_LENGTH</td><td style="vertical-align:top;">:</td><td><div>1921</div></td></tr><tr><td style="font-weight:bold;vertical-align:top;">HTTP_CONTENT_TYPE</td><td style="vertical-align:top;">:</td><td><div>multipart/form-data; boundary=----WebKitFormBoundarye1fQfRTpAchzNeaw</div></td></tr><tr><td style="font-weight:bold;vertical-align:top;">HTTP_COOKIE</td><td style="vertical-align:top;">:</td><td><div>session_id_welcome=127.0.0.1-7ec82c24-f720-4ff4-bae7-68c7afcb12b9; session_id_admin=127.0.0.1-c3995f3f-778f-4a07-87dd-7407da7cf588; session_id_antecedentesplataforma=127.0.0.1-1a14456a-a255-4383-bf58-4f7aa309f245</div></td></tr><tr><td style="font-weight:bold;vertical-align:top;">HTTP_HOST</td><td style="vertical-align:top;">:</td><td><div>127.0.0.1:8000</div></td></tr><tr><td style="font-weight:bold;vertical-align:top;">HTTP_ORIGIN</td><td style="vertical-align:top;">:</td><td><div>http://127.0.0.1:8000</div></td></tr><tr><td style="font-weight:bold;vertical-align:top;">HTTP_REFERER</td><td style="vertical-align:top;">:</td><td><div>http://127.0.0.1:8000/antecedentesplataforma/confeccion/procesar/71088</div></td></tr><tr><td style="font-weight:bold;vertical-align:top;">HTTP_UPGRADE_INSECURE_REQUESTS</td><td style="vertical-align:top;">:</td><td><div>1</div></td></tr><tr><td style="font-weight:bold;vertical-align:top;">HTTP_USER_AGENT</td><td style="vertical-align:top;">:</td><td><div>Mozilla/5.0 (Windows NT 6.1) AppleWebKit/537.36 (KHTML, like Gecko) Chrome/73.0.3683.103 Safari/537.36</div></td></tr><tr><td style="font-weight:bold;vertical-align:top;">PATH_INFO</td><td style="vertical-align:top;">:</td><td><div>/antecedentesplataforma/confeccion/procesar/71088</div></td></tr><tr><td style="font-weight:bold;vertical-align:top;">QUERY_STRING</td><td style="vertical-align:top;">:</td><td><div></div></td></tr><tr><td style="font-weight:bold;vertical-align:top;">REMOTE_ADDR</td><td style="vertical-align:top;">:</td><td><div>127.0.0.1</div></td></tr><tr><td style="font-weight:bold;vertical-align:top;">REMOTE_PORT</td><td style="vertical-align:top;">:</td><td><div>4800</div></td></tr><tr><td style="font-weight:bold;vertical-align:top;">REQUEST_METHOD</td><td style="vertical-align:top;">:</td><td><div>POST</div></td></tr><tr><td style="font-weight:bold;vertical-align:top;">SCRIPT_NAME</td><td style="vertical-align:top;">:</td><td><div></div></td></tr><tr><td style="font-weight:bold;vertical-align:top;">SERVER_NAME</td><td style="vertical-align:top;">:</td><td><div>HaTaK3-PC</div></td></tr><tr><td style="font-weight:bold;vertical-align:top;">SERVER_PORT</td><td style="vertical-align:top;">:</td><td><div>8000</div></td></tr><tr><td style="font-weight:bold;vertical-align:top;">SERVER_PROTOCOL</td><td style="vertical-align:top;">:</td><td><div>HTTP/1.1</div></td></tr><tr><td style="font-weight:bold;vertical-align:top;">SERVER_SOFTWARE</td><td style="vertical-align:top;">:</td><td><div>Rocket 1.2.6</div></td></tr><tr><td style="font-weight:bold;vertical-align:top;">app_folders</td><td style="vertical-align:top;">:</td><td><div>set([&#x27;D:\\\\web2py\\\\applications\\\\admin\\\\&#x27;, &#x27;D:\\\\web2py\\\\applications\\\\welcome\\\\&#x27;, &#x27;D:\\\\web2py\\\\applications\\\\antecedentesplataforma\\\\&#x27;])</div></td></tr><tr><td style="font-weight:bold;vertical-align:top;">applications_parent</td><td style="vertical-align:top;">:</td><td><div>D:\\web2py</div></td></tr><tr><td style="font-weight:bold;vertical-align:top;">cmd_args</td><td style="vertical-align:top;">:</td><td><div><table></table></div></td></tr><tr><td style="font-weight:bold;vertical-align:top;">cmd_options</td><td style="vertical-align:top;">:</td><td><div>&lt;Values at 0x278dd50: {&#x27;verbose&#x27;: False, &#x27;ip&#x27;: &#x27;127.0.0.1&#x27;, &#x27;debuglevel&#x27;: 30, &#x27;with_scheduler&#x27;: False, &#x27;shutdown_timeout&#x27;: 5, &#x27;taskbar&#x27;: False, &#x27;with_coverage&#x27;: False, &#x27;pid_filename&#x27;: &#x27;httpserver.pid&#x27;, &#x27;maxthreads&#x27;: None, &#x27;softcron&#x27;: False, &#x27;server_name&#x27;: &#x27;HaTaK3-PC&#x27;, &#x27;bpython&#x27;: False, &#x27;nogui&#x27;: False, &#x27;port&#x27;: 8000, &#x27;print_errors&#x27;: False, &#x27;extcron&#x27;: False, &#x27;runcron&#x27;: False, &#x27;run_system_tests&#x27;: False, &#x27;test&#x27;: None, &#x27;folder&#x27;: &#x27;D:\\\\web2py&#x27;, &#x27;config&#x27;: &#x27;&#x27;, &#x27;minthreads&#x27;: None, &#x27;shell&#x27;: None, &#x27;run&#x27;: &#x27;&#x27;, &#x27;log_filename&#x27;: &#x27;httpserver.log&#x27;, &#x27;profiler_dir&#x27;: None, &#x27;args&#x27;: [&#x27;&#x27;], &#x27;socket_timeout&#x27;: 5, &#x27;ssl_ca_certificate&#x27;: None, &#x27;scheduler&#x27;: None, &#x27;interfaces&#x27;: None, &#x27;ssl_private_key&#x27;: &#x27;&#x27;, &#x27;gae&#x27;: None, &#x27;password&#x27;: &#x27;******&#x27;, &#x27;request_queue_size&#x27;: 5, &#x27;ssl_certificate&#x27;: &#x27;&#x27;, &#x27;cronjob&#x27;: False, &#x27;numthreads&#x27;: None, &#x27;quiet&#x27;: False, &#x27;import_models&#x27;: False, &#x27;timeout&#x27;: 10, &#x27;plain&#x27;: False, &#x27;nobanner&#x27;: False}&gt;</div></td></tr><tr><td style="font-weight:bold;vertical-align:top;">content_length</td><td style="vertical-align:top;">:</td><td><div>1921</div></td></tr><tr><td style="font-weight:bold;vertical-align:top;">content_type</td><td style="vertical-align:top;">:</td><td><div>multipart/form-data; boundary=----WebKitFormBoundarye1fQfRTpAchzNeaw</div></td></tr><tr><td style="font-weight:bold;vertical-align:top;">db_sessions</td><td style="vertical-align:top;">:</td><td><div>set([])</div></td></tr><tr><td style="font-weight:bold;vertical-align:top;">debugging</td><td style="vertical-align:top;">:</td><td><div>False</div></td></tr><tr><td style="font-weight:bold;vertical-align:top;">gluon_parent</td><td style="vertical-align:top;">:</td><td><div>D:\\web2py</div></td></tr><tr><td style="font-weight:bold;vertical-align:top;">http_accept</td><td style="vertical-align:top;">:</td><td><div>text/html,application/xhtml+xml,application/xml;q=0.9,image/webp,image/apng,*/*;q=0.8</div></td></tr><tr><td style="font-weight:bold;vertical-align:top;">http_accept_encoding</td><td style="vertical-align:top;">:</td><td><div>gzip, deflate, br</div></td></tr><tr><td style="font-weight:bold;vertical-align:top;">http_accept_language</td><td style="vertical-align:top;">:</td><td><div>es-ES,es;q=0.9,en;q=0.8</div></td></tr><tr><td style="font-weight:bold;vertical-align:top;">http_cache_control</td><td style="vertical-align:top;">:</td><td><div>max-age=0</div></td></tr><tr><td style="font-weight:bold;vertical-align:top;">http_connection</td><td style="vertical-align:top;">:</td><td><div>keep-alive</div></td></tr><tr><td style="font-weight:bold;vertical-align:top;">http_content_length</td><td style="vertical-align:top;">:</td><td><div>1921</div></td></tr><tr><td style="font-weight:bold;vertical-align:top;">http_content_type</td><td style="vertical-align:top;">:</td><td><div>multipart/form-data; boundary=----WebKitFormBoundarye1fQfRTpAchzNeaw</div></td></tr><tr><td style="font-weight:bold;vertical-align:top;">http_cookie</td><td style="vertical-align:top;">:</td><td><div>session_id_welcome=127.0.0.1-7ec82c24-f720-4ff4-bae7-68c7afcb12b9; session_id_admin=127.0.0.1-c3995f3f-778f-4a07-87dd-7407da7cf588; session_id_antecedentesplataforma=127.0.0.1-1a14456a-a255-4383-bf58-4f7aa309f245</div></td></tr><tr><td style="font-weight:bold;vertical-align:top;">http_host</td><td style="vertical-align:top;">:</td><td><div>127.0.0.1:8000</div></td></tr><tr><td style="font-weight:bold;vertical-align:top;">http_origin</td><td style="vertical-align:top;">:</td><td><div>http://127.0.0.1:8000</div></td></tr><tr><td style="font-weight:bold;vertical-align:top;">http_referer</td><td style="vertical-align:top;">:</td><td><div>http://127.0.0.1:8000/antecedentesplataforma/confeccion/procesar/71088</div></td></tr><tr><td style="font-weight:bold;vertical-align:top;">http_upgrade_insecure_requests</td><td style="vertical-align:top;">:</td><td><div>1</div></td></tr><tr><td style="font-weight:bold;vertical-align:top;">http_user_agent</td><td style="vertical-align:top;">:</td><td><div>Mozilla/5.0 (Windows NT 6.1) AppleWebKit/537.36 (KHTML, like Gecko) Chrome/73.0.3683.103 Safari/537.36</div></td></tr><tr><td style="font-weight:bold;vertical-align:top;">is_jython</td><td style="vertical-align:top;">:</td><td><div>False</div></td></tr><tr><td style="font-weight:bold;vertical-align:top;">is_pypy</td><td style="vertical-align:top;">:</td><td><div>False</div></td></tr><tr><td style="font-weight:bold;vertical-align:top;">is_source</td><td style="vertical-align:top;">:</td><td><div>False</div></td></tr><tr><td style="font-weight:bold;vertical-align:top;">local_hosts</td><td style="vertical-align:top;">:</td><td><div><table><tr><td><div>HaTaK3-PC</div></td></tr><tr><td><div>::ffff:127.0.0.1</div></td></tr><tr><td><div>::1</div></td></tr><tr><td><div>fe80::65c7:8cfe:1866:2ddb%12</div></td></tr><tr><td><div>10.150.0.69</div></td></tr><tr><td><div>fe80::6de3:fa60:8d1c:59aa%11</div></td></tr><tr><td><div>127.0.0.1</div></td></tr><tr><td><div>192.168.56.1</div></td></tr></table></div></td></tr><tr><td style="font-weight:bold;vertical-align:top;">path_info</td><td style="vertical-align:top;">:</td><td><div>/antecedentesplataforma/confeccion/procesar/71088</div></td></tr><tr><td style="font-weight:bold;vertical-align:top;">query_string</td><td style="vertical-align:top;">:</td><td><div></div></td></tr><tr><td style="font-weight:bold;vertical-align:top;">remote_addr</td><td style="vertical-align:top;">:</td><td><div>127.0.0.1</div></td></tr><tr><td style="font-weight:bold;vertical-align:top;">remote_port</td><td style="vertical-align:top;">:</td><td><div>4800</div></td></tr><tr><td style="font-weight:bold;vertical-align:top;">request_method</td><td style="vertical-align:top;">:</td><td><div>POST</div></td></tr><tr><td style="font-weight:bold;vertical-align:top;">request_uri</td><td style="vertical-align:top;">:</td><td><div>/antecedentesplataforma/confeccion/procesar/71088</div></td></tr><tr><td style="font-weight:bold;vertical-align:top;">script_name</td><td style="vertical-align:top;">:</td><td><div></div></td></tr><tr><td style="font-weight:bold;vertical-align:top;">server_name</td><td style="vertical-align:top;">:</td><td><div>HaTaK3-PC</div></td></tr><tr><td style="font-weight:bold;vertical-align:top;">server_port</td><td style="vertical-align:top;">:</td><td><div>8000</div></td></tr><tr><td style="font-weight:bold;vertical-align:top;">server_protocol</td><td style="vertical-align:top;">:</td><td><div>HTTP/1.1</div></td></tr><tr><td style="font-weight:bold;vertical-align:top;">server_software</td><td style="vertical-align:top;">:</td><td><div>Rocket 1.2.6</div></td></tr><tr><td style="font-weight:bold;vertical-align:top;">web2py_path</td><td style="vertical-align:top;">:</td><td><div>D:\\web2py</div></td></tr><tr><td style="font-weight:bold;vertical-align:top;">web2py_version</td><td style="vertical-align:top;">:</td><td><div>2.14.6-stable+timestamp.2016.05.10.00.21.47</div></td></tr><tr><td style="font-weight:bold;vertical-align:top;">wsgi.errors</td><td style="vertical-align:top;">:</td><td><div>&lt;open file &#x27;&lt;stderr&gt;&#x27;, mode &#x27;w&#x27; at 0x0045D0D0&gt;</div></td></tr><tr><td style="font-weight:bold;vertical-align:top;">wsgi.file_wrapper</td><td style="vertical-align:top;">:</td><td><div>&lt;class wsgiref.util.FileWrapper at 0x0288E4C8&gt;</div></td></tr><tr><td style="font-weight:bold;vertical-align:top;">wsgi.input</td><td style="vertical-align:top;">:</td><td><div>&lt;socket._fileobject object at 0x035EA830&gt;</div></td></tr><tr><td style="font-weight:bold;vertical-align:top;">wsgi.multiprocess</td><td style="vertical-align:top;">:</td><td><div>False</div></td></tr><tr><td style="font-weight:bold;vertical-align:top;">wsgi.multithread</td><td style="vertical-align:top;">:</td><td><div>True</div></td></tr><tr><td style="font-weight:bold;vertical-align:top;">wsgi.run_once</td><td style="vertical-align:top;">:</td><td><div>False</div></td></tr><tr><td style="font-weight:bold;vertical-align:top;">wsgi.url_scheme</td><td style="vertical-align:top;">:</td><td><div>http</div></td></tr><tr><td style="font-weight:bold;vertical-align:top;">wsgi.version</td><td style="vertical-align:top;">:</td><td><div><table><tr><td><div>1</div></td></tr><tr><td><div>0</div></td></tr></table></div></td></tr><tr><td style="font-weight:bold;vertical-align:top;">wsgi_errors</td><td style="vertical-align:top;">:</td><td><div>&lt;open file &#x27;&lt;stderr&gt;&#x27;, mode &#x27;w&#x27; at 0x0045D0D0&gt;</div></td></tr><tr><td style="font-weight:bold;vertical-align:top;">wsgi_file_wrapper</td><td style="vertical-align:top;">:</td><td><div>&lt;class wsgiref.util.FileWrapper at 0x0288E4C8&gt;</div></td></tr><tr><td style="font-weight:bold;vertical-align:top;">wsgi_input</td><td style="vertical-align:top;">:</td><td><div>&lt;socket._fileobject object at 0x035EA830&gt;</div></td></tr><tr><td style="font-weight:bold;vertical-align:top;">wsgi_multiprocess</td><td style="vertical-align:top;">:</td><td><div>False</div></td></tr><tr><td style="font-weight:bold;vertical-align:top;">wsgi_multithread</td><td style="vertical-align:top;">:</td><td><div>True</div></td></tr><tr><td style="font-weight:bold;vertical-align:top;">wsgi_run_once</td><td style="vertical-align:top;">:</td><td><div>False</div></td></tr><tr><td style="font-weight:bold;vertical-align:top;">wsgi_url_scheme</td><td style="vertical-align:top;">:</td><td><div>http</div></td></tr><tr><td style="font-weight:bold;vertical-align:top;">wsgi_version</td><td style="vertical-align:top;">:</td><td><div><table><tr><td><div>1</div></td></tr><tr><td><div>0</div></td></tr></table></div></td></tr></table></div></td></tr><tr><td style="font-weight:bold;vertical-align:top;">extension</td><td style="vertical-align:top;">:</td><td><div>html</div></td></tr><tr><td style="font-weight:bold;vertical-align:top;">folder</td><td style="vertical-align:top;">:</td><td><div>D:\\web2py\\applications\\antecedentesplataforma\\</div></td></tr><tr><td style="font-weight:bold;vertical-align:top;">function</td><td style="vertical-align:top;">:</td><td><div>procesar</div></td></tr><tr><td style="font-weight:bold;vertical-align:top;">global_settings</td><td style="vertical-align:top;">:</td><td><div><table><tr><td style="font-weight:bold;vertical-align:top;">app_folders</td><td style="vertical-align:top;">:</td><td><div>set([&#x27;D:\\\\web2py\\\\applications\\\\admin\\\\&#x27;, &#x27;D:\\\\web2py\\\\applications\\\\welcome\\\\&#x27;, &#x27;D:\\\\web2py\\\\applications\\\\antecedentesplataforma\\\\&#x27;])</div></td></tr><tr><td style="font-weight:bold;vertical-align:top;">applications_parent</td><td style="vertical-align:top;">:</td><td><div>D:\\web2py</div></td></tr><tr><td style="font-weight:bold;vertical-align:top;">cmd_args</td><td style="vertical-align:top;">:</td><td><div><table></table></div></td></tr><tr><td style="font-weight:bold;vertical-align:top;">cmd_options</td><td style="vertical-align:top;">:</td><td><div>&lt;Values at 0x278dd50: {&#x27;verbose&#x27;: False, &#x27;ip&#x27;: &#x27;127.0.0.1&#x27;, &#x27;debuglevel&#x27;: 30, &#x27;with_scheduler&#x27;: False, &#x27;shutdown_timeout&#x27;: 5, &#x27;taskbar&#x27;: False, &#x27;with_coverage&#x27;: False, &#x27;pid_filename&#x27;: &#x27;httpserver.pid&#x27;, &#x27;maxthreads&#x27;: None, &#x27;softcron&#x27;: False, &#x27;server_name&#x27;: &#x27;HaTaK3-PC&#x27;, &#x27;bpython&#x27;: False, &#x27;nogui&#x27;: False, &#x27;port&#x27;: 8000, &#x27;print_errors&#x27;: False, &#x27;extcron&#x27;: False, &#x27;runcron&#x27;: False, &#x27;run_system_tests&#x27;: False, &#x27;test&#x27;: None, &#x27;folder&#x27;: &#x27;D:\\\\web2py&#x27;, &#x27;config&#x27;: &#x27;&#x27;, &#x27;minthreads&#x27;: None, &#x27;shell&#x27;: None, &#x27;run&#x27;: &#x27;&#x27;, &#x27;log_filename&#x27;: &#x27;httpserver.log&#x27;, &#x27;profiler_dir&#x27;: None, &#x27;args&#x27;: [&#x27;&#x27;], &#x27;socket_timeout&#x27;: 5, &#x27;ssl_ca_certificate&#x27;: None, &#x27;scheduler&#x27;: None, &#x27;interfaces&#x27;: None, &#x27;ssl_private_key&#x27;: &#x27;&#x27;, &#x27;gae&#x27;: None, &#x27;password&#x27;: &#x27;******&#x27;, &#x27;request_queue_size&#x27;: 5, &#x27;ssl_certificate&#x27;: &#x27;&#x27;, &#x27;cronjob&#x27;: False, &#x27;numthreads&#x27;: None, &#x27;quiet&#x27;: False, &#x27;import_models&#x27;: False, &#x27;timeout&#x27;: 10, &#x27;plain&#x27;: False, &#x27;nobanner&#x27;: False}&gt;</div></td></tr><tr><td style="font-weight:bold;vertical-align:top;">db_sessions</td><td style="vertical-align:top;">:</td><td><div>set([])</div></td></tr><tr><td style="font-weight:bold;vertical-align:top;">debugging</td><td style="vertical-align:top;">:</td><td><div>False</div></td></tr><tr><td style="font-weight:bold;vertical-align:top;">gluon_parent</td><td style="vertical-align:top;">:</td><td><div>D:\\web2py</div></td></tr><tr><td style="font-weight:bold;vertical-align:top;">is_jython</td><td style="vertical-align:top;">:</td><td><div>False</div></td></tr><tr><td style="font-weight:bold;vertical-align:top;">is_pypy</td><td style="vertical-align:top;">:</td><td><div>False</div></td></tr><tr><td style="font-weight:bold;vertical-align:top;">is_source</td><td style="vertical-align:top;">:</td><td><div>False</div></td></tr><tr><td style="font-weight:bold;vertical-align:top;">local_hosts</td><td style="vertical-align:top;">:</td><td><div><table><tr><td><div>HaTaK3-PC</div></td></tr><tr><td><div>::ffff:127.0.0.1</div></td></tr><tr><td><div>::1</div></td></tr><tr><td><div>fe80::65c7:8cfe:1866:2ddb%12</div></td></tr><tr><td><div>10.150.0.69</div></td></tr><tr><td><div>fe80::6de3:fa60:8d1c:59aa%11</div></td></tr><tr><td><div>127.0.0.1</div></td></tr><tr><td><div>192.168.56.1</div></td></tr></table></div></td></tr><tr><td style="font-weight:bold;vertical-align:top;">web2py_version</td><td style="vertical-align:top;">:</td><td><div>2.14.6-stable+timestamp.2016.05.10.00.21.47</div></td></tr></table></div></td></tr><tr><td style="font-weight:bold;vertical-align:top;">is_https</td><td style="vertical-align:top;">:</td><td><div>False</div></td></tr><tr><td style="font-weight:bold;vertical-align:top;">is_local</td><td style="vertical-align:top;">:</td><td><div>True</div></td></tr><tr><td style="font-weight:bold;vertical-align:top;">is_restful</td><td style="vertical-align:top;">:</td><td><div>False</div></td></tr><tr><td style="font-weight:bold;vertical-align:top;">is_scheduler</td><td style="vertical-align:top;">:</td><td><div>False</div></td></tr><tr><td style="font-weight:bold;vertical-align:top;">is_shell</td><td style="vertical-align:top;">:</td><td><div>False</div></td></tr><tr><td style="font-weight:bold;vertical-align:top;">now</td><td style="vertical-align:top;">:</td><td><div>datetime.datetime(2019, 4, 18, 23, 3, 0, 925000)</div></td></tr><tr><td style="font-weight:bold;vertical-align:top;">raw_args</td><td style="vertical-align:top;">:</td><td><div>71088</div></td></tr><tr><td style="font-weight:bold;vertical-align:top;">raw_extension</td><td style="vertical-align:top;">:</td><td><div>None</div></td></tr><tr><td style="font-weight:bold;vertical-align:top;">url</td><td style="vertical-align:top;">:</td><td><div>/antecedentesplataforma/confeccion/procesar/71088</div></td></tr><tr><td style="font-weight:bold;vertical-align:top;">utcnow</td><td style="vertical-align:top;">:</td><td><div>datetime.datetime(2019, 4, 19, 2, 3, 0, 925000)</div></td></tr><tr><td style="font-weight:bold;vertical-align:top;">wsgi</td><td style="vertical-align:top;">:</td><td><div>&lt;gluon.main.LazyWSGI object at 0x0320A370&gt;</div></td></tr></table></div>'
tRp70
sS'frames'
p71
(lp72
(dp73
S'file'
p74
S'D:\\web2py\\gluon\\restricted.py'
p75
sS'dump'
p76
(dp77
S'environment'
p78
S"{'A': <class 'gluon.html.A'>, 'ANY_OF': <class 'gluon.validators.ANY_OF'>, 'ASSIGNJS': <function ASSIGNJS>, 'AppConfig': <function AppConfig>, 'Auth': <class 'gluon.tools.Auth'>, 'B': <class 'gluon.html.B'>, 'BEAUTIFY': <class 'gluon.html.BEAUTIFY'>, 'BODY': <class 'gluon.html.BODY'>, 'BR': <class 'gluon.html.BR'>, 'BUTTON': <class 'gluon.html.BUTTON'>, ...}"
p79
sS'ccode'
p80
S'<code object <module> at 037CF2F0, file "D:\\web2...ons\\antecedentesplataforma\\models\\db.py", line 8>'
p81
ssS'lnum'
p82
I227
sS'lines'
p83
(dp84
I224
S'            ccode = code'
p85
sI225
S'        else:'
p86
sI226
S'            ccode = compile2(code, layer)'
p87
sI227
S'        exec ccode in environment'
p88
sI228
S'    except HTTP:'
p89
sI229
S'        raise'
p90
sI230
S'    except RestrictedError:'
p91
sI231
S'        # do not encapsulate (obfuscate) the original RestrictedError'
p92
sI222
S'    try:'
p93
sI223
S'        if isinstance(code, types.CodeType):'
p94
ssS'call'
p95
S'(code=\'# -*- coding: utf-8 -*-\\n\\n# ---------------------...nero.requires=IS_IN_SET(["S","C","D","V"])  \\n    \', environment={\'A\': <class \'gluon.html.A\'>, \'ANY_OF\': <class \'gluon.validators.ANY_OF\'>, \'ASSIGNJS\': <function ASSIGNJS>, \'AppConfig\': <function AppConfig>, \'Auth\': <class \'gluon.tools.Auth\'>, \'B\': <class \'gluon.html.B\'>, \'BEAUTIFY\': <class \'gluon.html.BEAUTIFY\'>, \'BODY\': <class \'gluon.html.BODY\'>, \'BR\': <class \'gluon.html.BR\'>, \'BUTTON\': <class \'gluon.html.BUTTON\'>, ...}, layer=r\'D:\\web2py\\applications\\antecedentesplataforma\\models\\db.py\')'
p96
sS'func'
p97
S'restricted'
p98
sa(dp99
g74
S'D:\\web2py\\applications\\antecedentesplataforma\\models\\db.py'
p100
sg76
(dp101
S'Field'
p102
S"<class 'pydal.objects.Field'>"
p103
ssg82
I191
sg83
(dp104
I192
S'    )'
p105
sI193
S"db.define_table('historial',"
p106
sI194
S"    Field('dni'),"
p107
sI195
S"    Field('pasaporte'),"
p108
sI186
S"    Field('solicitado_por',requires=IS_UPPER()),#ante las autoridades q lo requieran"
p109
sI187
S'    Field(\'capitalinterior\',requires=IS_IN_SET(["CAPITAL","INTERIOR",""]) ),'
p110
sI188
S"    Field('intervino',requires=IS_UPPER()),#usuario q carga"
p111
sI189
S"    Field('usuario',requires=IS_UPPER()),"
p112
sI190
S"    Field('ip_solicitante'),"
p113
sI191
S"    Field('ip_confeccion'),"
p114
ssg95
S'()'
p115
sg97
S'<module>'
p116
sa(dp117
g74
S'D:\\web2py\\gluon\\packages\\dal\\pydal\\base.py'
p118
sg76
(dp119
S'fields'
p120
S'(<pydal.objects.Field object>, <pydal.objects.Field object>, <pydal.objects.Field object>, <pydal.objects.Field object>, <pydal.objects.Field object>, <pydal.objects.Field object>, <pydal.objects.Field object>, <pydal.objects.Field object>, <pydal.objects.Field object>, <pydal.objects.Field object>, <pydal.objects.Field object>, <pydal.objects.Field object>, <pydal.objects.Field object>, <pydal.objects.Field object>, <pydal.objects.Field object>, <pydal.objects.Field object>)'
p121
sS'self'
p122
S'<DAL uri="sqlite://storage.sqlite">'
p123
sS'args'
p124
g21
sS'tablename'
p125
S"'solicitud'"
p126
sS'table'
p127
S'undefined'
p128
sS'self.lazy_define_table'
p129
S'<bound method DAL.lazy_define_table of <DAL uri="sqlite://storage.sqlite">>'
p130
ssg82
I834
sg83
(dp131
I832
S'            table = None'
p132
sI833
S'        else:'
p133
sI834
S'            table = self.lazy_define_table(tablename,*fields,**args)'
p134
sI835
S'        if not tablename in self.tables:'
p135
sI836
S'            self.tables.append(tablename)'
p136
sI837
S'        return table'
p137
sI838
S''
sI829
S'                    % (tablename,invalid_args))'
p138
sI830
S'        if self._lazy_tables and tablename not in self._LAZY_TABLES:'
p139
sI831
S'            self._LAZY_TABLES[tablename] = (tablename,fields,args)'
p140
ssg95
S'(self=<DAL uri="sqlite://storage.sqlite">, tablename=\'solicitud\', *fields=(<pydal.objects.Field object>, <pydal.objects.Field object>, <pydal.objects.Field object>, <pydal.objects.Field object>, <pydal.objects.Field object>, <pydal.objects.Field object>, <pydal.objects.Field object>, <pydal.objects.Field object>, <pydal.objects.Field object>, <pydal.objects.Field object>, <pydal.objects.Field object>, <pydal.objects.Field object>, <pydal.objects.Field object>, <pydal.objects.Field object>, <pydal.objects.Field object>, <pydal.objects.Field object>), **args={})'
p141
sg97
S'define_table'
p142
sa(dp143
g74
S'D:\\web2py\\gluon\\packages\\dal\\pydal\\base.py'
p144
sg76
(dp145
S'polymodel'
p146
S'None'
p147
ssg82
I873
sg83
(dp148
I868
S'            try:'
p149
sI869
S'                GLOBAL_LOCKER.acquire()'
p150
sI870
S'                self._lastsql = self._adapter.create_table('
p151
sI871
S'                    table,migrate=migrate,'
p152
sI872
S'                    fake_migrate=fake_migrate,'
p153
sI873
S'                    polymodel=polymodel)'
p154
sI874
S'            finally:'
p155
sI875
S'                GLOBAL_LOCKER.release()'
p156
sI876
S'        else:'
p157
sI877
S'            table._dbt = None'
p158
ssg95
S'(self=<DAL uri="sqlite://storage.sqlite">, tablename=\'solicitud\', *fields=(<pydal.objects.Field object>, <pydal.objects.Field object>, <pydal.objects.Field object>, <pydal.objects.Field object>, <pydal.objects.Field object>, <pydal.objects.Field object>, <pydal.objects.Field object>, <pydal.objects.Field object>, <pydal.objects.Field object>, <pydal.objects.Field object>, <pydal.objects.Field object>, <pydal.objects.Field object>, <pydal.objects.Field object>, <pydal.objects.Field object>, <pydal.objects.Field object>, <pydal.objects.Field object>), **args={})'
p159
sg97
S'lazy_define_table'
p160
sa(dp161
g74
S'D:\\web2py\\gluon\\packages\\dal\\pydal\\adapters\\base.py'
p162
sg76
(dp163
S'field_type'
p164
S"'int'"
p165
sS'field_name'
p166
S"'dni'"
p167
ssg82
I385
sg83
(dp168
I384
S"                raise SyntaxError('Field: unknown field type: %s for %s' % \\"
p169
sI385
S'                    (field_type, field_name))'
p170
sI386
S'            else:'
p171
sI387
S"                ftype = types[field_type] % {'length':field.length}"
p172
sI388
S''
sI389
S"            if not field_type.startswith(('id','reference', 'big-reference')):"
p173
sI380
S'                                         fieldname=field_name, srid=srid,'
p174
sI381
S'                                         dimension=dimension)'
p175
sI382
S'                    postcreation_fields.append(ftype)'
p176
sI383
S'            elif field_type not in types:'
p177
ssg95
S'(self=<pydal.adapters.sqlite.SQLiteAdapter object>, table=<Table solicitud (id, dni, apellido, nombre, gen...tervino, usuario, ip_solicitante, ip_confeccion)>, migrate=True, fake_migrate=False, polymodel=None)'
p178
sg97
S'create_table'
p179
sasS'pyver'
p180
S'Python 2.7.9: D:\\web2py\\web2py.exe (prefix: )'
p181
sS'session'
p182
g69
(S's\xf6\n\x00\x00<div><table><tr><td style="font-weight:bold;vertical-align:top;">auth</td><td style="vertical-align:top;">:</td><td><div><table><tr><td style="font-weight:bold;vertical-align:top;">expiration</td><td style="vertical-align:top;">:</td><td><div>3600</div></td></tr><tr><td style="font-weight:bold;vertical-align:top;">hmac_key</td><td style="vertical-align:top;">:</td><td><div>27a6026c-1088-4299-bfdd-86cdae3ed473</div></td></tr><tr><td style="font-weight:bold;vertical-align:top;">last_visit</td><td style="vertical-align:top;">:</td><td><div>datetime.datetime(2019, 4, 18, 23, 3, 0, 925000)</div></td></tr><tr><td style="font-weight:bold;vertical-align:top;">remember_me</td><td style="vertical-align:top;">:</td><td><div>False</div></td></tr><tr><td style="font-weight:bold;vertical-align:top;">user</td><td style="vertical-align:top;">:</td><td><div><table><tr><td style="font-weight:bold;vertical-align:top;">dni</td><td style="vertical-align:top;">:</td><td><div>29917029</div></td></tr><tr><td style="font-weight:bold;vertical-align:top;">email</td><td style="vertical-align:top;">:</td><td><div>juan@ulivar.com</div></td></tr><tr><td style="font-weight:bold;vertical-align:top;">first_name</td><td style="vertical-align:top;">:</td><td><div>juan</div></td></tr><tr><td style="font-weight:bold;vertical-align:top;">id</td><td style="vertical-align:top;">:</td><td><div>1L</div></td></tr><tr><td style="font-weight:bold;vertical-align:top;">iniciales</td><td style="vertical-align:top;">:</td><td><div>J.U.</div></td></tr><tr><td style="font-weight:bold;vertical-align:top;">last_name</td><td style="vertical-align:top;">:</td><td><div>ulivar</div></td></tr><tr><td style="font-weight:bold;vertical-align:top;">oficina</td><td style="vertical-align:top;">:</td><td><div>Super</div></td></tr><tr><td style="font-weight:bold;vertical-align:top;">registration_id</td><td style="vertical-align:top;">:</td><td><div></div></td></tr><tr><td style="font-weight:bold;vertical-align:top;">registration_key</td><td style="vertical-align:top;">:</td><td><div></div></td></tr><tr><td style="font-weight:bold;vertical-align:top;">reset_password_key</td><td style="vertical-align:top;">:</td><td><div></div></td></tr><tr><td style="font-weight:bold;vertical-align:top;">username</td><td style="vertical-align:top;">:</td><td><div>uli</div></td></tr></table></div></td></tr><tr><td style="font-weight:bold;vertical-align:top;">user_groups</td><td style="vertical-align:top;">:</td><td><div><table><tr><td style="font-weight:bold;vertical-align:top;">1</td><td style="vertical-align:top;">:</td><td><div>Super</div></td></tr></table></div></td></tr></table></div></td></tr><tr><td style="font-weight:bold;vertical-align:top;">flash</td><td style="vertical-align:top;">:</td><td><div>None</div></td></tr></table></div>'
tRp183
sS'etype'
p184
S"<type 'exceptions.SyntaxError'>"
p185
sS'date'
p186
S'Thu Apr 18 23:03:00 2019'
p187
sS'response'
p188
g69
(S's\xb8\x17\x00\x00<div><table><tr><td style="font-weight:bold;vertical-align:top;">body</td><td style="vertical-align:top;">:</td><td><div>&lt;cStringIO.StringO object at 0x034B1AE0&gt;</div></td></tr><tr><td style="font-weight:bold;vertical-align:top;">cookies</td><td style="vertical-align:top;">:</td><td><div><table><tr><td style="font-weight:bold;vertical-align:top;">session_id_antecedentesplataforma</td><td style="vertical-align:top;">:</td><td><div>127.0.0.1-1a14456a-a255-4383-bf58-4f7aa309f245<table><tr><td style="font-weight:bold;vertical-align:top;">comment</td><td style="vertical-align:top;">:</td><td><div></div></td></tr><tr><td style="font-weight:bold;vertical-align:top;">domain</td><td style="vertical-align:top;">:</td><td><div></div></td></tr><tr><td style="font-weight:bold;vertical-align:top;">expires</td><td style="vertical-align:top;">:</td><td><div></div></td></tr><tr><td style="font-weight:bold;vertical-align:top;">httponly</td><td style="vertical-align:top;">:</td><td><div></div></td></tr><tr><td style="font-weight:bold;vertical-align:top;">max-age</td><td style="vertical-align:top;">:</td><td><div></div></td></tr><tr><td style="font-weight:bold;vertical-align:top;">path</td><td style="vertical-align:top;">:</td><td><div>/</div></td></tr><tr><td style="font-weight:bold;vertical-align:top;">secure</td><td style="vertical-align:top;">:</td><td><div></div></td></tr><tr><td style="font-weight:bold;vertical-align:top;">version</td><td style="vertical-align:top;">:</td><td><div></div></td></tr></table></div></td></tr></table></div></td></tr><tr><td style="font-weight:bold;vertical-align:top;">delimiters</td><td style="vertical-align:top;">:</td><td><div><table><tr><td><div>{{</div></td></tr><tr><td><div>}}</div></td></tr></table></div></td></tr><tr><td style="font-weight:bold;vertical-align:top;">files</td><td style="vertical-align:top;">:</td><td><div><table></table></div></td></tr><tr><td style="font-weight:bold;vertical-align:top;">flash</td><td style="vertical-align:top;">:</td><td><div></div></td></tr><tr><td style="font-weight:bold;vertical-align:top;">form_label_separator</td><td style="vertical-align:top;">:</td><td><div></div></td></tr><tr><td style="font-weight:bold;vertical-align:top;">formstyle</td><td style="vertical-align:top;">:</td><td><div>bootstrap3_inline</div></td></tr><tr><td style="font-weight:bold;vertical-align:top;">generic_patterns</td><td style="vertical-align:top;">:</td><td><div><table><tr><td><div>*</div></td></tr></table></div></td></tr><tr><td style="font-weight:bold;vertical-align:top;">headers</td><td style="vertical-align:top;">:</td><td><div><table><tr><td style="font-weight:bold;vertical-align:top;">X-Powered-By</td><td style="vertical-align:top;">:</td><td><div>web2py</div></td></tr></table></div></td></tr><tr><td style="font-weight:bold;vertical-align:top;">menu</td><td style="vertical-align:top;">:</td><td><div><table></table></div></td></tr><tr><td style="font-weight:bold;vertical-align:top;">meta</td><td style="vertical-align:top;">:</td><td><div><table></table></div></td></tr><tr><td style="font-weight:bold;vertical-align:top;">models_to_run</td><td style="vertical-align:top;">:</td><td><div><table><tr><td><div>^\\w+\\.py$</div></td></tr><tr><td><div>^confeccion/\\w+\\.py$</div></td></tr><tr><td><div>^confeccion/procesar/\\w+\\.py$</div></td></tr></table></div></td></tr><tr><td style="font-weight:bold;vertical-align:top;">postprocessing</td><td style="vertical-align:top;">:</td><td><div><table></table></div></td></tr><tr><td style="font-weight:bold;vertical-align:top;">session_client</td><td style="vertical-align:top;">:</td><td><div>127.0.0.1</div></td></tr><tr><td style="font-weight:bold;vertical-align:top;">session_cookie_compression_level</td><td style="vertical-align:top;">:</td><td><div>None</div></td></tr><tr><td style="font-weight:bold;vertical-align:top;">session_cookie_expires</td><td style="vertical-align:top;">:</td><td><div>None</div></td></tr><tr><td style="font-weight:bold;vertical-align:top;">session_data_name</td><td style="vertical-align:top;">:</td><td><div>session_data_antecedentesplataforma</div></td></tr><tr><td style="font-weight:bold;vertical-align:top;">session_file</td><td style="vertical-align:top;">:</td><td><div>&lt;open file &#x27;D:\\\\web2py\\\\applications\\\\antecedentesplataforma\\\\sessions\\\\0f5\\\\05f\\\\127.0.0.1-1a14456a-a255-4383-bf58-4f7aa309f245&#x27;, mode &#x27;rb+&#x27; at 0x0316A9C0&gt;</div></td></tr><tr><td style="font-weight:bold;vertical-align:top;">session_filename</td><td style="vertical-align:top;">:</td><td><div>D:\\web2py\\applications\\antecedentesplataforma\\sessions\\127.0.0.1-1a14456a-a255-4383-bf58-4f7aa309f245</div></td></tr><tr><td style="font-weight:bold;vertical-align:top;">session_hash</td><td style="vertical-align:top;">:</td><td><div>7bf17e4c2eeb717f349c08fd66858724</div></td></tr><tr><td style="font-weight:bold;vertical-align:top;">session_id</td><td style="vertical-align:top;">:</td><td><div>127.0.0.1-1a14456a-a255-4383-bf58-4f7aa309f245</div></td></tr><tr><td style="font-weight:bold;vertical-align:top;">session_id_name</td><td style="vertical-align:top;">:</td><td><div>session_id_antecedentesplataforma</div></td></tr><tr><td style="font-weight:bold;vertical-align:top;">session_locked</td><td style="vertical-align:top;">:</td><td><div>True</div></td></tr><tr><td style="font-weight:bold;vertical-align:top;">session_masterapp</td><td style="vertical-align:top;">:</td><td><div>antecedentesplataforma</div></td></tr><tr><td style="font-weight:bold;vertical-align:top;">session_new</td><td style="vertical-align:top;">:</td><td><div>False</div></td></tr><tr><td style="font-weight:bold;vertical-align:top;">session_storage_type</td><td style="vertical-align:top;">:</td><td><div>file</div></td></tr><tr><td style="font-weight:bold;vertical-align:top;">status</td><td style="vertical-align:top;">:</td><td><div>200</div></td></tr><tr><td style="font-weight:bold;vertical-align:top;">view</td><td style="vertical-align:top;">:</td><td><div>confeccion/procesar.html</div></td></tr></table></div>'
tRp189
sS'locals'
p190
(dp191
S'postcreation_fields'
p192
S'[]'
p193
sS'field_type'
p194
S"'int'"
p195
sS'sortable'
p196
S'2'
sS'sql_fields_aux'
p197
S"{'id': {'sql': 'INTEGER PRIMARY KEY AUTOINCREMENT'}}"
p198
sS'TFK'
p199
g21
sS'migrate'
p200
S'True'
p201
sS'fields'
p202
S"['id INTEGER PRIMARY KEY AUTOINCREMENT']"
p203
sS'self'
p204
S'<pydal.adapters.sqlite.SQLiteAdapter object>'
p205
sS'tablename'
p206
S"'solicitud'"
p207
sS'fake_migrate'
p208
S'False'
p209
sS'db'
p210
S'<DAL uri="sqlite://storage.sqlite">'
p211
sS'field'
p212
S'<pydal.objects.Field object>'
p213
sS'ftype'
p214
S"'INTEGER PRIMARY KEY AUTOINCREMENT'"
p215
sS'polymodel'
p216
S'None'
p217
sS'table'
p218
S'<Table solicitud (id, dni, apellido, nombre, gen...tervino, usuario, ip_solicitante, ip_confeccion)>'
p219
sS'sql_fields'
p220
S"{'id': {'length': 512, 'notnull': False, 'sortable': 1, 'sql': 'INTEGER PRIMARY KEY AUTOINCREMENT', 'type': 'id', 'unique': False}}"
p221
sS'field_name'
p222
S"'dni'"
p223
sS'types'
p224
S"{'big-id': 'INTEGER PRIMARY KEY AUTOINCREMENT', 'big-reference': 'INTEGER REFERENCES %(foreign_key)s ON DELETE %(on_delete_action)s %(null)s %(unique)s', 'bigint': 'INTEGER', 'blob': 'BLOB', 'boolean': 'CHAR(1)', 'date': 'DATE', 'datetime': 'TIMESTAMP', 'decimal': 'DOUBLE', 'double': 'DOUBLE', 'float': 'DOUBLE', ...}"
p225
sssS'traceback'
p226
S'Traceback (most recent call last):\n  File "D:\\web2py\\gluon\\restricted.py", line 227, in restricted\n    exec ccode in environment\n  File "D:\\web2py\\applications\\antecedentesplataforma\\models\\db.py", line 191, in <module>\n    Field(\'ip_confeccion\'),\n  File "D:\\web2py\\gluon\\packages\\dal\\pydal\\base.py", line 834, in define_table\n    table = self.lazy_define_table(tablename,*fields,**args)\n  File "D:\\web2py\\gluon\\packages\\dal\\pydal\\base.py", line 873, in lazy_define_table\n    polymodel=polymodel)\n  File "D:\\web2py\\gluon\\packages\\dal\\pydal\\adapters\\base.py", line 385, in create_table\n    (field_type, field_name))\nSyntaxError: Field: unknown field type: int for dni\n'
p227
s.