(dp1
S'output'
p2
S"<type 'exceptions.ValueError'> invalid literal for long() with base 10: 'R.C.'"
p3
sS'layer'
p4
S'D:\\web2py\\applications\\antecedentesplataforma\\controllers/padron.py'
p5
sS'code'
p6
S'def form1():\n\n\treturn dict()\ndef sin():\n\tdnpa=request.args[0]#recojo los datos que vengo trayendo de dni\n\treturn dict(dnpa=dnpa)\ndef nuevo():\n\tdnpa=request.args[0]#recojo los datos que vengo trayendo de dni\n\tform = SQLFORM.factory(\n        Field(\'quees\', label=\'Dni/Pasaporte\',requires=IS_IN_SET(["DNI","PASAPORTE"])),\n        \n         )\n        if form.process().accepted:\n       \t\tresponse.flash = \'formulario aceptado\'\n       \t\tredirect(URL(c=\'padron\',f=\'form\',args=[form.vars.quees,dnpa,form.vars.genero,form.vars.estado_c]))\t   \t\t\n        \n       \t\t\t\n\treturn dict(form=form) \ndef form():\t\n\tfrom gluon.serializers import json\n\tquees=request.args[0]#si es dni o pasaporte\n\tdnpa=request.args[1]#recojo los datos que vengo trayendo de dni\n\tgenero=request.args[2]#recojo el genero\n\testado=request.args[3]#recojo el estado civil\n\t\n\tif quees =="DNI":\n\t\tdb.padron.DocumentoNro.default = dnpa\n\telse:\n\t\tdb.padron.Pasaporte.default=dnpa\n\tdb.padron.Genero.default = genero\n\tdb.padron.EstadoCivil.default = estado\n\t#db.padron.IdPais.default = 1\n\t#--Creo el formulario de carga para el expediente\n\tform = SQLFORM(db.padron,fields=["DocumentoNro","Pasaporte",\'Apellido\',\'Nombre\',"Genero",\'Clase\',\'Profesion\',\'Direccion\',\'Observaciones\'\n\t\t,\'IdProntuarioTipo\',"ProntuarioNro","EstadoCivil"])\n\t#formulario.add_button(\'Cancelar\', URL(\'../../asesoria/panel\'))\n\tif form.process().accepted:\n\t\tredirect(URL(c=\'entrada\',f=\'ingreso\'))\n\telif form.errors:\n\t\tresponse.flash=\'El formulario tiene errores\'\n\telse:\n\t\tresponse.flash = \'Debe completar el formulario\'\t\n\n\tpais=db(db.paises).select()\n\tpaises=json(pais)\n\treturn dict(form=form,quees=quees,estado=estado,paises=paises)\ndef modificar():\n\tdnpa=request.args[0]\n    \tclave={\'1\':"A.G.",\'2\':"C.I.",\'3\':"D.C.P",\'4\':"D.E",\'5\':"R.C",\'6\':"S.P.",\'0\':None}    \n    \tsetpa=db((db.padron.DocumentoNro==dnpa)|(db.padron.Pasaporte==dnpa)).select()\n    \ttiene=len(setpa)\n    \tif tiene==0:\n        \tredirect(URL(c=\'padron\',f=\'sin\',args=[dnpa]))#si no esta en la tabla padron redirecciona\n    \telse:#si esta en la tabla padron mustro los datos\n        \tfor x in setpa:\n            \t\tapellido=x.Apellido\n            \tnombre=x.Nombre\n            \ttipo=x.IdProntuarioTipo\n            \ttipo=str(tipo)#convierto a string\n            \ttipo=clave[tipo]#reemplazo en el diccionario para sacar el tipo a mostrar en el formulario\n            \ttipo=str(tipo)#paso a cadena el tipo de prontuario para mostrar en el formulario    \n            \tnprontuario=x.ProntuarioNro \n            \tgenero=x.Genero\n            \tide=x.id \n\treturn dict(dnpa=dnpa,apellido=apellido,nombre=nombre,tipo=tipo,nprontuario=nprontuario,genero=genero,ide=ide)\t\ndef form_modificar():\n\t\n\t\n\tide=request.args[0]\n\tset_padron=db(db.padron.id==ide).select().first()#realizo set para sacar los datos de la persona a modificar\n\tnom=set_padron.Nombre\n\tape=set_padron.Apellido\n\n\tdni=set_padron.DocumentoNro#saco el dni de la persona\n\tpasa=set_padron.Pasaporte#saco el pasaporte de la persona\n\ttipo=set_padron.IdProntuarioTipo#saco el id del tipo de prontuario\n\t#tipos=db(db.prontuario.)\n\tclave={\'1\':"A.G.",\'2\':"C.I.",\'3\':"D.C.P",\'4\':"D.E.",\'5\':"R.C.",\'6\':"S.P.",\'0\':None}#creodiccionarios para poner que tipo es el prontuario\n\tvalor={\'A.G.\':"1",\'C.I.\':"2",\'D.C.P.\':"3",\'D.E.\':"4",\'R.C.\':"5",\'S.P.\':"6",None:\'0\'}\n\ttipo=str(tipo)\n\ttipos=clave[tipo]#reemplazo en el diccionario para sacar el tipo a mostrar en el formulario\n\ttipos=str(tipos)\n\n\tpront=set_padron.ProntuarioNro#saco el nro de prontuario\n\tdirecc=set_padron.Direccion#saco la direccion\n\tsexo=set_padron.Genero #saco el genero\n\tprof=set_padron.Profesion#saco la profesion\n\te_civil=set_padron.EstadoCivil#saco el estado civil\n\tclase=set_padron.Clase#saco la clase\n\tpais=set_padron.IdPais#saco la nacionalidad\n\tpaises=db(db.paises.pais==pais).select()\n\n\n\n\n\tform=SQLFORM.factory(#realizo el formulario a mano\n\tField(\'dni\',\'integer\',label="Ingrese el Dni",requires=IS_NOT_EMPTY(error_message=\'El campo puede estar vac\xc3\xado\'),default=dni),\n\tField(\'pasaporte\',label="Ingrese el Pasaporte",default=pasa),\n\tField(\'tipo\',label="Tipo de Prontuario",requires=IS_IN_SET(["A.G.","C.I.","D.C.P.","D.E.","R.C.","S.P."],error_message=\'Error escoja una opcion\'),default=tipos),\n\tField(\'nprontuario\',\'integer\',label="N\xc2\xba de Prontuario",default=pront,),\n\tField(\'apellido\',label="Apellido",default=ape,requires=IS_UPPER()),\n\tField(\'nombre\',label=\'Nombre\',default=nom,requires=IS_UPPER()),\n\tField(\'domicilio\',label=\'Domicilio\',default=direcc,requires=IS_UPPER()),\n\tField(\'e_civil\',label=\'Estado Civil\',requires=IS_IN_SET(["S","C","D","V"],error_message=\'Error escoja\'),default=e_civil),\n\tField(\'clase\',\'int\',label=\'Clase\',requires=IS_INT_IN_RANGE(1900,2100,error_message=\'Error la clase debe ser ej: 1942\'),default=clase),\n\tField(\'profesion\',default=prof,requires=IS_UPPER()),\n\tField(\'pais\',label=\'Pais\',requires=IS_IN_DB(db,\'paises.id\', \'%(pais)s\',zero=T(\'Seleccione la Nacionalidad\'),error_message=\'Error Seleccione una Nacionalidad\'),default=pais),\n\tField(\'genero\',requires=IS_IN_SET(["M","F"]),default=sexo),\n\t)\n\tif form.accepts(request,session):\n\t\tset_padron.update_record(Nombre=form.vars.nombre,IdPais=form.vars.pais,Genero=form.vars.genero,EstadoCivil=form.vars.e_civil,Profesion=form.vars.profesion,\n\t\t\tDireccion=form.vars.domicilio,IdProntuarioTipo=form.vars.tipo,ProntuarioNro=form.vars.nprontuario,Clase=form.vars.clase)\n\treturn dict(ide=ide,ape=ape,nom=nom,form=form,dni=dni,tipo=tipo)\n\nresponse._vars=response._caller(form_modificar)\n'
p7
sS'snapshot'
p8
(dp9
S'exception'
p10
(dp11
S'__hash__'
p12
S"<method-wrapper '__hash__' of exceptions.ValueError object>"
p13
sS'__setattr__'
p14
S"<method-wrapper '__setattr__' of exceptions.ValueError object>"
p15
sS'__reduce_ex__'
p16
S'<built-in method __reduce_ex__ of exceptions.ValueError object>'
p17
sS'__getslice__'
p18
S"<method-wrapper '__getslice__' of exceptions.ValueError object>"
p19
sS'__getitem__'
p20
S"<method-wrapper '__getitem__' of exceptions.ValueError object>"
p21
sS'__setstate__'
p22
S'<built-in method __setstate__ of exceptions.ValueError object>'
p23
sS'__reduce__'
p24
S'<built-in method __reduce__ of exceptions.ValueError object>'
p25
sS'__str__'
p26
S"<method-wrapper '__str__' of exceptions.ValueError object>"
p27
sS'__format__'
p28
S'<built-in method __format__ of exceptions.ValueError object>'
p29
sS'__getattribute__'
p30
S"<method-wrapper '__getattribute__' of exceptions.ValueError object>"
p31
sS'__class__'
p32
S"<type 'exceptions.ValueError'>"
p33
sS'__unicode__'
p34
S'<built-in method __unicode__ of exceptions.ValueError object>'
p35
sS'__delattr__'
p36
S"<method-wrapper '__delattr__' of exceptions.ValueError object>"
p37
sS'__subclasshook__'
p38
S'<built-in method __subclasshook__ of type object>'
p39
sS'__repr__'
p40
S"<method-wrapper '__repr__' of exceptions.ValueError object>"
p41
sS'args'
p42
S'("invalid literal for long() with base 10: \'R.C.\'",)'
p43
sS'__dict__'
p44
S'{}'
p45
sS'__sizeof__'
p46
S'<built-in method __sizeof__ of exceptions.ValueError object>'
p47
sS'__doc__'
p48
S"'Inappropriate argument value (of correct type).'"
p49
sS'__init__'
p50
S"<method-wrapper '__init__' of exceptions.ValueError object>"
p51
sS'__new__'
p52
S'<built-in method __new__ of type object>'
p53
ssS'evalue'
p54
S"invalid literal for long() with base 10: 'R.C.'"
p55
sS'request'
p56
cgluon.html
XML_unpickle
p57
(S's%h\x00\x00<div><table><tr><td style="font-weight:bold;vertical-align:top;">ajax</td><td style="vertical-align:top;">:</td><td><div>False</div></td></tr><tr><td style="font-weight:bold;vertical-align:top;">application</td><td style="vertical-align:top;">:</td><td><div>antecedentesplataforma</div></td></tr><tr><td style="font-weight:bold;vertical-align:top;">args</td><td style="vertical-align:top;">:</td><td><div><table><tr><td><div>150519</div></td></tr></table></div></td></tr><tr><td style="font-weight:bold;vertical-align:top;">cid</td><td style="vertical-align:top;">:</td><td><div>None</div></td></tr><tr><td style="font-weight:bold;vertical-align:top;">client</td><td style="vertical-align:top;">:</td><td><div>127.0.0.1</div></td></tr><tr><td style="font-weight:bold;vertical-align:top;">controller</td><td style="vertical-align:top;">:</td><td><div>padron</div></td></tr><tr><td style="font-weight:bold;vertical-align:top;">cookies</td><td style="vertical-align:top;">:</td><td><div><table><tr><td style="font-weight:bold;vertical-align:top;">session_id_admin</td><td style="vertical-align:top;">:</td><td><div>127.0.0.1-4ead7f46-9855-44cf-9e07-b2f9c6a0ffb7<table><tr><td style="font-weight:bold;vertical-align:top;">comment</td><td style="vertical-align:top;">:</td><td><div></div></td></tr><tr><td style="font-weight:bold;vertical-align:top;">domain</td><td style="vertical-align:top;">:</td><td><div></div></td></tr><tr><td style="font-weight:bold;vertical-align:top;">expires</td><td style="vertical-align:top;">:</td><td><div></div></td></tr><tr><td style="font-weight:bold;vertical-align:top;">httponly</td><td style="vertical-align:top;">:</td><td><div></div></td></tr><tr><td style="font-weight:bold;vertical-align:top;">max-age</td><td style="vertical-align:top;">:</td><td><div></div></td></tr><tr><td style="font-weight:bold;vertical-align:top;">path</td><td style="vertical-align:top;">:</td><td><div></div></td></tr><tr><td style="font-weight:bold;vertical-align:top;">secure</td><td style="vertical-align:top;">:</td><td><div></div></td></tr><tr><td style="font-weight:bold;vertical-align:top;">version</td><td style="vertical-align:top;">:</td><td><div></div></td></tr></table></div></td></tr><tr><td style="font-weight:bold;vertical-align:top;">session_id_antecedentesplataforma</td><td style="vertical-align:top;">:</td><td><div>127.0.0.1-390b46e5-a4a2-4517-8622-1e39816bc2c7<table><tr><td style="font-weight:bold;vertical-align:top;">comment</td><td style="vertical-align:top;">:</td><td><div></div></td></tr><tr><td style="font-weight:bold;vertical-align:top;">domain</td><td style="vertical-align:top;">:</td><td><div></div></td></tr><tr><td style="font-weight:bold;vertical-align:top;">expires</td><td style="vertical-align:top;">:</td><td><div></div></td></tr><tr><td style="font-weight:bold;vertical-align:top;">httponly</td><td style="vertical-align:top;">:</td><td><div></div></td></tr><tr><td style="font-weight:bold;vertical-align:top;">max-age</td><td style="vertical-align:top;">:</td><td><div></div></td></tr><tr><td style="font-weight:bold;vertical-align:top;">path</td><td style="vertical-align:top;">:</td><td><div></div></td></tr><tr><td style="font-weight:bold;vertical-align:top;">secure</td><td style="vertical-align:top;">:</td><td><div></div></td></tr><tr><td style="font-weight:bold;vertical-align:top;">version</td><td style="vertical-align:top;">:</td><td><div></div></td></tr></table></div></td></tr><tr><td style="font-weight:bold;vertical-align:top;">session_id_welcome</td><td style="vertical-align:top;">:</td><td><div>127.0.0.1-5de0fc41-9152-4ff4-8ab4-057531632fdf<table><tr><td style="font-weight:bold;vertical-align:top;">comment</td><td style="vertical-align:top;">:</td><td><div></div></td></tr><tr><td style="font-weight:bold;vertical-align:top;">domain</td><td style="vertical-align:top;">:</td><td><div></div></td></tr><tr><td style="font-weight:bold;vertical-align:top;">expires</td><td style="vertical-align:top;">:</td><td><div></div></td></tr><tr><td style="font-weight:bold;vertical-align:top;">httponly</td><td style="vertical-align:top;">:</td><td><div></div></td></tr><tr><td style="font-weight:bold;vertical-align:top;">max-age</td><td style="vertical-align:top;">:</td><td><div></div></td></tr><tr><td style="font-weight:bold;vertical-align:top;">path</td><td style="vertical-align:top;">:</td><td><div></div></td></tr><tr><td style="font-weight:bold;vertical-align:top;">secure</td><td style="vertical-align:top;">:</td><td><div></div></td></tr><tr><td style="font-weight:bold;vertical-align:top;">version</td><td style="vertical-align:top;">:</td><td><div></div></td></tr></table></div></td></tr></table></div></td></tr><tr><td style="font-weight:bold;vertical-align:top;">env</td><td style="vertical-align:top;">:</td><td><div><table><tr><td style="font-weight:bold;vertical-align:top;">CONTENT_LENGTH</td><td style="vertical-align:top;">:</td><td><div>1512</div></td></tr><tr><td style="font-weight:bold;vertical-align:top;">CONTENT_TYPE</td><td style="vertical-align:top;">:</td><td><div>multipart/form-data; boundary=----WebKitFormBoundaryMWmkd7bBaIOypWfp</div></td></tr><tr><td style="font-weight:bold;vertical-align:top;">HTTP_ACCEPT</td><td style="vertical-align:top;">:</td><td><div>text/html,application/xhtml+xml,application/xml;q=0.9,image/webp,image/apng,*/*;q=0.8,application/signed-exchange;v=b3</div></td></tr><tr><td style="font-weight:bold;vertical-align:top;">HTTP_ACCEPT_ENCODING</td><td style="vertical-align:top;">:</td><td><div>gzip, deflate, br</div></td></tr><tr><td style="font-weight:bold;vertical-align:top;">HTTP_ACCEPT_LANGUAGE</td><td style="vertical-align:top;">:</td><td><div>es-ES,es;q=0.9,en;q=0.8,gl;q=0.7</div></td></tr><tr><td style="font-weight:bold;vertical-align:top;">HTTP_CACHE_CONTROL</td><td style="vertical-align:top;">:</td><td><div>max-age=0</div></td></tr><tr><td style="font-weight:bold;vertical-align:top;">HTTP_CONNECTION</td><td style="vertical-align:top;">:</td><td><div>keep-alive</div></td></tr><tr><td style="font-weight:bold;vertical-align:top;">HTTP_CONTENT_LENGTH</td><td style="vertical-align:top;">:</td><td><div>1512</div></td></tr><tr><td style="font-weight:bold;vertical-align:top;">HTTP_CONTENT_TYPE</td><td style="vertical-align:top;">:</td><td><div>multipart/form-data; boundary=----WebKitFormBoundaryMWmkd7bBaIOypWfp</div></td></tr><tr><td style="font-weight:bold;vertical-align:top;">HTTP_COOKIE</td><td style="vertical-align:top;">:</td><td><div>session_id_welcome=127.0.0.1-5de0fc41-9152-4ff4-8ab4-057531632fdf; session_id_admin=127.0.0.1-4ead7f46-9855-44cf-9e07-b2f9c6a0ffb7; session_id_antecedentesplataforma=127.0.0.1-390b46e5-a4a2-4517-8622-1e39816bc2c7</div></td></tr><tr><td style="font-weight:bold;vertical-align:top;">HTTP_HOST</td><td style="vertical-align:top;">:</td><td><div>127.0.0.1:8000</div></td></tr><tr><td style="font-weight:bold;vertical-align:top;">HTTP_ORIGIN</td><td style="vertical-align:top;">:</td><td><div>http://127.0.0.1:8000</div></td></tr><tr><td style="font-weight:bold;vertical-align:top;">HTTP_REFERER</td><td style="vertical-align:top;">:</td><td><div>http://127.0.0.1:8000/antecedentesplataforma/padron/form_modificar/150519</div></td></tr><tr><td style="font-weight:bold;vertical-align:top;">HTTP_SEC_FETCH_MODE</td><td style="vertical-align:top;">:</td><td><div>navigate</div></td></tr><tr><td style="font-weight:bold;vertical-align:top;">HTTP_SEC_FETCH_SITE</td><td style="vertical-align:top;">:</td><td><div>none</div></td></tr><tr><td style="font-weight:bold;vertical-align:top;">HTTP_SEC_FETCH_USER</td><td style="vertical-align:top;">:</td><td><div>?1</div></td></tr><tr><td style="font-weight:bold;vertical-align:top;">HTTP_UPGRADE_INSECURE_REQUESTS</td><td style="vertical-align:top;">:</td><td><div>1</div></td></tr><tr><td style="font-weight:bold;vertical-align:top;">HTTP_USER_AGENT</td><td style="vertical-align:top;">:</td><td><div>Mozilla/5.0 (Windows NT 6.1) AppleWebKit/537.36 (KHTML, like Gecko) Chrome/76.0.3809.132 Safari/537.36</div></td></tr><tr><td style="font-weight:bold;vertical-align:top;">PATH_INFO</td><td style="vertical-align:top;">:</td><td><div>/antecedentesplataforma/padron/form_modificar/150519</div></td></tr><tr><td style="font-weight:bold;vertical-align:top;">QUERY_STRING</td><td style="vertical-align:top;">:</td><td><div></div></td></tr><tr><td style="font-weight:bold;vertical-align:top;">REMOTE_ADDR</td><td style="vertical-align:top;">:</td><td><div>127.0.0.1</div></td></tr><tr><td style="font-weight:bold;vertical-align:top;">REMOTE_PORT</td><td style="vertical-align:top;">:</td><td><div>50402</div></td></tr><tr><td style="font-weight:bold;vertical-align:top;">REQUEST_METHOD</td><td style="vertical-align:top;">:</td><td><div>POST</div></td></tr><tr><td style="font-weight:bold;vertical-align:top;">SCRIPT_NAME</td><td style="vertical-align:top;">:</td><td><div></div></td></tr><tr><td style="font-weight:bold;vertical-align:top;">SERVER_NAME</td><td style="vertical-align:top;">:</td><td><div>HATAK3-PC</div></td></tr><tr><td style="font-weight:bold;vertical-align:top;">SERVER_PORT</td><td style="vertical-align:top;">:</td><td><div>8000</div></td></tr><tr><td style="font-weight:bold;vertical-align:top;">SERVER_PROTOCOL</td><td style="vertical-align:top;">:</td><td><div>HTTP/1.1</div></td></tr><tr><td style="font-weight:bold;vertical-align:top;">SERVER_SOFTWARE</td><td style="vertical-align:top;">:</td><td><div>Rocket 1.2.6</div></td></tr><tr><td style="font-weight:bold;vertical-align:top;">app_folders</td><td style="vertical-align:top;">:</td><td><div>set([&#x27;D:\\\\web2py\\\\applications\\\\admin\\\\&#x27;, &#x27;D:\\\\web2py\\\\applications\\\\welcome\\\\&#x27;, &#x27;D:\\\\web2py\\\\applications\\\\antecedentesplataforma\\\\&#x27;])</div></td></tr><tr><td style="font-weight:bold;vertical-align:top;">applications_parent</td><td style="vertical-align:top;">:</td><td><div>D:\\web2py</div></td></tr><tr><td style="font-weight:bold;vertical-align:top;">cmd_args</td><td style="vertical-align:top;">:</td><td><div><table></table></div></td></tr><tr><td style="font-weight:bold;vertical-align:top;">cmd_options</td><td style="vertical-align:top;">:</td><td><div>&lt;Values at 0x2609d00: {&#x27;verbose&#x27;: False, &#x27;ip&#x27;: &#x27;127.0.0.1&#x27;, &#x27;debuglevel&#x27;: 30, &#x27;with_scheduler&#x27;: False, &#x27;shutdown_timeout&#x27;: 5, &#x27;taskbar&#x27;: False, &#x27;with_coverage&#x27;: False, &#x27;pid_filename&#x27;: &#x27;httpserver.pid&#x27;, &#x27;maxthreads&#x27;: None, &#x27;softcron&#x27;: False, &#x27;server_name&#x27;: &#x27;HATAK3-PC&#x27;, &#x27;bpython&#x27;: False, &#x27;nogui&#x27;: False, &#x27;port&#x27;: 8000, &#x27;print_errors&#x27;: False, &#x27;extcron&#x27;: False, &#x27;runcron&#x27;: False, &#x27;run_system_tests&#x27;: False, &#x27;test&#x27;: None, &#x27;folder&#x27;: &#x27;D:\\\\web2py&#x27;, &#x27;config&#x27;: &#x27;&#x27;, &#x27;minthreads&#x27;: None, &#x27;shell&#x27;: None, &#x27;run&#x27;: &#x27;&#x27;, &#x27;log_filename&#x27;: &#x27;httpserver.log&#x27;, &#x27;profiler_dir&#x27;: None, &#x27;args&#x27;: [&#x27;&#x27;], &#x27;socket_timeout&#x27;: 5, &#x27;ssl_ca_certificate&#x27;: None, &#x27;scheduler&#x27;: None, &#x27;interfaces&#x27;: None, &#x27;ssl_private_key&#x27;: &#x27;&#x27;, &#x27;gae&#x27;: None, &#x27;password&#x27;: &#x27;******&#x27;, &#x27;request_queue_size&#x27;: 5, &#x27;ssl_certificate&#x27;: &#x27;&#x27;, &#x27;cronjob&#x27;: False, &#x27;numthreads&#x27;: None, &#x27;quiet&#x27;: False, &#x27;import_models&#x27;: False, &#x27;timeout&#x27;: 10, &#x27;plain&#x27;: False, &#x27;nobanner&#x27;: False}&gt;</div></td></tr><tr><td style="font-weight:bold;vertical-align:top;">content_length</td><td style="vertical-align:top;">:</td><td><div>1512</div></td></tr><tr><td style="font-weight:bold;vertical-align:top;">content_type</td><td style="vertical-align:top;">:</td><td><div>multipart/form-data; boundary=----WebKitFormBoundaryMWmkd7bBaIOypWfp</div></td></tr><tr><td style="font-weight:bold;vertical-align:top;">db_sessions</td><td style="vertical-align:top;">:</td><td><div>set([])</div></td></tr><tr><td style="font-weight:bold;vertical-align:top;">debugging</td><td style="vertical-align:top;">:</td><td><div>False</div></td></tr><tr><td style="font-weight:bold;vertical-align:top;">gluon_parent</td><td style="vertical-align:top;">:</td><td><div>D:\\web2py</div></td></tr><tr><td style="font-weight:bold;vertical-align:top;">http_accept</td><td style="vertical-align:top;">:</td><td><div>text/html,application/xhtml+xml,application/xml;q=0.9,image/webp,image/apng,*/*;q=0.8,application/signed-exchange;v=b3</div></td></tr><tr><td style="font-weight:bold;vertical-align:top;">http_accept_encoding</td><td style="vertical-align:top;">:</td><td><div>gzip, deflate, br</div></td></tr><tr><td style="font-weight:bold;vertical-align:top;">http_accept_language</td><td style="vertical-align:top;">:</td><td><div>es-ES,es;q=0.9,en;q=0.8,gl;q=0.7</div></td></tr><tr><td style="font-weight:bold;vertical-align:top;">http_cache_control</td><td style="vertical-align:top;">:</td><td><div>max-age=0</div></td></tr><tr><td style="font-weight:bold;vertical-align:top;">http_connection</td><td style="vertical-align:top;">:</td><td><div>keep-alive</div></td></tr><tr><td style="font-weight:bold;vertical-align:top;">http_content_length</td><td style="vertical-align:top;">:</td><td><div>1512</div></td></tr><tr><td style="font-weight:bold;vertical-align:top;">http_content_type</td><td style="vertical-align:top;">:</td><td><div>multipart/form-data; boundary=----WebKitFormBoundaryMWmkd7bBaIOypWfp</div></td></tr><tr><td style="font-weight:bold;vertical-align:top;">http_cookie</td><td style="vertical-align:top;">:</td><td><div>session_id_welcome=127.0.0.1-5de0fc41-9152-4ff4-8ab4-057531632fdf; session_id_admin=127.0.0.1-4ead7f46-9855-44cf-9e07-b2f9c6a0ffb7; session_id_antecedentesplataforma=127.0.0.1-390b46e5-a4a2-4517-8622-1e39816bc2c7</div></td></tr><tr><td style="font-weight:bold;vertical-align:top;">http_host</td><td style="vertical-align:top;">:</td><td><div>127.0.0.1:8000</div></td></tr><tr><td style="font-weight:bold;vertical-align:top;">http_origin</td><td style="vertical-align:top;">:</td><td><div>http://127.0.0.1:8000</div></td></tr><tr><td style="font-weight:bold;vertical-align:top;">http_referer</td><td style="vertical-align:top;">:</td><td><div>http://127.0.0.1:8000/antecedentesplataforma/padron/form_modificar/150519</div></td></tr><tr><td style="font-weight:bold;vertical-align:top;">http_sec_fetch_mode</td><td style="vertical-align:top;">:</td><td><div>navigate</div></td></tr><tr><td style="font-weight:bold;vertical-align:top;">http_sec_fetch_site</td><td style="vertical-align:top;">:</td><td><div>none</div></td></tr><tr><td style="font-weight:bold;vertical-align:top;">http_sec_fetch_user</td><td style="vertical-align:top;">:</td><td><div>?1</div></td></tr><tr><td style="font-weight:bold;vertical-align:top;">http_upgrade_insecure_requests</td><td style="vertical-align:top;">:</td><td><div>1</div></td></tr><tr><td style="font-weight:bold;vertical-align:top;">http_user_agent</td><td style="vertical-align:top;">:</td><td><div>Mozilla/5.0 (Windows NT 6.1) AppleWebKit/537.36 (KHTML, like Gecko) Chrome/76.0.3809.132 Safari/537.36</div></td></tr><tr><td style="font-weight:bold;vertical-align:top;">is_jython</td><td style="vertical-align:top;">:</td><td><div>False</div></td></tr><tr><td style="font-weight:bold;vertical-align:top;">is_pypy</td><td style="vertical-align:top;">:</td><td><div>False</div></td></tr><tr><td style="font-weight:bold;vertical-align:top;">is_source</td><td style="vertical-align:top;">:</td><td><div>False</div></td></tr><tr><td style="font-weight:bold;vertical-align:top;">local_hosts</td><td style="vertical-align:top;">:</td><td><div><table><tr><td><div>HATAK3-PC</div></td></tr><tr><td><div>HATAK3-PC.brazilfw.local</div></td></tr><tr><td><div>::ffff:127.0.0.1</div></td></tr><tr><td><div>::1</div></td></tr><tr><td><div>fe80::b435:4451:4e49:7820%11</div></td></tr><tr><td><div>10.70.0.5</div></td></tr><tr><td><div>127.0.0.1</div></td></tr></table></div></td></tr><tr><td style="font-weight:bold;vertical-align:top;">path_info</td><td style="vertical-align:top;">:</td><td><div>/antecedentesplataforma/padron/form_modificar/150519</div></td></tr><tr><td style="font-weight:bold;vertical-align:top;">query_string</td><td style="vertical-align:top;">:</td><td><div></div></td></tr><tr><td style="font-weight:bold;vertical-align:top;">remote_addr</td><td style="vertical-align:top;">:</td><td><div>127.0.0.1</div></td></tr><tr><td style="font-weight:bold;vertical-align:top;">remote_port</td><td style="vertical-align:top;">:</td><td><div>50402</div></td></tr><tr><td style="font-weight:bold;vertical-align:top;">request_method</td><td style="vertical-align:top;">:</td><td><div>POST</div></td></tr><tr><td style="font-weight:bold;vertical-align:top;">request_uri</td><td style="vertical-align:top;">:</td><td><div>/antecedentesplataforma/padron/form_modificar/150519</div></td></tr><tr><td style="font-weight:bold;vertical-align:top;">script_name</td><td style="vertical-align:top;">:</td><td><div></div></td></tr><tr><td style="font-weight:bold;vertical-align:top;">server_name</td><td style="vertical-align:top;">:</td><td><div>HATAK3-PC</div></td></tr><tr><td style="font-weight:bold;vertical-align:top;">server_port</td><td style="vertical-align:top;">:</td><td><div>8000</div></td></tr><tr><td style="font-weight:bold;vertical-align:top;">server_protocol</td><td style="vertical-align:top;">:</td><td><div>HTTP/1.1</div></td></tr><tr><td style="font-weight:bold;vertical-align:top;">server_software</td><td style="vertical-align:top;">:</td><td><div>Rocket 1.2.6</div></td></tr><tr><td style="font-weight:bold;vertical-align:top;">web2py_path</td><td style="vertical-align:top;">:</td><td><div>D:\\web2py</div></td></tr><tr><td style="font-weight:bold;vertical-align:top;">web2py_version</td><td style="vertical-align:top;">:</td><td><div>2.14.6-stable+timestamp.2016.05.10.00.21.47</div></td></tr><tr><td style="font-weight:bold;vertical-align:top;">wsgi.errors</td><td style="vertical-align:top;">:</td><td><div>&lt;open file &#x27;&lt;stderr&gt;&#x27;, mode &#x27;w&#x27; at 0x0116D0D0&gt;</div></td></tr><tr><td style="font-weight:bold;vertical-align:top;">wsgi.file_wrapper</td><td style="vertical-align:top;">:</td><td><div>&lt;class wsgiref.util.FileWrapper at 0x02542420&gt;</div></td></tr><tr><td style="font-weight:bold;vertical-align:top;">wsgi.input</td><td style="vertical-align:top;">:</td><td><div>&lt;socket._fileobject object at 0x040D59F0&gt;</div></td></tr><tr><td style="font-weight:bold;vertical-align:top;">wsgi.multiprocess</td><td style="vertical-align:top;">:</td><td><div>False</div></td></tr><tr><td style="font-weight:bold;vertical-align:top;">wsgi.multithread</td><td style="vertical-align:top;">:</td><td><div>True</div></td></tr><tr><td style="font-weight:bold;vertical-align:top;">wsgi.run_once</td><td style="vertical-align:top;">:</td><td><div>False</div></td></tr><tr><td style="font-weight:bold;vertical-align:top;">wsgi.url_scheme</td><td style="vertical-align:top;">:</td><td><div>http</div></td></tr><tr><td style="font-weight:bold;vertical-align:top;">wsgi.version</td><td style="vertical-align:top;">:</td><td><div><table><tr><td><div>1</div></td></tr><tr><td><div>0</div></td></tr></table></div></td></tr><tr><td style="font-weight:bold;vertical-align:top;">wsgi_errors</td><td style="vertical-align:top;">:</td><td><div>&lt;open file &#x27;&lt;stderr&gt;&#x27;, mode &#x27;w&#x27; at 0x0116D0D0&gt;</div></td></tr><tr><td style="font-weight:bold;vertical-align:top;">wsgi_file_wrapper</td><td style="vertical-align:top;">:</td><td><div>&lt;class wsgiref.util.FileWrapper at 0x02542420&gt;</div></td></tr><tr><td style="font-weight:bold;vertical-align:top;">wsgi_input</td><td style="vertical-align:top;">:</td><td><div>&lt;socket._fileobject object at 0x040D59F0&gt;</div></td></tr><tr><td style="font-weight:bold;vertical-align:top;">wsgi_multiprocess</td><td style="vertical-align:top;">:</td><td><div>False</div></td></tr><tr><td style="font-weight:bold;vertical-align:top;">wsgi_multithread</td><td style="vertical-align:top;">:</td><td><div>True</div></td></tr><tr><td style="font-weight:bold;vertical-align:top;">wsgi_run_once</td><td style="vertical-align:top;">:</td><td><div>False</div></td></tr><tr><td style="font-weight:bold;vertical-align:top;">wsgi_url_scheme</td><td style="vertical-align:top;">:</td><td><div>http</div></td></tr><tr><td style="font-weight:bold;vertical-align:top;">wsgi_version</td><td style="vertical-align:top;">:</td><td><div><table><tr><td><div>1</div></td></tr><tr><td><div>0</div></td></tr></table></div></td></tr></table></div></td></tr><tr><td style="font-weight:bold;vertical-align:top;">extension</td><td style="vertical-align:top;">:</td><td><div>html</div></td></tr><tr><td style="font-weight:bold;vertical-align:top;">folder</td><td style="vertical-align:top;">:</td><td><div>D:\\web2py\\applications\\antecedentesplataforma\\</div></td></tr><tr><td style="font-weight:bold;vertical-align:top;">function</td><td style="vertical-align:top;">:</td><td><div>form_modificar</div></td></tr><tr><td style="font-weight:bold;vertical-align:top;">global_settings</td><td style="vertical-align:top;">:</td><td><div><table><tr><td style="font-weight:bold;vertical-align:top;">app_folders</td><td style="vertical-align:top;">:</td><td><div>set([&#x27;D:\\\\web2py\\\\applications\\\\admin\\\\&#x27;, &#x27;D:\\\\web2py\\\\applications\\\\welcome\\\\&#x27;, &#x27;D:\\\\web2py\\\\applications\\\\antecedentesplataforma\\\\&#x27;])</div></td></tr><tr><td style="font-weight:bold;vertical-align:top;">applications_parent</td><td style="vertical-align:top;">:</td><td><div>D:\\web2py</div></td></tr><tr><td style="font-weight:bold;vertical-align:top;">cmd_args</td><td style="vertical-align:top;">:</td><td><div><table></table></div></td></tr><tr><td style="font-weight:bold;vertical-align:top;">cmd_options</td><td style="vertical-align:top;">:</td><td><div>&lt;Values at 0x2609d00: {&#x27;verbose&#x27;: False, &#x27;ip&#x27;: &#x27;127.0.0.1&#x27;, &#x27;debuglevel&#x27;: 30, &#x27;with_scheduler&#x27;: False, &#x27;shutdown_timeout&#x27;: 5, &#x27;taskbar&#x27;: False, &#x27;with_coverage&#x27;: False, &#x27;pid_filename&#x27;: &#x27;httpserver.pid&#x27;, &#x27;maxthreads&#x27;: None, &#x27;softcron&#x27;: False, &#x27;server_name&#x27;: &#x27;HATAK3-PC&#x27;, &#x27;bpython&#x27;: False, &#x27;nogui&#x27;: False, &#x27;port&#x27;: 8000, &#x27;print_errors&#x27;: False, &#x27;extcron&#x27;: False, &#x27;runcron&#x27;: False, &#x27;run_system_tests&#x27;: False, &#x27;test&#x27;: None, &#x27;folder&#x27;: &#x27;D:\\\\web2py&#x27;, &#x27;config&#x27;: &#x27;&#x27;, &#x27;minthreads&#x27;: None, &#x27;shell&#x27;: None, &#x27;run&#x27;: &#x27;&#x27;, &#x27;log_filename&#x27;: &#x27;httpserver.log&#x27;, &#x27;profiler_dir&#x27;: None, &#x27;args&#x27;: [&#x27;&#x27;], &#x27;socket_timeout&#x27;: 5, &#x27;ssl_ca_certificate&#x27;: None, &#x27;scheduler&#x27;: None, &#x27;interfaces&#x27;: None, &#x27;ssl_private_key&#x27;: &#x27;&#x27;, &#x27;gae&#x27;: None, &#x27;password&#x27;: &#x27;******&#x27;, &#x27;request_queue_size&#x27;: 5, &#x27;ssl_certificate&#x27;: &#x27;&#x27;, &#x27;cronjob&#x27;: False, &#x27;numthreads&#x27;: None, &#x27;quiet&#x27;: False, &#x27;import_models&#x27;: False, &#x27;timeout&#x27;: 10, &#x27;plain&#x27;: False, &#x27;nobanner&#x27;: False}&gt;</div></td></tr><tr><td style="font-weight:bold;vertical-align:top;">db_sessions</td><td style="vertical-align:top;">:</td><td><div>set([])</div></td></tr><tr><td style="font-weight:bold;vertical-align:top;">debugging</td><td style="vertical-align:top;">:</td><td><div>False</div></td></tr><tr><td style="font-weight:bold;vertical-align:top;">gluon_parent</td><td style="vertical-align:top;">:</td><td><div>D:\\web2py</div></td></tr><tr><td style="font-weight:bold;vertical-align:top;">is_jython</td><td style="vertical-align:top;">:</td><td><div>False</div></td></tr><tr><td style="font-weight:bold;vertical-align:top;">is_pypy</td><td style="vertical-align:top;">:</td><td><div>False</div></td></tr><tr><td style="font-weight:bold;vertical-align:top;">is_source</td><td style="vertical-align:top;">:</td><td><div>False</div></td></tr><tr><td style="font-weight:bold;vertical-align:top;">local_hosts</td><td style="vertical-align:top;">:</td><td><div><table><tr><td><div>HATAK3-PC</div></td></tr><tr><td><div>HATAK3-PC.brazilfw.local</div></td></tr><tr><td><div>::ffff:127.0.0.1</div></td></tr><tr><td><div>::1</div></td></tr><tr><td><div>fe80::b435:4451:4e49:7820%11</div></td></tr><tr><td><div>10.70.0.5</div></td></tr><tr><td><div>127.0.0.1</div></td></tr></table></div></td></tr><tr><td style="font-weight:bold;vertical-align:top;">web2py_version</td><td style="vertical-align:top;">:</td><td><div>2.14.6-stable+timestamp.2016.05.10.00.21.47</div></td></tr></table></div></td></tr><tr><td style="font-weight:bold;vertical-align:top;">is_https</td><td style="vertical-align:top;">:</td><td><div>False</div></td></tr><tr><td style="font-weight:bold;vertical-align:top;">is_local</td><td style="vertical-align:top;">:</td><td><div>True</div></td></tr><tr><td style="font-weight:bold;vertical-align:top;">is_restful</td><td style="vertical-align:top;">:</td><td><div>False</div></td></tr><tr><td style="font-weight:bold;vertical-align:top;">is_scheduler</td><td style="vertical-align:top;">:</td><td><div>False</div></td></tr><tr><td style="font-weight:bold;vertical-align:top;">is_shell</td><td style="vertical-align:top;">:</td><td><div>False</div></td></tr><tr><td style="font-weight:bold;vertical-align:top;">now</td><td style="vertical-align:top;">:</td><td><div>datetime.datetime(2019, 9, 6, 10, 34, 54, 235000)</div></td></tr><tr><td style="font-weight:bold;vertical-align:top;">raw_args</td><td style="vertical-align:top;">:</td><td><div>150519</div></td></tr><tr><td style="font-weight:bold;vertical-align:top;">raw_extension</td><td style="vertical-align:top;">:</td><td><div>None</div></td></tr><tr><td style="font-weight:bold;vertical-align:top;">url</td><td style="vertical-align:top;">:</td><td><div>/antecedentesplataforma/padron/form_modificar/150519</div></td></tr><tr><td style="font-weight:bold;vertical-align:top;">utcnow</td><td style="vertical-align:top;">:</td><td><div>datetime.datetime(2019, 9, 6, 13, 34, 54, 235000)</div></td></tr><tr><td style="font-weight:bold;vertical-align:top;">wsgi</td><td style="vertical-align:top;">:</td><td><div>&lt;gluon.main.LazyWSGI object at 0x037B4BD0&gt;</div></td></tr></table></div>'
tRp58
sS'frames'
p59
(lp60
(dp61
S'file'
p62
S'D:\\web2py\\gluon\\restricted.py'
p63
sS'dump'
p64
(dp65
S'environment'
p66
S"{'A': <class 'gluon.html.A'>, 'ANY_OF': <class 'gluon.validators.ANY_OF'>, 'ASSIGNJS': <function ASSIGNJS>, 'AppConfig': <function AppConfig>, 'Auth': <class 'gluon.tools.Auth'>, 'B': <class 'gluon.html.B'>, 'BEAUTIFY': <class 'gluon.html.BEAUTIFY'>, 'BODY': <class 'gluon.html.BODY'>, 'BR': <class 'gluon.html.BR'>, 'BUTTON': <class 'gluon.html.BUTTON'>, ...}"
p67
sS'ccode'
p68
S'<code object <module> at 03E44920, file "D:\\web2...edentesplataforma\\controllers/padron.py", line 1>'
p69
ssS'lnum'
p70
I227
sS'lines'
p71
(dp72
I224
S'            ccode = code'
p73
sI225
S'        else:'
p74
sI226
S'            ccode = compile2(code, layer)'
p75
sI227
S'        exec ccode in environment'
p76
sI228
S'    except HTTP:'
p77
sI229
S'        raise'
p78
sI230
S'    except RestrictedError:'
p79
sI231
S'        # do not encapsulate (obfuscate) the original RestrictedError'
p80
sI222
S'    try:'
p81
sI223
S'        if isinstance(code, types.CodeType):'
p82
ssS'call'
p83
S"(code='def form1():\\n\\n\\treturn dict()\\ndef sin():\\n\\tdnpa=re...\\nresponse._vars=response._caller(form_modificar)\\n', environment={'A': <class 'gluon.html.A'>, 'ANY_OF': <class 'gluon.validators.ANY_OF'>, 'ASSIGNJS': <function ASSIGNJS>, 'AppConfig': <function AppConfig>, 'Auth': <class 'gluon.tools.Auth'>, 'B': <class 'gluon.html.B'>, 'BEAUTIFY': <class 'gluon.html.BEAUTIFY'>, 'BODY': <class 'gluon.html.BODY'>, 'BR': <class 'gluon.html.BR'>, 'BUTTON': <class 'gluon.html.BUTTON'>, ...}, layer=r'D:\\web2py\\applications\\antecedentesplataforma\\controllers/padron.py')"
p84
sS'func'
p85
S'restricted'
p86
sa(dp87
g62
S'D:\\web2py\\applications\\antecedentesplataforma\\controllers\\padron.py'
p88
sg64
(dp89
sg70
I115
sg71
(dp90
I104
S'\tField(\'e_civil\',label=\'Estado Civil\',requires=IS_IN_SET(["S","C","D","V"],error_message=\'Error escoja\'),default=e_civil),'
p91
sI105
S"\tField('clase','int',label='Clase',requires=IS_INT_IN_RANGE(1900,2100,error_message='Error la clase debe ser ej: 1942'),default=clase),"
p92
sI106
S"\tField('profesion',default=prof,requires=IS_UPPER()),"
p93
sI107
S"\tField('pais',label='Pais',requires=IS_IN_DB(db,'paises.id', '%(pais)s',zero=T('Seleccione la Nacionalidad'),error_message='Error Seleccione una Nacionalidad'),default=pais),"
p94
sI108
S'\tField(\'genero\',requires=IS_IN_SET(["M","F"]),default=sexo),'
p95
sI109
S'\t)'
p96
sI110
S'\tif form.accepts(request,session):'
p97
sI111
S'\t\tset_padron.update_record(Nombre=form.vars.nombre,IdPais=form.vars.pais,Genero=form.vars.genero,EstadoCivil=form.vars.e_civil,Profesion=form.vars.profesion,'
p98
sI112
S'\t\t\tDireccion=form.vars.domicilio,IdProntuarioTipo=form.vars.tipo,ProntuarioNro=form.vars.nprontuario,Clase=form.vars.clase)'
p99
sI113
S'\treturn dict(ide=ide,ape=ape,nom=nom,form=form,dni=dni,tipo=tipo)'
p100
ssg83
S'()'
p101
sg85
S'<module>'
p102
sa(dp103
g62
S'D:\\web2py\\gluon\\globals.py'
p104
sg64
(dp105
S'self'
p106
S'undefined'
p107
sS'f'
S'<function form_modificar>'
p108
ssg70
I417
sg71
(dp109
I416
S'        self._vars = None'
p110
sI417
S'        self._caller = lambda f: f()'
p111
sI418
S'        self._view_environment = None'
p112
sI419
S'        self._custom_commit = None'
p113
sI420
S'        self._custom_rollback = None'
p114
sI421
S"        self.generic_patterns = ['*']"
p115
sI412
S"        self.flash = ''            # used by the default view layout"
p116
sI413
S'        self.meta = Storage()      # used by web2py_ajax.html'
p117
sI414
S'        self.menu = []             # used by the default view layout'
p118
sI415
S'        self.files = []            # used by web2py_ajax.html'
p119
ssg83
S'(f=<function form_modificar>)'
p120
sg85
S'<lambda>'
p121
sa(dp122
g62
S'D:\\web2py\\applications\\antecedentesplataforma\\controllers\\padron.py'
p123
sg64
(dp124
sg70
I112
sg71
(dp125
I104
S'\tField(\'e_civil\',label=\'Estado Civil\',requires=IS_IN_SET(["S","C","D","V"],error_message=\'Error escoja\'),default=e_civil),'
p126
sI105
S"\tField('clase','int',label='Clase',requires=IS_INT_IN_RANGE(1900,2100,error_message='Error la clase debe ser ej: 1942'),default=clase),"
p127
sI106
S"\tField('profesion',default=prof,requires=IS_UPPER()),"
p128
sI107
S"\tField('pais',label='Pais',requires=IS_IN_DB(db,'paises.id', '%(pais)s',zero=T('Seleccione la Nacionalidad'),error_message='Error Seleccione una Nacionalidad'),default=pais),"
p129
sI108
S'\tField(\'genero\',requires=IS_IN_SET(["M","F"]),default=sexo),'
p130
sI109
S'\t)'
p131
sI110
S'\tif form.accepts(request,session):'
p132
sI111
S'\t\tset_padron.update_record(Nombre=form.vars.nombre,IdPais=form.vars.pais,Genero=form.vars.genero,EstadoCivil=form.vars.e_civil,Profesion=form.vars.profesion,'
p133
sI112
S'\t\t\tDireccion=form.vars.domicilio,IdProntuarioTipo=form.vars.tipo,ProntuarioNro=form.vars.nprontuario,Clase=form.vars.clase)'
p134
sI113
S'\treturn dict(ide=ide,ape=ape,nom=nom,form=form,dni=dni,tipo=tipo)'
p135
ssg83
S'()'
p136
sg85
S'form_modificar'
p137
sa(dp138
g62
S'D:\\web2py\\gluon\\packages\\dal\\pydal\\helpers\\classes.py'
p139
sg64
(dp140
S'newfields'
p141
S"{'Clase': 1982, 'Direccion': 'B\\xc2\\xb0 LA VI\\xc3\\x91ITA C/LOS REGIONALES N\\xc2\\xb0 2311-CAP.-CTCA.', 'EstadoCivil': 'S', 'Genero': 'M', 'IdPais': 2, 'IdProntuarioTipo': 'R.C.', 'Nombre': 'JUAN ANTONIO', 'Profesion': 'DOCENTE', 'ProntuarioNro': 164440}"
p142
ssg70
I245
sg71
(dp143
I240
S'        newfields = fields or dict(colset)'
p144
sI241
S'        for fieldname in list(newfields.keys()):'
p145
sI242
S"            if fieldname not in table.fields or table[fieldname].type == 'id':"
p146
sI243
S'                del newfields[fieldname]'
p147
sI244
S'        table._db(table._id == id, ignore_common_filters=True).update('
p148
sI245
S'            **newfields'
p149
sI246
S'        )'
p150
sI247
S'        colset.update(newfields)'
p151
sI248
S'        return colset'
p152
sI249
S''
ssg83
S"(self=<pydal.helpers.classes.RecordUpdater object>, **fields={'Clase': 1982, 'Direccion': 'B\\xc2\\xb0 LA VI\\xc3\\x91ITA C/LOS REGIONALES N\\xc2\\xb0 2311-CAP.-CTCA.', 'EstadoCivil': 'S', 'Genero': 'M', 'IdPais': 2, 'IdProntuarioTipo': 'R.C.', 'Nombre': 'JUAN ANTONIO', 'Profesion': 'DOCENTE', 'ProntuarioNro': 164440})"
p153
sg85
S'__call__'
p154
sa(dp155
g62
S'D:\\web2py\\gluon\\packages\\dal\\pydal\\objects.py'
p156
sg64
(dp157
S'table._tablename'
p158
S"'padron'"
p159
sS'db._adapter'
p160
S'<pydal.adapters.sqlite.SQLiteAdapter object>'
p161
sS'fields'
p162
S"[(<pydal.objects.Field object>, 2), (<pydal.objects.Field object>, 'DOCENTE'), (<pydal.objects.Field object>, 'M'), (<pydal.objects.Field object>, 164440), (<pydal.objects.Field object>, 1982), (<pydal.objects.Field object>, 'B\\xc2\\xb0 LA VI\\xc3\\x91ITA C/LOS REGIONALES N\\xc2\\xb0 2311-CAP.-CTCA.'), (<pydal.objects.Field object>, 'S'), (<pydal.objects.Field object>, 'R.C.'), (<pydal.objects.Field object>, 'JUAN ANTONIO')]"
p163
sS'self'
p164
S'<Set (padron.id = 150519)>'
p165
sS'db'
p166
S'<DAL uri="sqlite://storage.sqlite">'
p167
sS'self.query'
p168
S'<Query (padron.id = 150519)>'
p169
sS'ret'
p170
g107
sS'table'
p171
S'<Table padron (id, Apellido, Nombre, Clase, Docu... IdProntuarioTipo, ProntuarioNro, Observaciones)>'
p172
sS'db._adapter.update'
p173
S'<bound method SQLiteAdapter.update of <pydal.adapters.sqlite.SQLiteAdapter object>>'
p174
ssg70
I2054
sg71
(dp175
I2049
S'        if any(f(self, update_fields) for f in table._before_update):'
p176
sI2050
S'            return 0'
p177
sI2051
S'        fields = table._listify(update_fields, update=True)'
p178
sI2052
S'        if not fields:'
p179
sI2053
S'            raise SyntaxError("No fields to update")'
p180
sI2054
S'        ret = db._adapter.update("%s" % table._tablename, self.query, fields)'
p181
sI2055
S'        ret and [f(self, update_fields) for f in table._after_update]'
p182
sI2056
S'        return ret'
p183
sI2057
S''
sI2058
S'    def update_naive(self, **update_fields):'
p184
ssg83
S"(self=<Set (padron.id = 150519)>, **update_fields={'Clase': 1982, 'Direccion': 'B\\xc2\\xb0 LA VI\\xc3\\x91ITA C/LOS REGIONALES N\\xc2\\xb0 2311-CAP.-CTCA.', 'EstadoCivil': 'S', 'Genero': 'M', 'IdPais': 2, 'IdProntuarioTipo': 'R.C.', 'Nombre': 'JUAN ANTONIO', 'Profesion': 'DOCENTE', 'ProntuarioNro': 164440})"
p185
sg85
S'update'
p186
sa(dp187
g62
S'D:\\web2py\\gluon\\packages\\dal\\pydal\\adapters\\base.py'
p188
sg64
(dp189
S'self._update'
p190
S'<bound method SQLiteAdapter._update of <pydal.adapters.sqlite.SQLiteAdapter object>>'
p191
sS'fields'
p192
S"[(<pydal.objects.Field object>, 2), (<pydal.objects.Field object>, 'DOCENTE'), (<pydal.objects.Field object>, 'M'), (<pydal.objects.Field object>, 164440), (<pydal.objects.Field object>, 1982), (<pydal.objects.Field object>, 'B\\xc2\\xb0 LA VI\\xc3\\x91ITA C/LOS REGIONALES N\\xc2\\xb0 2311-CAP.-CTCA.'), (<pydal.objects.Field object>, 'S'), (<pydal.objects.Field object>, 'R.C.'), (<pydal.objects.Field object>, 'JUAN ANTONIO')]"
p193
sS'self'
p194
S'<pydal.adapters.sqlite.SQLiteAdapter object>'
p195
sS'tablename'
p196
S"'padron'"
p197
sS'sql'
p198
g107
sS'query'
p199
S'<Query (padron.id = 150519)>'
p200
ssg70
I1023
sg71
(dp201
I1024
S'        try:'
p202
sI1025
S'            self.execute(sql)'
p203
sI1026
S'        except Exception:'
p204
sI1027
S'            e = sys.exc_info()[1]'
p205
sI1018
S'                              for (field, value) in fields])'
p206
sI1019
S'        tablename = self.db[tablename].sqlsafe'
p207
sI1020
S"        return 'UPDATE %s SET %s%s;' % (tablename, sql_v, sql_w)"
p208
sI1021
S''
sI1022
S'    def update(self, tablename, query, fields):'
p209
sI1023
S'        sql = self._update(tablename, query, fields)'
p210
ssg83
S"(self=<pydal.adapters.sqlite.SQLiteAdapter object>, tablename='padron', query=<Query (padron.id = 150519)>, fields=[(<pydal.objects.Field object>, 2), (<pydal.objects.Field object>, 'DOCENTE'), (<pydal.objects.Field object>, 'M'), (<pydal.objects.Field object>, 164440), (<pydal.objects.Field object>, 1982), (<pydal.objects.Field object>, 'B\\xc2\\xb0 LA VI\\xc3\\x91ITA C/LOS REGIONALES N\\xc2\\xb0 2311-CAP.-CTCA.'), (<pydal.objects.Field object>, 'S'), (<pydal.objects.Field object>, 'R.C.'), (<pydal.objects.Field object>, 'JUAN ANTONIO')])"
p211
sg85
g186
sa(dp212
g62
S'D:\\web2py\\gluon\\packages\\dal\\pydal\\adapters\\base.py'
p213
sg64
(dp214
S'field'
p215
S'<pydal.objects.Field object>'
p216
sS'value'
p217
S"'R.C.'"
p218
sS'fields'
p219
S"[(<pydal.objects.Field object>, 2), (<pydal.objects.Field object>, 'DOCENTE'), (<pydal.objects.Field object>, 'M'), (<pydal.objects.Field object>, 164440), (<pydal.objects.Field object>, 1982), (<pydal.objects.Field object>, 'B\\xc2\\xb0 LA VI\\xc3\\x91ITA C/LOS REGIONALES N\\xc2\\xb0 2311-CAP.-CTCA.'), (<pydal.objects.Field object>, 'S'), (<pydal.objects.Field object>, 'R.C.'), (<pydal.objects.Field object>, 'JUAN ANTONIO')]"
p220
ssg70
I1018
sg71
(dp221
I1013
S"            sql_w = ' WHERE ' + self.expand(query)"
p222
sI1014
S'        else:'
p223
sI1015
S"            sql_w = ''"
p224
sI1016
S"        sql_v = ','.join(['%s=%s' % (field.sqlsafe_name,"
p225
sI1017
S'                                     self.expand(value, field.type)) \\'
p226
sI1018
S'                              for (field, value) in fields])'
p227
sI1019
S'        tablename = self.db[tablename].sqlsafe'
p228
sI1020
S"        return 'UPDATE %s SET %s%s;' % (tablename, sql_v, sql_w)"
p229
sI1021
S''
sI1022
S'    def update(self, tablename, query, fields):'
p230
ssg83
S"(self=<pydal.adapters.sqlite.SQLiteAdapter object>, tablename='padron', query=<Query (padron.id = 150519)>, fields=[(<pydal.objects.Field object>, 2), (<pydal.objects.Field object>, 'DOCENTE'), (<pydal.objects.Field object>, 'M'), (<pydal.objects.Field object>, 164440), (<pydal.objects.Field object>, 1982), (<pydal.objects.Field object>, 'B\\xc2\\xb0 LA VI\\xc3\\x91ITA C/LOS REGIONALES N\\xc2\\xb0 2311-CAP.-CTCA.'), (<pydal.objects.Field object>, 'S'), (<pydal.objects.Field object>, 'R.C.'), (<pydal.objects.Field object>, 'JUAN ANTONIO')])"
p231
sg85
S'_update'
p232
sa(dp233
g62
S'D:\\web2py\\gluon\\packages\\dal\\pydal\\adapters\\base.py'
p234
sg64
(dp235
S'self.represent'
p236
S'<bound method SQLiteAdapter.represent of <pydal.adapters.sqlite.SQLiteAdapter object>>'
p237
sS'rv'
p238
g107
sS'expression'
p239
S"'R.C.'"
p240
sS'self'
p241
S'<pydal.adapters.sqlite.SQLiteAdapter object>'
p242
sS'field_type'
p243
S"'reference prontuario'"
p244
ssg70
I962
sg71
(dp245
I960
S'                rv = op()'
p246
sI961
S'        elif field_type:'
p247
sI962
S'            rv = self.represent(expression, field_type)'
p248
sI963
S'        elif isinstance(expression, (list, tuple)):'
p249
sI964
S"            rv = ','.join(self.represent(item, field_type)"
p250
sI965
S'                          for item in expression)'
p251
sI966
S'        elif isinstance(expression, bool):'
p252
sI957
S'                    op = op[:-1]'
p253
sI958
S"                rv = '(%s)' % op"
p254
sI959
S'            else:'
p255
ssg83
S"(self=<pydal.adapters.sqlite.SQLiteAdapter object>, expression='R.C.', field_type='reference prontuario', colnames=False)"
p256
sg85
S'expand'
p257
sa(dp258
g62
S'D:\\web2py\\gluon\\packages\\dal\\pydal\\adapters\\base.py'
p259
sg64
(dp260
S'builtinstr'
p261
S"<type 'str'>"
p262
sS'global long'
p263
S"<type 'long'>"
p264
sS'obj'
p265
S"'R.C.'"
p266
ssg70
I1442
sg71
(dp267
I1440
S'            referenced = fieldtype[9:].strip()'
p268
sI1441
S'            if referenced in self.db.tables:'
p269
sI1442
S'                return str(long(obj))'
p270
sI1443
S"            p = referenced.partition('.')"
p271
sI1444
S"            if p[2] != '':"
p272
sI1445
S'                try:'
p273
sI1446
S'                    ftype = self.db[p[0]][p[2]].type'
p274
sI1437
S'            return str(obj)'
p275
sI1438
S"        elif field_is_type('reference'): # reference"
p276
sI1439
S'            # check for tablename first'
p277
ssg83
S"(self=<pydal.adapters.sqlite.SQLiteAdapter object>, obj='R.C.', fieldtype='reference prontuario')"
p278
sg85
S'represent'
p279
sasS'pyver'
p280
S'Python 2.7.9: D:\\web2py\\web2py.exe (prefix: )'
p281
sS'session'
p282
g57
(S's\xf7\n\x00\x00<div><table><tr><td style="font-weight:bold;vertical-align:top;">auth</td><td style="vertical-align:top;">:</td><td><div><table><tr><td style="font-weight:bold;vertical-align:top;">expiration</td><td style="vertical-align:top;">:</td><td><div>3600</div></td></tr><tr><td style="font-weight:bold;vertical-align:top;">hmac_key</td><td style="vertical-align:top;">:</td><td><div>d1b6970e-b785-4d70-95a5-de9f21ae7b7d</div></td></tr><tr><td style="font-weight:bold;vertical-align:top;">last_visit</td><td style="vertical-align:top;">:</td><td><div>datetime.datetime(2019, 9, 6, 10, 33, 53, 822000)</div></td></tr><tr><td style="font-weight:bold;vertical-align:top;">remember_me</td><td style="vertical-align:top;">:</td><td><div>False</div></td></tr><tr><td style="font-weight:bold;vertical-align:top;">user</td><td style="vertical-align:top;">:</td><td><div><table><tr><td style="font-weight:bold;vertical-align:top;">dni</td><td style="vertical-align:top;">:</td><td><div>29917029</div></td></tr><tr><td style="font-weight:bold;vertical-align:top;">email</td><td style="vertical-align:top;">:</td><td><div>juan@ulivar.com</div></td></tr><tr><td style="font-weight:bold;vertical-align:top;">first_name</td><td style="vertical-align:top;">:</td><td><div>juan</div></td></tr><tr><td style="font-weight:bold;vertical-align:top;">id</td><td style="vertical-align:top;">:</td><td><div>1L</div></td></tr><tr><td style="font-weight:bold;vertical-align:top;">iniciales</td><td style="vertical-align:top;">:</td><td><div>J.U.</div></td></tr><tr><td style="font-weight:bold;vertical-align:top;">last_name</td><td style="vertical-align:top;">:</td><td><div>ulivar</div></td></tr><tr><td style="font-weight:bold;vertical-align:top;">oficina</td><td style="vertical-align:top;">:</td><td><div>Super</div></td></tr><tr><td style="font-weight:bold;vertical-align:top;">registration_id</td><td style="vertical-align:top;">:</td><td><div></div></td></tr><tr><td style="font-weight:bold;vertical-align:top;">registration_key</td><td style="vertical-align:top;">:</td><td><div></div></td></tr><tr><td style="font-weight:bold;vertical-align:top;">reset_password_key</td><td style="vertical-align:top;">:</td><td><div></div></td></tr><tr><td style="font-weight:bold;vertical-align:top;">username</td><td style="vertical-align:top;">:</td><td><div>uli</div></td></tr></table></div></td></tr><tr><td style="font-weight:bold;vertical-align:top;">user_groups</td><td style="vertical-align:top;">:</td><td><div><table><tr><td style="font-weight:bold;vertical-align:top;">1</td><td style="vertical-align:top;">:</td><td><div>Super</div></td></tr></table></div></td></tr></table></div></td></tr><tr><td style="font-weight:bold;vertical-align:top;">flash</td><td style="vertical-align:top;">:</td><td><div>None</div></td></tr></table></div>'
tRp283
sS'etype'
p284
S"<type 'exceptions.ValueError'>"
p285
sS'date'
p286
S'Fri Sep 06 10:34:54 2019'
p287
sS'response'
p288
g57
(S's\xd3@\x00\x00<div><table><tr><td style="font-weight:bold;vertical-align:top;">body</td><td style="vertical-align:top;">:</td><td><div>&lt;cStringIO.StringO object at 0x03F0C720&gt;</div></td></tr><tr><td style="font-weight:bold;vertical-align:top;">cookies</td><td style="vertical-align:top;">:</td><td><div><table><tr><td style="font-weight:bold;vertical-align:top;">session_id_antecedentesplataforma</td><td style="vertical-align:top;">:</td><td><div>127.0.0.1-390b46e5-a4a2-4517-8622-1e39816bc2c7<table><tr><td style="font-weight:bold;vertical-align:top;">comment</td><td style="vertical-align:top;">:</td><td><div></div></td></tr><tr><td style="font-weight:bold;vertical-align:top;">domain</td><td style="vertical-align:top;">:</td><td><div></div></td></tr><tr><td style="font-weight:bold;vertical-align:top;">expires</td><td style="vertical-align:top;">:</td><td><div></div></td></tr><tr><td style="font-weight:bold;vertical-align:top;">httponly</td><td style="vertical-align:top;">:</td><td><div></div></td></tr><tr><td style="font-weight:bold;vertical-align:top;">max-age</td><td style="vertical-align:top;">:</td><td><div></div></td></tr><tr><td style="font-weight:bold;vertical-align:top;">path</td><td style="vertical-align:top;">:</td><td><div>/</div></td></tr><tr><td style="font-weight:bold;vertical-align:top;">secure</td><td style="vertical-align:top;">:</td><td><div></div></td></tr><tr><td style="font-weight:bold;vertical-align:top;">version</td><td style="vertical-align:top;">:</td><td><div></div></td></tr></table></div></td></tr></table></div></td></tr><tr><td style="font-weight:bold;vertical-align:top;">delimiters</td><td style="vertical-align:top;">:</td><td><div><table><tr><td><div>{{</div></td></tr><tr><td><div>}}</div></td></tr></table></div></td></tr><tr><td style="font-weight:bold;vertical-align:top;">files</td><td style="vertical-align:top;">:</td><td><div><table></table></div></td></tr><tr><td style="font-weight:bold;vertical-align:top;">flash</td><td style="vertical-align:top;">:</td><td><div></div></td></tr><tr><td style="font-weight:bold;vertical-align:top;">form_label_separator</td><td style="vertical-align:top;">:</td><td><div></div></td></tr><tr><td style="font-weight:bold;vertical-align:top;">formstyle</td><td style="vertical-align:top;">:</td><td><div>bootstrap3_inline</div></td></tr><tr><td style="font-weight:bold;vertical-align:top;">generic_patterns</td><td style="vertical-align:top;">:</td><td><div><table><tr><td><div>*</div></td></tr></table></div></td></tr><tr><td style="font-weight:bold;vertical-align:top;">google_analytics_id</td><td style="vertical-align:top;">:</td><td><div>None</div></td></tr><tr><td style="font-weight:bold;vertical-align:top;">headers</td><td style="vertical-align:top;">:</td><td><div><table><tr><td style="font-weight:bold;vertical-align:top;">X-Powered-By</td><td style="vertical-align:top;">:</td><td><div>web2py</div></td></tr></table></div></td></tr><tr><td style="font-weight:bold;vertical-align:top;">logo</td><td style="vertical-align:top;">:</td><td><div><a class="navbar-brand" href="http://www.web2py.com/" id="web2py-logo"><b>web<span>2</span>py</b>&trade;&nbsp;</a></div></td></tr><tr><td style="font-weight:bold;vertical-align:top;">menu</td><td style="vertical-align:top;">:</td><td><div><table><tr><td><div><table><tr><td><div>Inicio</div></td></tr><tr><td><div>False</div></td></tr><tr><td><div>/antecedentesplataforma/default/index</div></td></tr><tr><td><div><table></table></div></td></tr></table></div></td></tr><tr><td><div><table><tr><td><div>Mis Sitios</div></td></tr><tr><td><div>False</div></td></tr><tr><td><div>/admin/default/site</div></td></tr></table></div></td></tr><tr><td><div><table><tr><td><div>Esta Aplicaci\xc3\xb3n</div></td></tr><tr><td><div>False</div></td></tr><tr><td><div>#</div></td></tr><tr><td><div><table><tr><td><div><table><tr><td><div>Design</div></td></tr><tr><td><div>False</div></td></tr><tr><td><div>/admin/default/design/antecedentesplataforma</div></td></tr></table></div></td></tr><tr><td><div><li class="divider"></li></div></td></tr><tr><td><div><table><tr><td><div>Controlador</div></td></tr><tr><td><div>False</div></td></tr><tr><td><div>/admin/default/edit/antecedentesplataforma/controllers/padron.py</div></td></tr></table></div></td></tr><tr><td><div><table><tr><td><div>Vista</div></td></tr><tr><td><div>False</div></td></tr><tr><td><div>/admin/default/edit/antecedentesplataforma/views/padron/form_modificar.html</div></td></tr></table></div></td></tr><tr><td><div><table><tr><td><div>Modelo BDD</div></td></tr><tr><td><div>False</div></td></tr><tr><td><div>/admin/default/edit/antecedentesplataforma/models/db.py</div></td></tr></table></div></td></tr><tr><td><div><table><tr><td><div>Modelo "menu"</div></td></tr><tr><td><div>False</div></td></tr><tr><td><div>/admin/default/edit/antecedentesplataforma/models/menu.py</div></td></tr></table></div></td></tr><tr><td><div><table><tr><td><div>Config.ini</div></td></tr><tr><td><div>False</div></td></tr><tr><td><div>/admin/default/edit/antecedentesplataforma/private/appconfig.ini</div></td></tr></table></div></td></tr><tr><td><div><table><tr><td><div>Dise\xc3\xb1o de p\xc3\xa1gina</div></td></tr><tr><td><div>False</div></td></tr><tr><td><div>/admin/default/edit/antecedentesplataforma/views/layout.html</div></td></tr></table></div></td></tr><tr><td><div><table><tr><td><div>Hoja de estilo</div></td></tr><tr><td><div>False</div></td></tr><tr><td><div>/admin/default/edit/antecedentesplataforma/static/css/web2py-bootstrap3.css</div></td></tr></table></div></td></tr><tr><td><div><table><tr><td><div>Base de datos</div></td></tr><tr><td><div>False</div></td></tr><tr><td><div>/antecedentesplataforma/appadmin/index</div></td></tr></table></div></td></tr><tr><td><div><table><tr><td><div>Errores</div></td></tr><tr><td><div>False</div></td></tr><tr><td><div>/admin/default/errors/antecedentesplataforma</div></td></tr></table></div></td></tr><tr><td><div><table><tr><td><div>Acerca de</div></td></tr><tr><td><div>False</div></td></tr><tr><td><div>/admin/default/about/antecedentesplataforma</div></td></tr></table></div></td></tr></table></div></td></tr></table></div></td></tr><tr><td><div><table><tr><td><div>web2py.com</div></td></tr><tr><td><div>False</div></td></tr><tr><td><div>#</div></td></tr><tr><td><div><table><tr><td><div><table><tr><td><div>Descargas</div></td></tr><tr><td><div>False</div></td></tr><tr><td><div>http://www.web2py.com/examples/default/download</div></td></tr></table></div></td></tr><tr><td><div><table><tr><td><div>Soporte</div></td></tr><tr><td><div>False</div></td></tr><tr><td><div>http://www.web2py.com/examples/default/support</div></td></tr></table></div></td></tr><tr><td><div><table><tr><td><div>Demostraci\xc3\xb3n</div></td></tr><tr><td><div>False</div></td></tr><tr><td><div>http://web2py.com/demo_admin</div></td></tr></table></div></td></tr><tr><td><div><table><tr><td><div>Ejemplos R\xc3\xa1pidos</div></td></tr><tr><td><div>False</div></td></tr><tr><td><div>http://web2py.com/examples/default/examples</div></td></tr></table></div></td></tr><tr><td><div><table><tr><td><div>FAQ</div></td></tr><tr><td><div>False</div></td></tr><tr><td><div>http://web2py.com/AlterEgo</div></td></tr></table></div></td></tr><tr><td><div><table><tr><td><div>V\xc3\xaddeos</div></td></tr><tr><td><div>False</div></td></tr><tr><td><div>http://www.web2py.com/examples/default/videos/</div></td></tr></table></div></td></tr><tr><td><div><table><tr><td><div>Aplicaciones Libres</div></td></tr><tr><td><div>False</div></td></tr><tr><td><div>http://web2py.com/appliances</div></td></tr></table></div></td></tr><tr><td><div><table><tr><td><div>Plugins</div></td></tr><tr><td><div>False</div></td></tr><tr><td><div>http://web2py.com/plugins</div></td></tr></table></div></td></tr><tr><td><div><table><tr><td><div>Recetas</div></td></tr><tr><td><div>False</div></td></tr><tr><td><div>http://web2pyslices.com/</div></td></tr></table></div></td></tr></table></div></td></tr></table></div></td></tr><tr><td><div><table><tr><td><div>Documentaci\xc3\xb3n</div></td></tr><tr><td><div>False</div></td></tr><tr><td><div>#</div></td></tr><tr><td><div><table><tr><td><div><table><tr><td><div>Online book</div></td></tr><tr><td><div>False</div></td></tr><tr><td><div>http://www.web2py.com/book</div></td></tr></table></div></td></tr><tr><td><div><li class="divider"></li></div></td></tr><tr><td><div><table><tr><td><div>Prefacio</div></td></tr><tr><td><div>False</div></td></tr><tr><td><div>http://www.web2py.com/book/default/chapter/00</div></td></tr></table></div></td></tr><tr><td><div><table><tr><td><div>Introducci\xc3\xb3n</div></td></tr><tr><td><div>False</div></td></tr><tr><td><div>http://www.web2py.com/book/default/chapter/01</div></td></tr></table></div></td></tr><tr><td><div><table><tr><td><div>Python</div></td></tr><tr><td><div>False</div></td></tr><tr><td><div>http://www.web2py.com/book/default/chapter/02</div></td></tr></table></div></td></tr><tr><td><div><table><tr><td><div>Resumen</div></td></tr><tr><td><div>False</div></td></tr><tr><td><div>http://www.web2py.com/book/default/chapter/03</div></td></tr></table></div></td></tr><tr><td><div><table><tr><td><div>El N\xc3\xbacleo</div></td></tr><tr><td><div>False</div></td></tr><tr><td><div>http://www.web2py.com/book/default/chapter/04</div></td></tr></table></div></td></tr><tr><td><div><table><tr><td><div>Las Vistas</div></td></tr><tr><td><div>False</div></td></tr><tr><td><div>http://www.web2py.com/book/default/chapter/05</div></td></tr></table></div></td></tr><tr><td><div><table><tr><td><div>Base de datos</div></td></tr><tr><td><div>False</div></td></tr><tr><td><div>http://www.web2py.com/book/default/chapter/06</div></td></tr></table></div></td></tr><tr><td><div><table><tr><td><div>Formularios y validadores</div></td></tr><tr><td><div>False</div></td></tr><tr><td><div>http://www.web2py.com/book/default/chapter/07</div></td></tr></table></div></td></tr><tr><td><div><table><tr><td><div>Correo electr\xc3\xb3nico y SMS</div></td></tr><tr><td><div>False</div></td></tr><tr><td><div>http://www.web2py.com/book/default/chapter/08</div></td></tr></table></div></td></tr><tr><td><div><table><tr><td><div>Control de Acceso</div></td></tr><tr><td><div>False</div></td></tr><tr><td><div>http://www.web2py.com/book/default/chapter/09</div></td></tr></table></div></td></tr><tr><td><div><table><tr><td><div>Servicios</div></td></tr><tr><td><div>False</div></td></tr><tr><td><div>http://www.web2py.com/book/default/chapter/10</div></td></tr></table></div></td></tr><tr><td><div><table><tr><td><div>Recetas AJAX</div></td></tr><tr><td><div>False</div></td></tr><tr><td><div>http://www.web2py.com/book/default/chapter/11</div></td></tr></table></div></td></tr><tr><td><div><table><tr><td><div>Componentes y Plugins</div></td></tr><tr><td><div>False</div></td></tr><tr><td><div>http://www.web2py.com/book/default/chapter/12</div></td></tr></table></div></td></tr><tr><td><div><table><tr><td><div>Recetas de despliegue</div></td></tr><tr><td><div>False</div></td></tr><tr><td><div>http://www.web2py.com/book/default/chapter/13</div></td></tr></table></div></td></tr><tr><td><div><table><tr><td><div>Otras Recetas</div></td></tr><tr><td><div>False</div></td></tr><tr><td><div>http://www.web2py.com/book/default/chapter/14</div></td></tr></table></div></td></tr><tr><td><div><table><tr><td><div>Helping web2py</div></td></tr><tr><td><div>False</div></td></tr><tr><td><div>http://www.web2py.com/book/default/chapter/15</div></td></tr></table></div></td></tr><tr><td><div><table><tr><td><div>Buy web2py\'s book</div></td></tr><tr><td><div>False</div></td></tr><tr><td><div>http://stores.lulu.com/web2py</div></td></tr></table></div></td></tr></table></div></td></tr></table></div></td></tr><tr><td><div><table><tr><td><div>Comunidad</div></td></tr><tr><td><div>False</div></td></tr><tr><td><div>None</div></td></tr><tr><td><div><table><tr><td><div><table><tr><td><div>Grupos</div></td></tr><tr><td><div>False</div></td></tr><tr><td><div>http://www.web2py.com/examples/default/usergroups</div></td></tr></table></div></td></tr><tr><td><div><table><tr><td><div>Twitter</div></td></tr><tr><td><div>False</div></td></tr><tr><td><div>http://twitter.com/web2py</div></td></tr></table></div></td></tr><tr><td><div><table><tr><td><div>Chat en vivo</div></td></tr><tr><td><div>False</div></td></tr><tr><td><div>http://webchat.freenode.net/?channels=web2py</div></td></tr></table></div></td></tr></table></div></td></tr></table></div></td></tr></table></div></td></tr><tr><td style="font-weight:bold;vertical-align:top;">meta</td><td style="vertical-align:top;">:</td><td><div><table><tr><td style="font-weight:bold;vertical-align:top;">author</td><td style="vertical-align:top;">:</td><td><div>Your Name &lt;you@example.com&gt;</div></td></tr><tr><td style="font-weight:bold;vertical-align:top;">description</td><td style="vertical-align:top;">:</td><td><div>a cool new app</div></td></tr><tr><td style="font-weight:bold;vertical-align:top;">generator</td><td style="vertical-align:top;">:</td><td><div>Web2py Web Framework</div></td></tr><tr><td style="font-weight:bold;vertical-align:top;">keywords</td><td style="vertical-align:top;">:</td><td><div><table><tr><td><div>web2py</div></td></tr><tr><td><div>python</div></td></tr><tr><td><div>framework</div></td></tr></table></div></td></tr></table></div></td></tr><tr><td style="font-weight:bold;vertical-align:top;">models_to_run</td><td style="vertical-align:top;">:</td><td><div><table><tr><td><div>^\\w+\\.py$</div></td></tr><tr><td><div>^padron/\\w+\\.py$</div></td></tr><tr><td><div>^padron/form_modificar/\\w+\\.py$</div></td></tr></table></div></td></tr><tr><td style="font-weight:bold;vertical-align:top;">postprocessing</td><td style="vertical-align:top;">:</td><td><div><table></table></div></td></tr><tr><td style="font-weight:bold;vertical-align:top;">session_client</td><td style="vertical-align:top;">:</td><td><div>127.0.0.1</div></td></tr><tr><td style="font-weight:bold;vertical-align:top;">session_cookie_compression_level</td><td style="vertical-align:top;">:</td><td><div>None</div></td></tr><tr><td style="font-weight:bold;vertical-align:top;">session_cookie_expires</td><td style="vertical-align:top;">:</td><td><div>None</div></td></tr><tr><td style="font-weight:bold;vertical-align:top;">session_data_name</td><td style="vertical-align:top;">:</td><td><div>session_data_antecedentesplataforma</div></td></tr><tr><td style="font-weight:bold;vertical-align:top;">session_file</td><td style="vertical-align:top;">:</td><td><div>&lt;open file &#x27;D:\\\\web2py\\\\applications\\\\antecedentesplataforma\\\\sessions\\\\179\\\\1ba\\\\127.0.0.1-390b46e5-a4a2-4517-8622-1e39816bc2c7&#x27;, mode &#x27;rb+&#x27; at 0x03DBE4F0&gt;</div></td></tr><tr><td style="font-weight:bold;vertical-align:top;">session_filename</td><td style="vertical-align:top;">:</td><td><div>D:\\web2py\\applications\\antecedentesplataforma\\sessions\\127.0.0.1-390b46e5-a4a2-4517-8622-1e39816bc2c7</div></td></tr><tr><td style="font-weight:bold;vertical-align:top;">session_hash</td><td style="vertical-align:top;">:</td><td><div>335a2eb19542ff914fac2468093e1a03</div></td></tr><tr><td style="font-weight:bold;vertical-align:top;">session_id</td><td style="vertical-align:top;">:</td><td><div>127.0.0.1-390b46e5-a4a2-4517-8622-1e39816bc2c7</div></td></tr><tr><td style="font-weight:bold;vertical-align:top;">session_id_name</td><td style="vertical-align:top;">:</td><td><div>session_id_antecedentesplataforma</div></td></tr><tr><td style="font-weight:bold;vertical-align:top;">session_locked</td><td style="vertical-align:top;">:</td><td><div>True</div></td></tr><tr><td style="font-weight:bold;vertical-align:top;">session_masterapp</td><td style="vertical-align:top;">:</td><td><div>antecedentesplataforma</div></td></tr><tr><td style="font-weight:bold;vertical-align:top;">session_new</td><td style="vertical-align:top;">:</td><td><div>False</div></td></tr><tr><td style="font-weight:bold;vertical-align:top;">session_storage_type</td><td style="vertical-align:top;">:</td><td><div>file</div></td></tr><tr><td style="font-weight:bold;vertical-align:top;">status</td><td style="vertical-align:top;">:</td><td><div>200</div></td></tr><tr><td style="font-weight:bold;vertical-align:top;">subtitle</td><td style="vertical-align:top;">:</td><td><div></div></td></tr><tr><td style="font-weight:bold;vertical-align:top;">title</td><td style="vertical-align:top;">:</td><td><div>Antecedentesplataforma</div></td></tr><tr><td style="font-weight:bold;vertical-align:top;">view</td><td style="vertical-align:top;">:</td><td><div>padron/form_modificar.html</div></td></tr></table></div>'
tRp289
sS'locals'
p290
(dp291
S'referenced'
p292
S"'prontuario'"
p293
sS'obj'
p294
S"'R.C.'"
p295
sS'self'
p296
S'<pydal.adapters.sqlite.SQLiteAdapter object>'
p297
sS'r'
S'None'
p298
sS'fieldtype'
p299
S"'reference prontuario'"
p300
sS'field_is_type'
p301
S'<built-in method startswith of str object>'
p302
sssS'traceback'
p303
S'Traceback (most recent call last):\n  File "D:\\web2py\\gluon\\restricted.py", line 227, in restricted\n    exec ccode in environment\n  File "D:\\web2py\\applications\\antecedentesplataforma\\controllers/padron.py", line 115, in <module>\n  File "D:\\web2py\\gluon\\globals.py", line 417, in <lambda>\n    self._caller = lambda f: f()\n  File "D:\\web2py\\applications\\antecedentesplataforma\\controllers/padron.py", line 112, in form_modificar\n    Direccion=form.vars.domicilio,IdProntuarioTipo=form.vars.tipo,ProntuarioNro=form.vars.nprontuario,Clase=form.vars.clase)\n  File "D:\\web2py\\gluon\\packages\\dal\\pydal\\helpers\\classes.py", line 245, in __call__\n    **newfields\n  File "D:\\web2py\\gluon\\packages\\dal\\pydal\\objects.py", line 2054, in update\n    ret = db._adapter.update("%s" % table._tablename, self.query, fields)\n  File "D:\\web2py\\gluon\\packages\\dal\\pydal\\adapters\\base.py", line 1023, in update\n    sql = self._update(tablename, query, fields)\n  File "D:\\web2py\\gluon\\packages\\dal\\pydal\\adapters\\base.py", line 1018, in _update\n    for (field, value) in fields])\n  File "D:\\web2py\\gluon\\packages\\dal\\pydal\\adapters\\base.py", line 962, in expand\n    rv = self.represent(expression, field_type)\n  File "D:\\web2py\\gluon\\packages\\dal\\pydal\\adapters\\base.py", line 1442, in represent\n    return str(long(obj))\nValueError: invalid literal for long() with base 10: \'R.C.\'\n'
p304
s.