(dp1
S'output'
p2
S"<type 'exceptions.KeyError'> ''"
p3
sS'layer'
p4
S'C:\\Users\\Policia\\Desktop\\web2py\\applications\\antecedentesplataforma\\controllers/imprimir.py'
p5
sS'code'
p6
S'\nfrom reportlab.pdfgen import canvas\n# def encabezado():\n# \tpdf="con_antecedentes.pdf"#largo,alto#defino como se va a llamar el arhivo pfg\n# \toficio=(612,1010) #configuro los tama\xc3\xb1os de la hoja oficio \n# \t#A4=612.0, 792.0 \n# \tdoc = canvas.Canvas(pdf,pagesize=oficio)\n# \tmargen=db(db.margenes).select().first()\n# \tx = margen.x\n# \tlargo=612.0\t\n# \ty =margen.y\n# \talto=1010  \n\t\n# \treturn dict()\n\ndef sin_antecedentes():\n\t\t#importo para poner la fecha\n\tfrom datetime import *    \n    \thoyfecha=datetime.today() #capturo la fecha de hoy\n    \tdia=hoyfecha.day #capturo el dia\n    \tdia=str(dia)#paso el dia a string\n    \tmes=hoyfecha.month #capturo el mes\n    \tmes=str(mes)#paso el dia a string\n    \t#creo un diccionario para reemplazar el numero del mes por el nombre del mes\n    \tmeses={"1":"ENERO","2":"FEBRERO","3":"MARZO","4":"ABRIL","5":"MAYO","6":"JUNIO","7":"JULIO","8":"AGOSTO","9":"SEPTIEMBRE","10":"OCTUBRE","11":"NOVIEMBRE","12":"DICIEMBRE"}\n    \t\n    \tqmes=meses[mes]# reemplazo el numero del mes en el diccionario mes\n    \tanio=hoyfecha.year #capturo el a\xc3\xb1o\n    \tanio=str(anio)\t#paso el a\xc3\xb1o a string para pornerlo en el pdf\n\tide_padron=request.args[1]\t#traigo el argumento del id del padron\n\tide_soli=request.args[0] \t#traigo el argumento del id de la solicitud\n\tdni=request.args[2] \t\t#traigo el dni de la persona\n\tDNI=str(dni)\t\t\t\t#paso el dni a string para ponerlo en el pdf\n\tpa=db(db.padron.id==ide_padron).select().first() #realizo un set para sacar los datos de la tabla padron\n\tape=pa.Apellido \t#capturo el apellido\n\n\tape=ape+","\t\t\t#le agrego una coma al apellido\n\n\n\tnom=pa.Nombre \t\t#capturo el nombre\n\t\n\tclase=pa.Clase \t\t#capturo la clase\n\tclase=str(clase) \t#paso la clase a string para ponerlo en el pdf\n\tdni=pa.DocumentoNro\t#capturo el dni\n\tdni=str(dni)\t\t#paso el dni a string para ponerlo en el pdf\n\tpasa=pa.Pasaporte\t#capturo el pasaporte\n\tpasa=str(pasa)\t\t#paso el pasaporte a string\n\tpesa=len(dni)\n\tvalor=""\n\tif pesa==0:\n\t\tvalor=pasa\n\telse:\n\t\tvalor=dni\n\n\n\tnacion=pa.IdPais\t#saco el id del pais \t\n\tpaises=db(db.paises.id==nacion).select().first()# hago un set para sacar el pais\n\tpais=paises.pais \t#saco el nombre del pais\n\tvil={"S":"SOLTERO/A","C":"CASADO/A","D":"DIVORSIADO/A","V":"VIUDO/A"} #creo un diccionario \t\n\tcivil=pa.EstadoCivil\t# capturo el estado civil\n\te_civil=vil[civil]#reemplazo en el diccionario vil\t\n\tprof=pa.Profesion  #saco la profesion\n\tdirec=pa.Direccion #saco la direccion\n\tclave={\'1\':"A.G.",\'2\':"C.I.",\'3\':"D.C.P.",\'4\':"D.E.",\'5\':"R.C.",\'6\':"S.P.",\'0\':None} #creo un diccionario para los tipos de prontuario\n\ttipo=pa.IdProntuarioTipo #saco el id del tipo de prontuario\n\ttipo=str(tipo)\t#\n\tnpront=pa.ProntuarioNro\n\tnpront=str(npront)\n\tqtipo=clave[tipo]\t\n\tsol=db(db.solicitud.id==ide_soli).select().first()\n\tsolipor=sol.solicitado_por\n\tnum=sol.nro_certificado\n\tcapital=sol.capitalinterior\n\tintervino=sol.intervino\n\tfecha=sol.fecha_solicitada\t\n\tuser=sol.usuario\n\ttiene=sol.t_antecedentes\n\tante=sol.antecedentes\n\tsol.update_record(estado_solicitud="Impreso")#cambio a estado impreso \n\t#Importamos los modulos necesarios\n\tfrom reportlab.pdfgen import canvas# clase para crear el documento\n\tfrom reportlab.lib.colors import white,red,green,blue,gray,black#colores\t\n\tfrom os import startfile\t\n\tpdf="ej.pdf"#largo,alto#defino como se va a llamar el arhivo pfg\n\tcertificado=(602,620) #configuro los tama\xc3\xb1os de la hoja del certificado\n\tdoc = canvas.Canvas(pdf,pagesize=certificado)\n\tmargen=db(db.margenes).select().first()\n\tx = margen.x\n\tlargo=602\n\ty =margen.y\n\talto=620\n\t#sumo al apellidos\n\tcuanto_ape= len(ape) #cuento la cantidad de digitos\n\tcuanto_ape=float(cuanto_ape)\n\tcuanto_ape=(cuanto_ape*6)+x\t#realizo esta operacion para q se acomode el nombre y no deje espacios\n\t\n\n\t\n\n\tdoc.setFont("Courier", 10)#fuente de letra y tama\xc3\xb1o\n\tdoc.drawString(110+x,455+y,ape)#para poner texto valores x,y\n\n\tdoc.setFont("Courier",10)\t#fuente de letra y tama\xc3\xb1o\n\tdoc.drawString(cuanto_ape+120+x,455+y,nom)#para poner texto valores x,y\n\n\tdoc.setFont("Courier",10)\t#fuente de letra y tama\xc3\xb1o\n\tdoc.drawString(270+x,438+y,clase)#para poner texto valores x,y\n\n\tdoc.setFont("Courier",10)\t#fuente de letra y tama\xc3\xb1o\n\tdoc.drawString(373+x,438+y,valor)#para poner texto valores x,y\n\n\tdoc.setFont("Courier",10)\t#fuente de letra y tama\xc3\xb1o\n\tdoc.drawString(173+x,420+y,pais)#para poner texto valores x,y\n\n\tdoc.setFont("Courier",10)\t#fuente de letra y tama\xc3\xb1o\n\tdoc.drawString(380+x,420+y,e_civil)#para poner texto valores x,y\n\n\tdoc.setFont("Courier",10)\t#fuente de letra y tama\xc3\xb1o\n\tdoc.drawString(157+x,406+y,prof)#para poner texto valores x,y\n\n\tdoc.setFont("Courier",9)\t#fuente de letra y tama\xc3\xb1o\n\tdoc.drawString(160+x,390+y,direc)#para poner texto valores x,y\n\n\tdoc.setFont("Courier",10)\t#fuente de letra y tama\xc3\xb1o\n\tdoc.drawString(110+x,375+y,"CATAMARCA")#para poner texto valores x,y\n\n\tdoc.setFont("Courier",10)\t#fuente de letra y tama\xc3\xb1o\n\tdoc.drawString(175+x,360+y,qtipo+npront)#para poner texto valores x,y\n\n\tdoc.setFont("Courier",10)\t#fuente de letra y tama\xc3\xb1o\n\tdoc.drawString(90+x,255+y,solipor)#para poner texto valores x,y\n\n\tdoc.setFont("Courier",10)\t#fuente de letra y tama\xc3\xb1o\n\tdoc.drawString(360+x,240+y,dia)#para poner texto valores x,y\n\n\tdoc.setFont("Courier",10)\t#fuente de letra y tama\xc3\xb1o\n\tdoc.drawString(160+x,225+y,qmes)#para poner texto valores x,y\n\n\tdoc.setFont("Courier",10)\t#fuente de letra y tama\xc3\xb1o\n\tdoc.drawString(360+x,225+y,anio)#para poner texto valores x,y\n\n\tdoc.setFont("Courier",10)\t#fuente de letra y tama\xc3\xb1o\n\tdoc.drawString(160+x,205+y,num)#para poner texto valores x,y\n\n\tdoc.setFont("Courier",10)\t#fuente de letra y tama\xc3\xb1o\n\tdoc.drawString(95+x,120+y,intervino)#para poner texto valores x,y\n\tdoc.showPage()\n\tdoc.save()\n\tstartfile(pdf)\n\tredirect(URL(c=\'confeccion\',f=\'menu_imprimir\',args=[ide_soli,ide_padron,dni]))\n                    \n\treturn dict()\n\t\n\n\ndef dame_un_pdf():\n\tfrom datetime import *\n\tfrom reportlab.platypus import *\n\tfrom reportlab.lib.styles import getSampleStyleSheet, ParagraphStyle\n\tfrom reportlab.rl_config import defaultPageSize\n\tfrom reportlab.lib.units import inch, mm\n\tfrom reportlab.lib.enums import TA_LEFT, TA_RIGHT, TA_CENTER, TA_JUSTIFY\n\tfrom reportlab.lib import colors\n\tfrom uuid import uuid4\n\tfrom cgi import escape\n\timport os\n\tpdf="con_antecedentes.pdf"#largo,alto#defino como se va a llamar el arhivo pfg\n\toficio=(612,1010) #configuro los tama\xc3\xb1os de la hoja oficio\n\tdoc = canvas.Canvas(pdf,pagesize=oficio)\n\n\tide_padron=request.args[1]\t#traigo el argumento del id del padron\n\tide_soli=request.args[0] \t#traigo el argumento del id de la solicitud\n\tdni=request.args[2] \n\t\n\thoyfecha=datetime.today() #capturo la fecha de hoy\n    \tdia=hoyfecha.day #capturo el dia\n     \tdia=str(dia)#paso el dia a string\n    \tmes=hoyfecha.month #capturo el mes\n    \tmes=str(mes)#paso el dia a string\n\n    \t#creo un diccionario para reemplazar el numero del mes por el nombre del mes\n    \tmeses={"1":"ENERO","2":"FEBRERO","3":"MARZO","4":"ABRIL","5":"MAYO","6":"JUNIO","7":"JULIO","8":"AGOSTO","9":"SEPTIEMBRE","10":"OCTUBRE","11":"NOVIEMBRE","12":"DICIEMBRE"}\n    \t\n    \tqmes=meses[mes]# reemplazo el numero del mes en el diccionario mes\n    \tanio=hoyfecha.year #capturo el a\xc3\xb1o\n    \tanio=str(anio)\t#paso el a\xc3\xb1o a string para pornerlo en el pdf\n    ####################################################################################################################################\n    \tpa=db(db.padron.id==ide_padron).select().first() #realizo un set para sacar los datos de la tabla padron\n\n\tape=pa.Apellido \t#capturo el apellido\n\tape=ape+","\t\t\t#le agrego una coma al apellido\n\tnom=pa.Nombre \t\t#capturo el nombre\n\tclase=pa.Clase \t\t#capturo la clase\n\tclase=str(clase) \t#paso la clase a string para ponerlo en el pdf\n\tdni=pa.DocumentoNro\t#capturo el dni\n\tdni=str(dni)\t\t#paso el dni a string para ponerlo en el pdf\n\tpasa=pa.Pasaporte\t#capturo el pasaporte\n\tpasa=str(pasa)\t\t#paso el pasaporte a string\n\tvalor=""\n\tq=""\n\tvalor=len(dni) #calculo q contiene dni\n\tif valor ==0:\n\t\tvalor=pasa\n\t\tq=" PASAPORTE: "\n\telse:\n\t\tvalor=dni\n\t\tq=" D.N.I. : " \n\n\tnacion=pa.IdPais\t#saco el id del pais \t\n\tpaises=db(db.paises.id==nacion).select().first()# hago un set para sacar el pais\n\tpais=paises.pais \t#saco el nombre del pais\n\tvil={"S":"SOLTERO/A","C":"CASADO/A","D":"DIVORSIADO/A","V":"VIUDO/A"} #creo un diccionario \t\n\tcivil=pa.EstadoCivil\t# capturo el estado civil\n\te_civil=vil[civil]#reemplazo en el diccionario vil\t\n\tprof=pa.Profesion  #saco la profesion\n\tdirec=pa.Direccion #saco la direccion\n\tclave={\'1\':"A.G.",\'2\':"C.I.",\'3\':"D.C.P.",\'4\':"D.E.",\'5\':"R.C.",\'6\':"S.P.",\'0\':None} #creo un diccionario para los tipos de prontuario\n\ttipo=pa.IdProntuarioTipo #saco el id del tipo de prontuario\n\ttipo=str(tipo)\t#\n\tnpront=pa.ProntuarioNro\n\tnpront=str(npront)\n\tqtipo=clave[tipo]\n\t######################################################################################################################################\t\n\tsol=db(db.solicitud.id==ide_soli).select().first()\n\tsolipor=sol.solicitado_por\n\tnum=sol.nro_certificado\n\tcapital=sol.capitalinterior\n\tintervino=sol.intervino\n\tfecha=sol.fecha_solicitada\t\n\tuser=sol.usuario\n\ttiene=sol.t_antecedentes\n\tante=sol.antecedentes\n\t#cambio el estado a impreso\n\tsol.update_record(estado_solicitud="Impreso")\n\n\t#cargo las imagenes###################################################################################################\n\n    \t#~ #Una imagen.\n\timagen_logo = Image("d:\\\\web2py\\\\applications\\\\antecedentesplataforma\\\\static\\\\images\\\\encabezado.jpg", width=500, height=80)\n\timagen_firma = Image("d:\\\\web2py\\\\applications\\\\antecedentesplataforma\\\\static\\\\images\\\\firma.jpg", width=500, height=100)\n\t##############################################################################################################################\n\n\t###############################################################################################################################\n\t#tabla\n\tdatos = (\n        (\'INTERVINO\', \'\'),\n        (intervino,\'\'),\n        (\'\',\'\'),\n        (\'\',\'\')\n    \t)\n\ttabla = Table(data = datos,\n              style = [\n                       (\'GRID\',(0,0),(-1,-1),0.5,colors.black),\n                       (\'BOX\',(0,0),(-1,-1),2,colors.black),\n                       (\'BACKGROUND\', (0, 0), (-1, 0), colors.grey),\n                       (\'ALIGNMENT\', (0,0), (-1,1), \'CENTER\'),\n                       (\'TOPPADDING  \', (0,0), (-1,1), ), #TOP, MIDDLE o BOTTOM\n                       ],\n                        hAlign=\'LEFT\'#alinar a la izquierda\n              )\n\t###############################################################################################################################    \t\n    \t\n\n    \tstyles = getSampleStyleSheet()\n\n    \tstyles.add(ParagraphStyle(name=\'Justify\', alignment=TA_JUSTIFY,fontName=\'Helvetica\',fontSize=10))\n\n\n    \t#archivotmp=os.path.join(request.folder,\'private\',str(uuid4()))\n    \tdoc = SimpleDocTemplate(pdf)#archivotmp)\n    \tstory = []\n    \tespacio=""\n    \tstory.append(imagen_logo)    \t\n    \t#story.append(Paragraph(escape(texto),styles["Justify"]))\n    \tstory.append(Spacer(1,0.5*inch))\n    \tstory.append(Paragraph(escape("Los funcionarios policiales que suscriben Certifican:"),styles["Justify"]))\n    \tstory.append(Spacer(1,0.5*inch))\n    \tstory.append(Paragraph(escape("Que "+ape+nom+" Clase: "+clase+q+valor+" de Nacionalidad "+pais\n    \t\t+" de estado civil: "+e_civil+" de profesi\xc3\xb3n  "+prof+" con domicilio: "+direc\n    \t\t+" Se encuentra identificado/a en esta Policia bajo el Prontuario: "+qtipo+" N\xc2\xba "+npront ),styles["Justify"]))\n    \tstory.append(Spacer(1,0.5*inch))\n    \t\n    \tstory.append(Paragraph(escape("OBSERVACIONES:"),styles["Justify"]))\n    \tstory.append(Paragraph(escape(ante),styles["Justify"]))\n    \tstory.append(Spacer(1,0.5*inch))\n\n    \tstory.append(Paragraph(escape("A solicitud de la parte interesada y al solo efecto de ser presentada en : "+\n    \t\tsolipor+"."+"Expiden el presente en la Ciudad de San Fernando del Valle de Catamarca(R.A.), con fecha: "\n    \t\t+dia+"/"+mes+"/"+anio +" Cert. N\xc2\xba "+num),styles["Justify"]))\n    \tstory.append(Spacer(1,0.5*inch))\n    \tstory.append(Paragraph(escape("Se expide conforme Ley N\xc2\xba4663, Art.8 Inc.\'C\'.-"),styles["Justify"]))\n    \tstory.append(Spacer(1,0.1*inch))    \t\n\tstory.append(tabla)\n\tstory.append(imagen_firma)\n    \tdoc.build(story)\n    \tos.system(pdf)\n    \t#data = open(archivotmp,"rb").read()\n    \t#os.unlink(archivotmp)\n    \t#response.headers[\'Content-Type\']=\'application/pdf\'\n    \tredirect(URL(c=\'confeccion\',f=\'menu_imprimir\',args=[ide_soli,ide_padron,dni]))\n\n\treturn dict(valor=valor)\n\n    \t\n    \t\n    \t\n    \t\n\n# def txt():\n# \t\t#importo para poner la fecha\n# \tfrom datetime import *\n# \timport os\n    \n#     \thoyfecha=datetime.today() #capturo la fecha de hoy\n#     \tdia=hoyfecha.day #capturo el dia\n#     \tdia=str(dia)#paso el dia a string\n#     \tmes=hoyfecha.month #capturo el mes\n#     \tmes=str(mes)#paso el dia a string\n#     \t#creo un diccionario para reemplazar el numero del mes por el nombre del mes\n#     \tmeses={"1":"ENERO","2":"FEBRERO","3":"MARZO","4":"ABRIL","5":"MAYO","6":"JUNIO","7":"JULIO","8":"AGOSTO","9":"SEPTIEMBRE","10":"OCTUBRE","11":"NOVIEMBRE","12":"DICIEMBRE"}\n    \t\n#     \tqmes=meses[mes]# reemplazo el numero del mes en el diccionario mes\n#     \tanio=hoyfecha.year #capturo el a\xc3\xb1o\n#     \tanio=str(anio)\t#paso el a\xc3\xb1o a string para pornerlo en el pdf\n# \tide_padron=request.args[1]\t#traigo el argumento del id del padron\n# \tide_soli=request.args[0] \t#traigo el argumento del id de la solicitud\n# \tdni=request.args[2] \t\t#traigo el dni de la persona\n# \tDNI=str(dni)\t\t\t\t#paso el dni a string para ponerlo en el pdf\n# \tpa=db(db.padron.id==ide_padron).select().first() #realizo un set para sacar los datos de la tabla padron\n# \tape=pa.Apellido \t#capturo el apellido\n# \tape=ape+","\t\t\t#le agrego una coma al apellido\n# \tnom=pa.Nombre \t\t#capturo el nombre\n# \tclase=pa.Clase \t\t#capturo la clase\n# \tclase=str(clase) \t#paso la clase a string para ponerlo en el pdf\n# \tdni=pa.DocumentoNro\t#capturo el dni\n# \tdni=str(dni)\t\t#paso el dni a string para ponerlo en el pdf\n# \tpasa=pa.Pasaporte\t#capturo el pasaporte\n# \tpasa=str(pasa)\t\t#paso el pasaporte a string\n# \tnacion=pa.IdPais\t#saco el id del pais \t\n# \tpaises=db(db.paises.id==nacion).select().first()# hago un set para sacar el pais\n# \tpais=paises.pais \t#saco el nombre del pais\n# \tvil={"S":"SOLTERO/A","C":"CASADO/A","D":"DIVORSIADO/A","V":"VIUDO/A"} #creo un diccionario \t\n# \tcivil=pa.EstadoCivil\t# capturo el estado civil\n# \te_civil=vil[civil]#reemplazo en el diccionario vil\t\n# \tprof=pa.Profesion  #saco la profesion\n# \tdirec=pa.Direccion #saco la direccion\n# \tclave={\'1\':"A.G.",\'2\':"C.I.",\'3\':"D.C.P.",\'4\':"D.E.",\'5\':"R.C.",\'6\':"S.P.",\'0\':None} #creo un diccionario para los tipos de prontuario\n# \ttipo=pa.IdProntuarioTipo #saco el id del tipo de prontuario\n# \ttipo=str(tipo)\t#\n# \tnpront=pa.ProntuarioNro\n# \tnpront=str(npront)\n# \tqtipo=clave[tipo]\t\n# \tsol=db(db.solicitud.id==ide_soli).select().first()\n# \tsolipor=sol.solicitado_por\n# \tnum=sol.nro_certificado\n# \tcapital=sol.capitalinterior\n# \tintervino=sol.intervino\n# \tfecha=sol.fecha_solicitada\t\n# \tuser=sol.usuario\n# \ttiene=sol.t_antecedentes\n# \tante=sol.antecedentes\n\t\n# \tfile = open("txt.txt", "w")\n# \tfile.write("Los Funcionarios Policiales que suscriben Certifican: \\n")\n# \tfile.write( "\\n" )\n# \tfile.write( "" +os.linesep)#espacion en blanco\n# \tfile.write("Que "+ ape+ nom + " Clase " +clase +" D.N.I. N\xc2\xba :" +dni +" de nacionalidad:"+ os.linesep)\n# \tfile.write(pais+" de estado civil: "+e_civil+" de profesion: "+prof+ os.linesep)\n# \tfile.write("con domicilio: "+direc+ os.linesep)\n\n# \tfile.write("Se encuentra indentificado/a en esta policia bajo Promtuario:"+ os.linesep )\n# \tfile.write(qtipo+" "+npront+ os.linesep )\n# \tfile.write("Observaciones:"+os.linesep )\n\t\n# \tfile.write(ante)\n# \tfile.write("A solicitud de la parte interesada y al solo efecto de ser presentada en: "+ os.linesep)\n# \tfile.write( solipor+"." +os.linesep)\n# \tfile.write( "Expiden el presente en la Ciudad de San Fernando del Valle de Catamarca(R.A.), con fecha:"+dia+"/"+mes+"/"+anio +os.linesep)\n# \tfile.write( "" +os.linesep)\n# \tfile.write( "Cert. N\xc2\xba"+num +os.linesep)\n# \tfile.write( "" +os.linesep)\n# \tfile.write( "Se expide conforme Ley N\xc2\xba4663, Art.8 Inc.\'C\' " +os.linesep)\n# \tfile.write( "" +os.linesep)\n# \tfile.write( "" +os.linesep)\n# \tfile.write( "" +os.linesep)\n# \tfile.write( "" +os.linesep)\n# \tfile.write( "-----------------------------------------------"+"                          "+"\t------------------------------------------------" +os.linesep)\n# \tfile.write( "       Jefe Div. Ant. Personales"+"                          \t"+"Jefe Depto.Inv. Judiciales (D-5)" +os.linesep)\t\n# \tfile.close()\n# \t#redirect(URL(c=\'imprimir\',f=\'con_antecedentes\',args=[ide_soli,ide_padron,dni]))\n# \treturn dict(ante=ante)\n\n# def con_antecedentes():\n# \tide_padron=request.args[1]\t#traigo el argumento del id del padron\n# \tide_soli=request.args[0] \t#traigo el argumento del id de la solicitud\n# \tdni=request.args[2] \n# \tfrom reportlab.pdfgen import canvas# clase para crear el documento\n# \tfrom reportlab.lib.colors import white,red,green,blue,gray,black#colores\t\n# \tfrom os import startfile\n# \tfrom reportlab.lib.utils import ImageReader\n# \timport StringIO\n# \timport PIL.Image\n# \tfrom reportlab.lib.styles import getSampleStyleSheet\n# \tfrom reportlab.lib.enums import TA_LEFT, TA_RIGHT, TA_CENTER, TA_JUSTIFY\n# \tfrom reportlab.platypus import SimpleDocTemplate, Paragraph, Spacer, Image\n# \timport os\n# \tfrom io import open\n# \timport reportlab.rl_config\n# \treportlab.rl_config.warnOnMissingFontGlyphs = 0\n# \tfrom reportlab.pdfbase import pdfmetrics\n# \tfrom reportlab.pdfbase.ttfonts import TTFont\n# \tfrom textwrap import wrap\n# \tpdfmetrics.registerFont(TTFont(\'Vera\', \'Vera.ttf\'))\n# \tpdfmetrics.registerFont(TTFont(\'VeraBd\', \'VeraBd.ttf\'))\n# \tpdfmetrics.registerFont(TTFont(\'VeraIt\', \'VeraIt.ttf\'))\n# \tpdfmetrics.registerFont(TTFont(\'VeraBI\', \'VeraBI.ttf\'))\t\n# \tpdf="con_antecedentes.pdf"#largo,alto#defino como se va a llamar el arhivo pfg\n# \toficio=(612,1010) #configuro los tama\xc3\xb1os de la hoja oficio \n# \t#A4=612.0, 792.0 \n# \tdoc = canvas.Canvas(pdf,pagesize=oficio)\n# \tmargen=db(db.margenes).select().first()\n# \tx = margen.x\n# \tlargo=612.0\t\n# \ty =margen.y\n# \talto=1010  \n# \testilos = getSampleStyleSheet()\n# \tstyle = estilos[\'BodyText\']\t\n# \tencabezado=[]\n# \theader1=doc.drawImage("d:\\\\web2py\\\\applications\\\\antecedentesplataforma\\\\static\\\\images\\\\escudo1.jpg",80,950,50,50)#insertar imagen\n# \tdoc.setFont("Helvetica-Bold", 18)#fuente de letra y tama\xc3\xb1o\n# \tencabezado.append(header1)\n# \theader2=doc.drawString(150+x,970+y,"CERTIFICADO DE ANTECEDENTES")#para poner texto valores x,y\n# \tencabezado.append(header2)\n# \theader3=doc.drawImage("d:\\\\web2py\\\\applications\\\\antecedentesplataforma\\\\static\\\\images\\\\escudo_policia.jpg",480,950,50,50)#insertar imagen\n# \tencabezado.append(header3)\n# \tdoc.setFont("Courier-BoldOblique", 11)#fuente de letra y tama\xc3\xb1o\n# \tdoc.drawString(210+x,950+y,"VALIDO POR SEIS MESES")#para poner texto valores x,y\t\n# \t#doc.drawText(text)\t\n# \tfrom reportlab.platypus import *\n# \tstory=[]\t\n# \ttextoArchivo = open("txt.txt", "r")  # Abrimos un archivo de texto\n# \ttext=""\n# \ttextobject = doc.beginText(40,890)  # Iniciamos el textobject\n# \ttextobject.setTextOrigin(40, 890)  # Ubicamos el cursor donde dibujar\n# \ttextobject.setFont("VeraIt", 8)\n# \tfor i in textoArchivo:\n# \t\t#i = i.replace("\\n","")  # Remplazamos el salto de linea\n# \t\t#textobject.textLine( i)  # Dibujamos la linea\n# \t\tp = Paragraph(i, style)\n#  \t\tstory.append(p)\n#  \t\tstory.append(Spacer(1,0.2))\n\t  \n# \t#textobject.setCharSpace(0.1)  # Espacio entre caracteres \n# \t#textobject.setWordSpace(0.2)  # Espacio entre palabras\t   \n# \t#wraped_text = "\\n".join(wrap(text, 80)) # 80 is line width\n# \tdoc.drawText(textobject)  # Dibujamos el texto pasando un objeto de texto\n# \tdoc.build(story)\n# \t#doc.showPage()\n# \tdoc.save()\t\n# \t#startfile(pdf)   \n# \treturn dict()\ndef margenes():\n\t#de esta funcion puedo configurar el las unidades x e y de los margenes\n\tmargen=db(db.margenes.id==1).select().first()\n\tx=margen.x\n\ty=margen.y\n\tform=SQLFORM.factory(\n\tField(\'x\',\'bolean\',label="X ,o Horizontal",default=x),\n\tField(\'y\',\'bolean\',label="Y ,o Vertical",default=y),\n\t\t)\n\tif form.accepts(request,session):\n    \t\tresponse.flash = \'formulario aceptado\'\n    \t\tmargen.update_record(x=form.vars.x,y=form.vars.y)\n    \t\tredirect(URL(c=\'imprimir\',f=\'margenes\')\n    \t\t\t)\n    \t\t\n    \t\t\n    \telif form.errors:\n        \tresponse.flash = \'el formulario tiene errores\'\n    \telse:\n        \tresponse.flash = \'por favor complete el formulario\'  \n\n\n\n\treturn dict(form=form)\n\n\n\n\n\n\n\n\t\n\n\n\n\t\n\n\n\n\n\t\n\n\t\n \n \n\n\t\n\n    \n\t\n\n\n\n\t\n\t\n\n\n\n\n\n\n\n\n\n\n\n\n\n\n\t\n\nresponse._vars=response._caller(sin_antecedentes)\n'
p7
sS'snapshot'
p8
(dp9
S'exception'
p10
(dp11
S'__hash__'
p12
S"<method-wrapper '__hash__' of exceptions.KeyError object>"
p13
sS'__setattr__'
p14
S"<method-wrapper '__setattr__' of exceptions.KeyError object>"
p15
sS'__reduce_ex__'
p16
S'<built-in method __reduce_ex__ of exceptions.KeyError object>'
p17
sS'__getslice__'
p18
S"<method-wrapper '__getslice__' of exceptions.KeyError object>"
p19
sS'__getitem__'
p20
S"<method-wrapper '__getitem__' of exceptions.KeyError object>"
p21
sS'__setstate__'
p22
S'<built-in method __setstate__ of exceptions.KeyError object>'
p23
sS'__reduce__'
p24
S'<built-in method __reduce__ of exceptions.KeyError object>'
p25
sS'__str__'
p26
S"<method-wrapper '__str__' of exceptions.KeyError object>"
p27
sS'__format__'
p28
S'<built-in method __format__ of exceptions.KeyError object>'
p29
sS'__getattribute__'
p30
S"<method-wrapper '__getattribute__' of exceptions.KeyError object>"
p31
sS'__class__'
p32
S"<type 'exceptions.KeyError'>"
p33
sS'__unicode__'
p34
S'<built-in method __unicode__ of exceptions.KeyError object>'
p35
sS'__delattr__'
p36
S"<method-wrapper '__delattr__' of exceptions.KeyError object>"
p37
sS'__subclasshook__'
p38
S'<built-in method __subclasshook__ of type object>'
p39
sS'__repr__'
p40
S"<method-wrapper '__repr__' of exceptions.KeyError object>"
p41
sS'args'
p42
S"('',)"
p43
sS'__dict__'
p44
S'{}'
p45
sS'__sizeof__'
p46
S'<built-in method __sizeof__ of exceptions.KeyError object>'
p47
sS'__doc__'
p48
S"'Mapping key not found.'"
p49
sS'__init__'
p50
S"<method-wrapper '__init__' of exceptions.KeyError object>"
p51
sS'__new__'
p52
S'<built-in method __new__ of type object>'
p53
ssS'evalue'
p54
S"''"
p55
sS'request'
p56
cgluon.html
XML_unpickle
p57
(S's\xe3a\x00\x00<div><table><tr><td style="font-weight:bold;vertical-align:top;">ajax</td><td style="vertical-align:top;">:</td><td><div>False</div></td></tr><tr><td style="font-weight:bold;vertical-align:top;">application</td><td style="vertical-align:top;">:</td><td><div>antecedentesplataforma</div></td></tr><tr><td style="font-weight:bold;vertical-align:top;">args</td><td style="vertical-align:top;">:</td><td><div><table><tr><td><div>2</div></td></tr><tr><td><div>29482</div></td></tr><tr><td><div>24954710</div></td></tr></table></div></td></tr><tr><td style="font-weight:bold;vertical-align:top;">cid</td><td style="vertical-align:top;">:</td><td><div>None</div></td></tr><tr><td style="font-weight:bold;vertical-align:top;">client</td><td style="vertical-align:top;">:</td><td><div>127.0.0.1</div></td></tr><tr><td style="font-weight:bold;vertical-align:top;">controller</td><td style="vertical-align:top;">:</td><td><div>imprimir</div></td></tr><tr><td style="font-weight:bold;vertical-align:top;">cookies</td><td style="vertical-align:top;">:</td><td><div><table><tr><td style="font-weight:bold;vertical-align:top;">session_id_admin</td><td style="vertical-align:top;">:</td><td><div>127.0.0.1-ef325ea7-1d58-46b7-9ee3-21acd9fb177a<table><tr><td style="font-weight:bold;vertical-align:top;">comment</td><td style="vertical-align:top;">:</td><td><div></div></td></tr><tr><td style="font-weight:bold;vertical-align:top;">domain</td><td style="vertical-align:top;">:</td><td><div></div></td></tr><tr><td style="font-weight:bold;vertical-align:top;">expires</td><td style="vertical-align:top;">:</td><td><div></div></td></tr><tr><td style="font-weight:bold;vertical-align:top;">httponly</td><td style="vertical-align:top;">:</td><td><div></div></td></tr><tr><td style="font-weight:bold;vertical-align:top;">max-age</td><td style="vertical-align:top;">:</td><td><div></div></td></tr><tr><td style="font-weight:bold;vertical-align:top;">path</td><td style="vertical-align:top;">:</td><td><div></div></td></tr><tr><td style="font-weight:bold;vertical-align:top;">secure</td><td style="vertical-align:top;">:</td><td><div></div></td></tr><tr><td style="font-weight:bold;vertical-align:top;">version</td><td style="vertical-align:top;">:</td><td><div></div></td></tr></table></div></td></tr><tr><td style="font-weight:bold;vertical-align:top;">session_id_antecedentesplataforma</td><td style="vertical-align:top;">:</td><td><div>127.0.0.1-b5cc090b-f249-4694-ae26-e044f553bdb0<table><tr><td style="font-weight:bold;vertical-align:top;">comment</td><td style="vertical-align:top;">:</td><td><div></div></td></tr><tr><td style="font-weight:bold;vertical-align:top;">domain</td><td style="vertical-align:top;">:</td><td><div></div></td></tr><tr><td style="font-weight:bold;vertical-align:top;">expires</td><td style="vertical-align:top;">:</td><td><div></div></td></tr><tr><td style="font-weight:bold;vertical-align:top;">httponly</td><td style="vertical-align:top;">:</td><td><div></div></td></tr><tr><td style="font-weight:bold;vertical-align:top;">max-age</td><td style="vertical-align:top;">:</td><td><div></div></td></tr><tr><td style="font-weight:bold;vertical-align:top;">path</td><td style="vertical-align:top;">:</td><td><div></div></td></tr><tr><td style="font-weight:bold;vertical-align:top;">secure</td><td style="vertical-align:top;">:</td><td><div></div></td></tr><tr><td style="font-weight:bold;vertical-align:top;">version</td><td style="vertical-align:top;">:</td><td><div></div></td></tr></table></div></td></tr><tr><td style="font-weight:bold;vertical-align:top;">session_id_welcome</td><td style="vertical-align:top;">:</td><td><div>127.0.0.1-84cd518b-6090-4d79-84e3-2b799a1f9c63<table><tr><td style="font-weight:bold;vertical-align:top;">comment</td><td style="vertical-align:top;">:</td><td><div></div></td></tr><tr><td style="font-weight:bold;vertical-align:top;">domain</td><td style="vertical-align:top;">:</td><td><div></div></td></tr><tr><td style="font-weight:bold;vertical-align:top;">expires</td><td style="vertical-align:top;">:</td><td><div></div></td></tr><tr><td style="font-weight:bold;vertical-align:top;">httponly</td><td style="vertical-align:top;">:</td><td><div></div></td></tr><tr><td style="font-weight:bold;vertical-align:top;">max-age</td><td style="vertical-align:top;">:</td><td><div></div></td></tr><tr><td style="font-weight:bold;vertical-align:top;">path</td><td style="vertical-align:top;">:</td><td><div></div></td></tr><tr><td style="font-weight:bold;vertical-align:top;">secure</td><td style="vertical-align:top;">:</td><td><div></div></td></tr><tr><td style="font-weight:bold;vertical-align:top;">version</td><td style="vertical-align:top;">:</td><td><div></div></td></tr></table></div></td></tr></table></div></td></tr><tr><td style="font-weight:bold;vertical-align:top;">env</td><td style="vertical-align:top;">:</td><td><div><table><tr><td style="font-weight:bold;vertical-align:top;">HTTP_ACCEPT</td><td style="vertical-align:top;">:</td><td><div>text/html,application/xhtml+xml,application/xml;q=0.9,image/webp,image/apng,*/*;q=0.8,application/signed-exchange;v=b3</div></td></tr><tr><td style="font-weight:bold;vertical-align:top;">HTTP_ACCEPT_ENCODING</td><td style="vertical-align:top;">:</td><td><div>gzip, deflate, br</div></td></tr><tr><td style="font-weight:bold;vertical-align:top;">HTTP_ACCEPT_LANGUAGE</td><td style="vertical-align:top;">:</td><td><div>es-419,es;q=0.9</div></td></tr><tr><td style="font-weight:bold;vertical-align:top;">HTTP_CONNECTION</td><td style="vertical-align:top;">:</td><td><div>keep-alive</div></td></tr><tr><td style="font-weight:bold;vertical-align:top;">HTTP_COOKIE</td><td style="vertical-align:top;">:</td><td><div>session_id_welcome=127.0.0.1-84cd518b-6090-4d79-84e3-2b799a1f9c63; session_id_admin=127.0.0.1-ef325ea7-1d58-46b7-9ee3-21acd9fb177a; session_id_antecedentesplataforma=127.0.0.1-b5cc090b-f249-4694-ae26-e044f553bdb0</div></td></tr><tr><td style="font-weight:bold;vertical-align:top;">HTTP_HOST</td><td style="vertical-align:top;">:</td><td><div>127.0.0.1:8000</div></td></tr><tr><td style="font-weight:bold;vertical-align:top;">HTTP_REFERER</td><td style="vertical-align:top;">:</td><td><div>http://127.0.0.1:8000/antecedentesplataforma/confeccion/menu_imprimir/2/29482/24954710</div></td></tr><tr><td style="font-weight:bold;vertical-align:top;">HTTP_SEC_FETCH_MODE</td><td style="vertical-align:top;">:</td><td><div>navigate</div></td></tr><tr><td style="font-weight:bold;vertical-align:top;">HTTP_SEC_FETCH_SITE</td><td style="vertical-align:top;">:</td><td><div>same-origin</div></td></tr><tr><td style="font-weight:bold;vertical-align:top;">HTTP_SEC_FETCH_USER</td><td style="vertical-align:top;">:</td><td><div>?1</div></td></tr><tr><td style="font-weight:bold;vertical-align:top;">HTTP_UPGRADE_INSECURE_REQUESTS</td><td style="vertical-align:top;">:</td><td><div>1</div></td></tr><tr><td style="font-weight:bold;vertical-align:top;">HTTP_USER_AGENT</td><td style="vertical-align:top;">:</td><td><div>Mozilla/5.0 (Windows NT 6.1) AppleWebKit/537.36 (KHTML, like Gecko) Chrome/76.0.3809.132 Safari/537.36</div></td></tr><tr><td style="font-weight:bold;vertical-align:top;">PATH_INFO</td><td style="vertical-align:top;">:</td><td><div>/antecedentesplataforma/imprimir/sin_antecedentes/2/29482/24954710</div></td></tr><tr><td style="font-weight:bold;vertical-align:top;">QUERY_STRING</td><td style="vertical-align:top;">:</td><td><div></div></td></tr><tr><td style="font-weight:bold;vertical-align:top;">REMOTE_ADDR</td><td style="vertical-align:top;">:</td><td><div>127.0.0.1</div></td></tr><tr><td style="font-weight:bold;vertical-align:top;">REMOTE_PORT</td><td style="vertical-align:top;">:</td><td><div>50665</div></td></tr><tr><td style="font-weight:bold;vertical-align:top;">REQUEST_METHOD</td><td style="vertical-align:top;">:</td><td><div>GET</div></td></tr><tr><td style="font-weight:bold;vertical-align:top;">SCRIPT_NAME</td><td style="vertical-align:top;">:</td><td><div></div></td></tr><tr><td style="font-weight:bold;vertical-align:top;">SERVER_NAME</td><td style="vertical-align:top;">:</td><td><div>Policia-PC</div></td></tr><tr><td style="font-weight:bold;vertical-align:top;">SERVER_PORT</td><td style="vertical-align:top;">:</td><td><div>8000</div></td></tr><tr><td style="font-weight:bold;vertical-align:top;">SERVER_PROTOCOL</td><td style="vertical-align:top;">:</td><td><div>HTTP/1.1</div></td></tr><tr><td style="font-weight:bold;vertical-align:top;">SERVER_SOFTWARE</td><td style="vertical-align:top;">:</td><td><div>Rocket 1.2.6</div></td></tr><tr><td style="font-weight:bold;vertical-align:top;">app_folders</td><td style="vertical-align:top;">:</td><td><div>set([&#x27;C:\\\\Users\\\\Policia\\\\Desktop\\\\web2py\\\\applications\\\\antecedentesplataforma\\\\&#x27;, &#x27;C:\\\\Users\\\\Policia\\\\Desktop\\\\web2py\\\\applications\\\\admin\\\\&#x27;, &#x27;C:\\\\Users\\\\Policia\\\\Desktop\\\\web2py\\\\applications\\\\welcome\\\\&#x27;])</div></td></tr><tr><td style="font-weight:bold;vertical-align:top;">applications_parent</td><td style="vertical-align:top;">:</td><td><div>C:\\Users\\Policia\\Desktop\\web2py</div></td></tr><tr><td style="font-weight:bold;vertical-align:top;">cmd_args</td><td style="vertical-align:top;">:</td><td><div><table></table></div></td></tr><tr><td style="font-weight:bold;vertical-align:top;">cmd_options</td><td style="vertical-align:top;">:</td><td><div>&lt;Values at 0x2690bc0: {&#x27;verbose&#x27;: False, &#x27;ip&#x27;: &#x27;127.0.0.1&#x27;, &#x27;debuglevel&#x27;: 30, &#x27;with_scheduler&#x27;: False, &#x27;shutdown_timeout&#x27;: 5, &#x27;taskbar&#x27;: False, &#x27;with_coverage&#x27;: False, &#x27;pid_filename&#x27;: &#x27;httpserver.pid&#x27;, &#x27;maxthreads&#x27;: None, &#x27;softcron&#x27;: False, &#x27;server_name&#x27;: &#x27;Policia-PC&#x27;, &#x27;bpython&#x27;: False, &#x27;nogui&#x27;: False, &#x27;port&#x27;: 8000, &#x27;print_errors&#x27;: False, &#x27;extcron&#x27;: False, &#x27;runcron&#x27;: False, &#x27;run_system_tests&#x27;: False, &#x27;test&#x27;: None, &#x27;folder&#x27;: &#x27;C:\\\\Users\\\\Policia\\\\Desktop\\\\web2py&#x27;, &#x27;config&#x27;: &#x27;&#x27;, &#x27;minthreads&#x27;: None, &#x27;shell&#x27;: None, &#x27;run&#x27;: &#x27;&#x27;, &#x27;log_filename&#x27;: &#x27;httpserver.log&#x27;, &#x27;profiler_dir&#x27;: None, &#x27;args&#x27;: [&#x27;&#x27;], &#x27;socket_timeout&#x27;: 5, &#x27;ssl_ca_certificate&#x27;: None, &#x27;scheduler&#x27;: None, &#x27;interfaces&#x27;: None, &#x27;ssl_private_key&#x27;: &#x27;&#x27;, &#x27;gae&#x27;: None, &#x27;password&#x27;: &#x27;******&#x27;, &#x27;request_queue_size&#x27;: 5, &#x27;ssl_certificate&#x27;: &#x27;&#x27;, &#x27;cronjob&#x27;: False, &#x27;numthreads&#x27;: None, &#x27;quiet&#x27;: False, &#x27;import_models&#x27;: False, &#x27;timeout&#x27;: 10, &#x27;plain&#x27;: False, &#x27;nobanner&#x27;: False}&gt;</div></td></tr><tr><td style="font-weight:bold;vertical-align:top;">db_sessions</td><td style="vertical-align:top;">:</td><td><div>set([])</div></td></tr><tr><td style="font-weight:bold;vertical-align:top;">debugging</td><td style="vertical-align:top;">:</td><td><div>False</div></td></tr><tr><td style="font-weight:bold;vertical-align:top;">gluon_parent</td><td style="vertical-align:top;">:</td><td><div>C:\\Users\\Policia\\Desktop\\web2py</div></td></tr><tr><td style="font-weight:bold;vertical-align:top;">http_accept</td><td style="vertical-align:top;">:</td><td><div>text/html,application/xhtml+xml,application/xml;q=0.9,image/webp,image/apng,*/*;q=0.8,application/signed-exchange;v=b3</div></td></tr><tr><td style="font-weight:bold;vertical-align:top;">http_accept_encoding</td><td style="vertical-align:top;">:</td><td><div>gzip, deflate, br</div></td></tr><tr><td style="font-weight:bold;vertical-align:top;">http_accept_language</td><td style="vertical-align:top;">:</td><td><div>es-419,es;q=0.9</div></td></tr><tr><td style="font-weight:bold;vertical-align:top;">http_connection</td><td style="vertical-align:top;">:</td><td><div>keep-alive</div></td></tr><tr><td style="font-weight:bold;vertical-align:top;">http_cookie</td><td style="vertical-align:top;">:</td><td><div>session_id_welcome=127.0.0.1-84cd518b-6090-4d79-84e3-2b799a1f9c63; session_id_admin=127.0.0.1-ef325ea7-1d58-46b7-9ee3-21acd9fb177a; session_id_antecedentesplataforma=127.0.0.1-b5cc090b-f249-4694-ae26-e044f553bdb0</div></td></tr><tr><td style="font-weight:bold;vertical-align:top;">http_host</td><td style="vertical-align:top;">:</td><td><div>127.0.0.1:8000</div></td></tr><tr><td style="font-weight:bold;vertical-align:top;">http_referer</td><td style="vertical-align:top;">:</td><td><div>http://127.0.0.1:8000/antecedentesplataforma/confeccion/menu_imprimir/2/29482/24954710</div></td></tr><tr><td style="font-weight:bold;vertical-align:top;">http_sec_fetch_mode</td><td style="vertical-align:top;">:</td><td><div>navigate</div></td></tr><tr><td style="font-weight:bold;vertical-align:top;">http_sec_fetch_site</td><td style="vertical-align:top;">:</td><td><div>same-origin</div></td></tr><tr><td style="font-weight:bold;vertical-align:top;">http_sec_fetch_user</td><td style="vertical-align:top;">:</td><td><div>?1</div></td></tr><tr><td style="font-weight:bold;vertical-align:top;">http_upgrade_insecure_requests</td><td style="vertical-align:top;">:</td><td><div>1</div></td></tr><tr><td style="font-weight:bold;vertical-align:top;">http_user_agent</td><td style="vertical-align:top;">:</td><td><div>Mozilla/5.0 (Windows NT 6.1) AppleWebKit/537.36 (KHTML, like Gecko) Chrome/76.0.3809.132 Safari/537.36</div></td></tr><tr><td style="font-weight:bold;vertical-align:top;">is_jython</td><td style="vertical-align:top;">:</td><td><div>False</div></td></tr><tr><td style="font-weight:bold;vertical-align:top;">is_pypy</td><td style="vertical-align:top;">:</td><td><div>False</div></td></tr><tr><td style="font-weight:bold;vertical-align:top;">is_source</td><td style="vertical-align:top;">:</td><td><div>False</div></td></tr><tr><td style="font-weight:bold;vertical-align:top;">local_hosts</td><td style="vertical-align:top;">:</td><td><div><table><tr><td><div>fe80::74c4:5d98:f37e:e92d%87</div></td></tr><tr><td><div>192.168.10.27</div></td></tr><tr><td><div>::ffff:127.0.0.1</div></td></tr><tr><td><div>::1</div></td></tr><tr><td><div>Policia-PC</div></td></tr><tr><td><div>127.0.0.1</div></td></tr></table></div></td></tr><tr><td style="font-weight:bold;vertical-align:top;">path_info</td><td style="vertical-align:top;">:</td><td><div>/antecedentesplataforma/imprimir/sin_antecedentes/2/29482/24954710</div></td></tr><tr><td style="font-weight:bold;vertical-align:top;">query_string</td><td style="vertical-align:top;">:</td><td><div></div></td></tr><tr><td style="font-weight:bold;vertical-align:top;">remote_addr</td><td style="vertical-align:top;">:</td><td><div>127.0.0.1</div></td></tr><tr><td style="font-weight:bold;vertical-align:top;">remote_port</td><td style="vertical-align:top;">:</td><td><div>50665</div></td></tr><tr><td style="font-weight:bold;vertical-align:top;">request_method</td><td style="vertical-align:top;">:</td><td><div>GET</div></td></tr><tr><td style="font-weight:bold;vertical-align:top;">request_uri</td><td style="vertical-align:top;">:</td><td><div>/antecedentesplataforma/imprimir/sin_antecedentes/2/29482/24954710</div></td></tr><tr><td style="font-weight:bold;vertical-align:top;">script_name</td><td style="vertical-align:top;">:</td><td><div></div></td></tr><tr><td style="font-weight:bold;vertical-align:top;">server_name</td><td style="vertical-align:top;">:</td><td><div>Policia-PC</div></td></tr><tr><td style="font-weight:bold;vertical-align:top;">server_port</td><td style="vertical-align:top;">:</td><td><div>8000</div></td></tr><tr><td style="font-weight:bold;vertical-align:top;">server_protocol</td><td style="vertical-align:top;">:</td><td><div>HTTP/1.1</div></td></tr><tr><td style="font-weight:bold;vertical-align:top;">server_software</td><td style="vertical-align:top;">:</td><td><div>Rocket 1.2.6</div></td></tr><tr><td style="font-weight:bold;vertical-align:top;">web2py_path</td><td style="vertical-align:top;">:</td><td><div>C:\\Users\\Policia\\Desktop\\web2py</div></td></tr><tr><td style="font-weight:bold;vertical-align:top;">web2py_version</td><td style="vertical-align:top;">:</td><td><div>2.14.6-stable+timestamp.2016.05.10.00.21.47</div></td></tr><tr><td style="font-weight:bold;vertical-align:top;">wsgi.errors</td><td style="vertical-align:top;">:</td><td><div>&lt;open file &#x27;&lt;stderr&gt;&#x27;, mode &#x27;w&#x27; at 0x0116D0D0&gt;</div></td></tr><tr><td style="font-weight:bold;vertical-align:top;">wsgi.file_wrapper</td><td style="vertical-align:top;">:</td><td><div>&lt;class wsgiref.util.FileWrapper at 0x0261D110&gt;</div></td></tr><tr><td style="font-weight:bold;vertical-align:top;">wsgi.input</td><td style="vertical-align:top;">:</td><td><div>&lt;socket._fileobject object at 0x031EC730&gt;</div></td></tr><tr><td style="font-weight:bold;vertical-align:top;">wsgi.multiprocess</td><td style="vertical-align:top;">:</td><td><div>False</div></td></tr><tr><td style="font-weight:bold;vertical-align:top;">wsgi.multithread</td><td style="vertical-align:top;">:</td><td><div>True</div></td></tr><tr><td style="font-weight:bold;vertical-align:top;">wsgi.run_once</td><td style="vertical-align:top;">:</td><td><div>False</div></td></tr><tr><td style="font-weight:bold;vertical-align:top;">wsgi.url_scheme</td><td style="vertical-align:top;">:</td><td><div>http</div></td></tr><tr><td style="font-weight:bold;vertical-align:top;">wsgi.version</td><td style="vertical-align:top;">:</td><td><div><table><tr><td><div>1</div></td></tr><tr><td><div>0</div></td></tr></table></div></td></tr><tr><td style="font-weight:bold;vertical-align:top;">wsgi_errors</td><td style="vertical-align:top;">:</td><td><div>&lt;open file &#x27;&lt;stderr&gt;&#x27;, mode &#x27;w&#x27; at 0x0116D0D0&gt;</div></td></tr><tr><td style="font-weight:bold;vertical-align:top;">wsgi_file_wrapper</td><td style="vertical-align:top;">:</td><td><div>&lt;class wsgiref.util.FileWrapper at 0x0261D110&gt;</div></td></tr><tr><td style="font-weight:bold;vertical-align:top;">wsgi_input</td><td style="vertical-align:top;">:</td><td><div>&lt;socket._fileobject object at 0x031EC730&gt;</div></td></tr><tr><td style="font-weight:bold;vertical-align:top;">wsgi_multiprocess</td><td style="vertical-align:top;">:</td><td><div>False</div></td></tr><tr><td style="font-weight:bold;vertical-align:top;">wsgi_multithread</td><td style="vertical-align:top;">:</td><td><div>True</div></td></tr><tr><td style="font-weight:bold;vertical-align:top;">wsgi_run_once</td><td style="vertical-align:top;">:</td><td><div>False</div></td></tr><tr><td style="font-weight:bold;vertical-align:top;">wsgi_url_scheme</td><td style="vertical-align:top;">:</td><td><div>http</div></td></tr><tr><td style="font-weight:bold;vertical-align:top;">wsgi_version</td><td style="vertical-align:top;">:</td><td><div><table><tr><td><div>1</div></td></tr><tr><td><div>0</div></td></tr></table></div></td></tr></table></div></td></tr><tr><td style="font-weight:bold;vertical-align:top;">extension</td><td style="vertical-align:top;">:</td><td><div>html</div></td></tr><tr><td style="font-weight:bold;vertical-align:top;">folder</td><td style="vertical-align:top;">:</td><td><div>C:\\Users\\Policia\\Desktop\\web2py\\applications\\antecedentesplataforma\\</div></td></tr><tr><td style="font-weight:bold;vertical-align:top;">function</td><td style="vertical-align:top;">:</td><td><div>sin_antecedentes</div></td></tr><tr><td style="font-weight:bold;vertical-align:top;">global_settings</td><td style="vertical-align:top;">:</td><td><div><table><tr><td style="font-weight:bold;vertical-align:top;">app_folders</td><td style="vertical-align:top;">:</td><td><div>set([&#x27;C:\\\\Users\\\\Policia\\\\Desktop\\\\web2py\\\\applications\\\\antecedentesplataforma\\\\&#x27;, &#x27;C:\\\\Users\\\\Policia\\\\Desktop\\\\web2py\\\\applications\\\\admin\\\\&#x27;, &#x27;C:\\\\Users\\\\Policia\\\\Desktop\\\\web2py\\\\applications\\\\welcome\\\\&#x27;])</div></td></tr><tr><td style="font-weight:bold;vertical-align:top;">applications_parent</td><td style="vertical-align:top;">:</td><td><div>C:\\Users\\Policia\\Desktop\\web2py</div></td></tr><tr><td style="font-weight:bold;vertical-align:top;">cmd_args</td><td style="vertical-align:top;">:</td><td><div><table></table></div></td></tr><tr><td style="font-weight:bold;vertical-align:top;">cmd_options</td><td style="vertical-align:top;">:</td><td><div>&lt;Values at 0x2690bc0: {&#x27;verbose&#x27;: False, &#x27;ip&#x27;: &#x27;127.0.0.1&#x27;, &#x27;debuglevel&#x27;: 30, &#x27;with_scheduler&#x27;: False, &#x27;shutdown_timeout&#x27;: 5, &#x27;taskbar&#x27;: False, &#x27;with_coverage&#x27;: False, &#x27;pid_filename&#x27;: &#x27;httpserver.pid&#x27;, &#x27;maxthreads&#x27;: None, &#x27;softcron&#x27;: False, &#x27;server_name&#x27;: &#x27;Policia-PC&#x27;, &#x27;bpython&#x27;: False, &#x27;nogui&#x27;: False, &#x27;port&#x27;: 8000, &#x27;print_errors&#x27;: False, &#x27;extcron&#x27;: False, &#x27;runcron&#x27;: False, &#x27;run_system_tests&#x27;: False, &#x27;test&#x27;: None, &#x27;folder&#x27;: &#x27;C:\\\\Users\\\\Policia\\\\Desktop\\\\web2py&#x27;, &#x27;config&#x27;: &#x27;&#x27;, &#x27;minthreads&#x27;: None, &#x27;shell&#x27;: None, &#x27;run&#x27;: &#x27;&#x27;, &#x27;log_filename&#x27;: &#x27;httpserver.log&#x27;, &#x27;profiler_dir&#x27;: None, &#x27;args&#x27;: [&#x27;&#x27;], &#x27;socket_timeout&#x27;: 5, &#x27;ssl_ca_certificate&#x27;: None, &#x27;scheduler&#x27;: None, &#x27;interfaces&#x27;: None, &#x27;ssl_private_key&#x27;: &#x27;&#x27;, &#x27;gae&#x27;: None, &#x27;password&#x27;: &#x27;******&#x27;, &#x27;request_queue_size&#x27;: 5, &#x27;ssl_certificate&#x27;: &#x27;&#x27;, &#x27;cronjob&#x27;: False, &#x27;numthreads&#x27;: None, &#x27;quiet&#x27;: False, &#x27;import_models&#x27;: False, &#x27;timeout&#x27;: 10, &#x27;plain&#x27;: False, &#x27;nobanner&#x27;: False}&gt;</div></td></tr><tr><td style="font-weight:bold;vertical-align:top;">db_sessions</td><td style="vertical-align:top;">:</td><td><div>set([])</div></td></tr><tr><td style="font-weight:bold;vertical-align:top;">debugging</td><td style="vertical-align:top;">:</td><td><div>False</div></td></tr><tr><td style="font-weight:bold;vertical-align:top;">gluon_parent</td><td style="vertical-align:top;">:</td><td><div>C:\\Users\\Policia\\Desktop\\web2py</div></td></tr><tr><td style="font-weight:bold;vertical-align:top;">is_jython</td><td style="vertical-align:top;">:</td><td><div>False</div></td></tr><tr><td style="font-weight:bold;vertical-align:top;">is_pypy</td><td style="vertical-align:top;">:</td><td><div>False</div></td></tr><tr><td style="font-weight:bold;vertical-align:top;">is_source</td><td style="vertical-align:top;">:</td><td><div>False</div></td></tr><tr><td style="font-weight:bold;vertical-align:top;">local_hosts</td><td style="vertical-align:top;">:</td><td><div><table><tr><td><div>fe80::74c4:5d98:f37e:e92d%87</div></td></tr><tr><td><div>192.168.10.27</div></td></tr><tr><td><div>::ffff:127.0.0.1</div></td></tr><tr><td><div>::1</div></td></tr><tr><td><div>Policia-PC</div></td></tr><tr><td><div>127.0.0.1</div></td></tr></table></div></td></tr><tr><td style="font-weight:bold;vertical-align:top;">web2py_version</td><td style="vertical-align:top;">:</td><td><div>2.14.6-stable+timestamp.2016.05.10.00.21.47</div></td></tr></table></div></td></tr><tr><td style="font-weight:bold;vertical-align:top;">is_https</td><td style="vertical-align:top;">:</td><td><div>False</div></td></tr><tr><td style="font-weight:bold;vertical-align:top;">is_local</td><td style="vertical-align:top;">:</td><td><div>True</div></td></tr><tr><td style="font-weight:bold;vertical-align:top;">is_restful</td><td style="vertical-align:top;">:</td><td><div>False</div></td></tr><tr><td style="font-weight:bold;vertical-align:top;">is_scheduler</td><td style="vertical-align:top;">:</td><td><div>False</div></td></tr><tr><td style="font-weight:bold;vertical-align:top;">is_shell</td><td style="vertical-align:top;">:</td><td><div>False</div></td></tr><tr><td style="font-weight:bold;vertical-align:top;">now</td><td style="vertical-align:top;">:</td><td><div>datetime.datetime(2019, 9, 17, 11, 32, 1, 476000)</div></td></tr><tr><td style="font-weight:bold;vertical-align:top;">raw_args</td><td style="vertical-align:top;">:</td><td><div>2/29482/24954710</div></td></tr><tr><td style="font-weight:bold;vertical-align:top;">raw_extension</td><td style="vertical-align:top;">:</td><td><div>None</div></td></tr><tr><td style="font-weight:bold;vertical-align:top;">url</td><td style="vertical-align:top;">:</td><td><div>/antecedentesplataforma/imprimir/sin_antecedentes/2/29482/24954710</div></td></tr><tr><td style="font-weight:bold;vertical-align:top;">utcnow</td><td style="vertical-align:top;">:</td><td><div>datetime.datetime(2019, 9, 17, 14, 32, 1, 476000)</div></td></tr><tr><td style="font-weight:bold;vertical-align:top;">wsgi</td><td style="vertical-align:top;">:</td><td><div>&lt;gluon.main.LazyWSGI object at 0x07116C30&gt;</div></td></tr></table></div>'
tRp58
sS'frames'
p59
(lp60
(dp61
S'file'
p62
S'C:\\Users\\Policia\\Desktop\\web2py\\gluon\\restricted.py'
p63
sS'dump'
p64
(dp65
S'environment'
p66
S"{'A': <class 'gluon.html.A'>, 'ANY_OF': <class 'gluon.validators.ANY_OF'>, 'ASSIGNJS': <function ASSIGNJS>, 'AppConfig': <function AppConfig>, 'Auth': <class 'gluon.tools.Auth'>, 'B': <class 'gluon.html.B'>, 'BEAUTIFY': <class 'gluon.html.BEAUTIFY'>, 'BODY': <class 'gluon.html.BODY'>, 'BR': <class 'gluon.html.BR'>, 'BUTTON': <class 'gluon.html.BUTTON'>, ...}"
p67
sS'ccode'
p68
S'<code object <module> at 03B04578, file "C:\\User...entesplataforma\\controllers/imprimir.py", line 2>'
p69
ssS'lnum'
p70
I227
sS'lines'
p71
(dp72
I224
S'            ccode = code'
p73
sI225
S'        else:'
p74
sI226
S'            ccode = compile2(code, layer)'
p75
sI227
S'        exec ccode in environment'
p76
sI228
S'    except HTTP:'
p77
sI229
S'        raise'
p78
sI230
S'    except RestrictedError:'
p79
sI231
S'        # do not encapsulate (obfuscate) the original RestrictedError'
p80
sI222
S'    try:'
p81
sI223
S'        if isinstance(code, types.CodeType):'
p82
ssS'call'
p83
S"(code='\\nfrom reportlab.pdfgen import canvas\\n# def encab...esponse._vars=response._caller(sin_antecedentes)\\n', environment={'A': <class 'gluon.html.A'>, 'ANY_OF': <class 'gluon.validators.ANY_OF'>, 'ASSIGNJS': <function ASSIGNJS>, 'AppConfig': <function AppConfig>, 'Auth': <class 'gluon.tools.Auth'>, 'B': <class 'gluon.html.B'>, 'BEAUTIFY': <class 'gluon.html.BEAUTIFY'>, 'BODY': <class 'gluon.html.BODY'>, 'BR': <class 'gluon.html.BR'>, 'BUTTON': <class 'gluon.html.BUTTON'>, ...}, layer=r'C:\\Users\\Policia\\Desktop\\web2py\\applications\\antecedentesplataforma\\controllers/imprimir.py')"
p84
sS'func'
p85
S'restricted'
p86
sa(dp87
g62
S'C:\\Users\\Policia\\Desktop\\web2py\\applications\\antecedentesplataforma\\controllers\\imprimir.py'
p88
sg64
(dp89
sg70
I533
sg71
(dp90
I522
S''
sI523
S''
sI524
S''
sI525
S''
sI526
S''
sI527
S''
sI528
S''
sI529
S''
sI530
S''
sI531
S''
ssg83
S'()'
p91
sg85
S'<module>'
p92
sa(dp93
g62
S'C:\\Users\\Policia\\Desktop\\web2py\\gluon\\globals.py'
p94
sg64
(dp95
S'self'
p96
S'undefined'
p97
sS'f'
S'<function sin_antecedentes>'
p98
ssg70
I417
sg71
(dp99
I416
S'        self._vars = None'
p100
sI417
S'        self._caller = lambda f: f()'
p101
sI418
S'        self._view_environment = None'
p102
sI419
S'        self._custom_commit = None'
p103
sI420
S'        self._custom_rollback = None'
p104
sI421
S"        self.generic_patterns = ['*']"
p105
sI412
S"        self.flash = ''            # used by the default view layout"
p106
sI413
S'        self.meta = Storage()      # used by web2py_ajax.html'
p107
sI414
S'        self.menu = []             # used by the default view layout'
p108
sI415
S'        self.files = []            # used by web2py_ajax.html'
p109
ssg83
S'(f=<function sin_antecedentes>)'
p110
sg85
S'<lambda>'
p111
sa(dp112
g62
S'C:\\Users\\Policia\\Desktop\\web2py\\applications\\antecedentesplataforma\\controllers\\imprimir.py'
p113
sg64
(dp114
S'civil'
p115
S"''"
p116
sS'e_civil'
p117
g97
sS'vil'
p118
S"{'C': 'CASADO/A', 'D': 'DIVORSIADO/A', 'S': 'SOLTERO/A', 'V': 'VIUDO/A'}"
p119
ssg70
I61
sg71
(dp120
I64
S'\tclave={\'1\':"A.G.",\'2\':"C.I.",\'3\':"D.C.P.",\'4\':"D.E.",\'5\':"R.C.",\'6\':"S.P.",\'0\':None} #creo un diccionario para los tipos de prontuario'
p121
sI65
S'\ttipo=pa.IdProntuarioTipo #saco el id del tipo de prontuario'
p122
sI56
S'\tnacion=pa.IdPais\t#saco el id del pais'
p123
sI57
S'\tpaises=db(db.paises.id==nacion).select().first()# hago un set para sacar el pais'
p124
sI58
S'\tpais=paises.pais \t#saco el nombre del pais'
p125
sI59
S'\tvil={"S":"SOLTERO/A","C":"CASADO/A","D":"DIVORSIADO/A","V":"VIUDO/A"} #creo un diccionario'
p126
sI60
S'\tcivil=pa.EstadoCivil\t# capturo el estado civil'
p127
sI61
S'\te_civil=vil[civil]#reemplazo en el diccionario vil'
p128
sI62
S'\tprof=pa.Profesion  #saco la profesion'
p129
sI63
S'\tdirec=pa.Direccion #saco la direccion'
p130
ssg83
S'()'
p131
sg85
S'sin_antecedentes'
p132
sasS'pyver'
p133
S'Python 2.7.9: C:\\Users\\Policia\\Desktop\\web2py\\web2py.exe (prefix: )'
p134
sS'session'
p135
g57
(S's\x15\x0c\x00\x00<div><table><tr><td style="font-weight:bold;vertical-align:top;">auth</td><td style="vertical-align:top;">:</td><td><div><table><tr><td style="font-weight:bold;vertical-align:top;">expiration</td><td style="vertical-align:top;">:</td><td><div>3600</div></td></tr><tr><td style="font-weight:bold;vertical-align:top;">hmac_key</td><td style="vertical-align:top;">:</td><td><div>2aa71a54-e95e-4b45-a86d-3c5a92c61fa7</div></td></tr><tr><td style="font-weight:bold;vertical-align:top;">last_visit</td><td style="vertical-align:top;">:</td><td><div>datetime.datetime(2019, 9, 17, 11, 29, 7, 119000)</div></td></tr><tr><td style="font-weight:bold;vertical-align:top;">remember_me</td><td style="vertical-align:top;">:</td><td><div>False</div></td></tr><tr><td style="font-weight:bold;vertical-align:top;">user</td><td style="vertical-align:top;">:</td><td><div><table><tr><td style="font-weight:bold;vertical-align:top;">dni</td><td style="vertical-align:top;">:</td><td><div>29917029</div></td></tr><tr><td style="font-weight:bold;vertical-align:top;">email</td><td style="vertical-align:top;">:</td><td><div>juan@ulivar.com</div></td></tr><tr><td style="font-weight:bold;vertical-align:top;">first_name</td><td style="vertical-align:top;">:</td><td><div>juan</div></td></tr><tr><td style="font-weight:bold;vertical-align:top;">id</td><td style="vertical-align:top;">:</td><td><div>1L</div></td></tr><tr><td style="font-weight:bold;vertical-align:top;">iniciales</td><td style="vertical-align:top;">:</td><td><div>J.U.</div></td></tr><tr><td style="font-weight:bold;vertical-align:top;">last_name</td><td style="vertical-align:top;">:</td><td><div>ulivar</div></td></tr><tr><td style="font-weight:bold;vertical-align:top;">oficina</td><td style="vertical-align:top;">:</td><td><div>Super</div></td></tr><tr><td style="font-weight:bold;vertical-align:top;">registration_id</td><td style="vertical-align:top;">:</td><td><div></div></td></tr><tr><td style="font-weight:bold;vertical-align:top;">registration_key</td><td style="vertical-align:top;">:</td><td><div></div></td></tr><tr><td style="font-weight:bold;vertical-align:top;">reset_password_key</td><td style="vertical-align:top;">:</td><td><div></div></td></tr><tr><td style="font-weight:bold;vertical-align:top;">username</td><td style="vertical-align:top;">:</td><td><div>uli</div></td></tr></table></div></td></tr><tr><td style="font-weight:bold;vertical-align:top;">user_groups</td><td style="vertical-align:top;">:</td><td><div><table><tr><td style="font-weight:bold;vertical-align:top;">1</td><td style="vertical-align:top;">:</td><td><div>Super</div></td></tr></table></div></td></tr></table></div></td></tr><tr><td style="font-weight:bold;vertical-align:top;">flash</td><td style="vertical-align:top;">:</td><td><div>None</div></td></tr><tr><td style="font-weight:bold;vertical-align:top;">last_orderby</td><td style="vertical-align:top;">:</td><td><div>None</div></td></tr><tr><td style="font-weight:bold;vertical-align:top;">last_query</td><td style="vertical-align:top;">:</td><td><div>db.entrega.id&gt;0</div></td></tr></table></div>'
tRp136
sS'etype'
p137
S"<type 'exceptions.KeyError'>"
p138
sS'date'
p139
S'Tue Sep 17 11:32:02 2019'
p140
sS'response'
p141
g57
(S's\x12A\x00\x00<div><table><tr><td style="font-weight:bold;vertical-align:top;">body</td><td style="vertical-align:top;">:</td><td><div>&lt;cStringIO.StringO object at 0x07116360&gt;</div></td></tr><tr><td style="font-weight:bold;vertical-align:top;">cookies</td><td style="vertical-align:top;">:</td><td><div><table><tr><td style="font-weight:bold;vertical-align:top;">session_id_antecedentesplataforma</td><td style="vertical-align:top;">:</td><td><div>127.0.0.1-b5cc090b-f249-4694-ae26-e044f553bdb0<table><tr><td style="font-weight:bold;vertical-align:top;">comment</td><td style="vertical-align:top;">:</td><td><div></div></td></tr><tr><td style="font-weight:bold;vertical-align:top;">domain</td><td style="vertical-align:top;">:</td><td><div></div></td></tr><tr><td style="font-weight:bold;vertical-align:top;">expires</td><td style="vertical-align:top;">:</td><td><div></div></td></tr><tr><td style="font-weight:bold;vertical-align:top;">httponly</td><td style="vertical-align:top;">:</td><td><div></div></td></tr><tr><td style="font-weight:bold;vertical-align:top;">max-age</td><td style="vertical-align:top;">:</td><td><div></div></td></tr><tr><td style="font-weight:bold;vertical-align:top;">path</td><td style="vertical-align:top;">:</td><td><div>/</div></td></tr><tr><td style="font-weight:bold;vertical-align:top;">secure</td><td style="vertical-align:top;">:</td><td><div></div></td></tr><tr><td style="font-weight:bold;vertical-align:top;">version</td><td style="vertical-align:top;">:</td><td><div></div></td></tr></table></div></td></tr></table></div></td></tr><tr><td style="font-weight:bold;vertical-align:top;">delimiters</td><td style="vertical-align:top;">:</td><td><div><table><tr><td><div>{{</div></td></tr><tr><td><div>}}</div></td></tr></table></div></td></tr><tr><td style="font-weight:bold;vertical-align:top;">files</td><td style="vertical-align:top;">:</td><td><div><table></table></div></td></tr><tr><td style="font-weight:bold;vertical-align:top;">flash</td><td style="vertical-align:top;">:</td><td><div></div></td></tr><tr><td style="font-weight:bold;vertical-align:top;">form_label_separator</td><td style="vertical-align:top;">:</td><td><div></div></td></tr><tr><td style="font-weight:bold;vertical-align:top;">formstyle</td><td style="vertical-align:top;">:</td><td><div>bootstrap3_inline</div></td></tr><tr><td style="font-weight:bold;vertical-align:top;">generic_patterns</td><td style="vertical-align:top;">:</td><td><div><table><tr><td><div>*</div></td></tr></table></div></td></tr><tr><td style="font-weight:bold;vertical-align:top;">google_analytics_id</td><td style="vertical-align:top;">:</td><td><div>None</div></td></tr><tr><td style="font-weight:bold;vertical-align:top;">headers</td><td style="vertical-align:top;">:</td><td><div><table><tr><td style="font-weight:bold;vertical-align:top;">X-Powered-By</td><td style="vertical-align:top;">:</td><td><div>web2py</div></td></tr></table></div></td></tr><tr><td style="font-weight:bold;vertical-align:top;">logo</td><td style="vertical-align:top;">:</td><td><div><a class="navbar-brand" href="http://www.web2py.com/" id="web2py-logo"><b>web<span>2</span>py</b>&trade;&nbsp;</a></div></td></tr><tr><td style="font-weight:bold;vertical-align:top;">menu</td><td style="vertical-align:top;">:</td><td><div><table><tr><td><div><table><tr><td><div>Inicio</div></td></tr><tr><td><div>False</div></td></tr><tr><td><div>/antecedentesplataforma/default/index</div></td></tr><tr><td><div><table></table></div></td></tr></table></div></td></tr><tr><td><div><table><tr><td><div>Mis Sitios</div></td></tr><tr><td><div>False</div></td></tr><tr><td><div>/admin/default/site</div></td></tr></table></div></td></tr><tr><td><div><table><tr><td><div>Esta Aplicaci\xc3\xb3n</div></td></tr><tr><td><div>False</div></td></tr><tr><td><div>#</div></td></tr><tr><td><div><table><tr><td><div><table><tr><td><div>Design</div></td></tr><tr><td><div>False</div></td></tr><tr><td><div>/admin/default/design/antecedentesplataforma</div></td></tr></table></div></td></tr><tr><td><div><li class="divider"></li></div></td></tr><tr><td><div><table><tr><td><div>Controlador</div></td></tr><tr><td><div>False</div></td></tr><tr><td><div>/admin/default/edit/antecedentesplataforma/controllers/imprimir.py</div></td></tr></table></div></td></tr><tr><td><div><table><tr><td><div>Vista</div></td></tr><tr><td><div>False</div></td></tr><tr><td><div>/admin/default/edit/antecedentesplataforma/views/imprimir/sin_antecedentes.html</div></td></tr></table></div></td></tr><tr><td><div><table><tr><td><div>Modelo BDD</div></td></tr><tr><td><div>False</div></td></tr><tr><td><div>/admin/default/edit/antecedentesplataforma/models/db.py</div></td></tr></table></div></td></tr><tr><td><div><table><tr><td><div>Modelo "menu"</div></td></tr><tr><td><div>False</div></td></tr><tr><td><div>/admin/default/edit/antecedentesplataforma/models/menu.py</div></td></tr></table></div></td></tr><tr><td><div><table><tr><td><div>Config.ini</div></td></tr><tr><td><div>False</div></td></tr><tr><td><div>/admin/default/edit/antecedentesplataforma/private/appconfig.ini</div></td></tr></table></div></td></tr><tr><td><div><table><tr><td><div>Dise\xc3\xb1o de p\xc3\xa1gina</div></td></tr><tr><td><div>False</div></td></tr><tr><td><div>/admin/default/edit/antecedentesplataforma/views/layout.html</div></td></tr></table></div></td></tr><tr><td><div><table><tr><td><div>Hoja de estilo</div></td></tr><tr><td><div>False</div></td></tr><tr><td><div>/admin/default/edit/antecedentesplataforma/static/css/web2py-bootstrap3.css</div></td></tr></table></div></td></tr><tr><td><div><table><tr><td><div>Base de datos</div></td></tr><tr><td><div>False</div></td></tr><tr><td><div>/antecedentesplataforma/appadmin/index</div></td></tr></table></div></td></tr><tr><td><div><table><tr><td><div>Errores</div></td></tr><tr><td><div>False</div></td></tr><tr><td><div>/admin/default/errors/antecedentesplataforma</div></td></tr></table></div></td></tr><tr><td><div><table><tr><td><div>Acerca de</div></td></tr><tr><td><div>False</div></td></tr><tr><td><div>/admin/default/about/antecedentesplataforma</div></td></tr></table></div></td></tr></table></div></td></tr></table></div></td></tr><tr><td><div><table><tr><td><div>web2py.com</div></td></tr><tr><td><div>False</div></td></tr><tr><td><div>#</div></td></tr><tr><td><div><table><tr><td><div><table><tr><td><div>Descargas</div></td></tr><tr><td><div>False</div></td></tr><tr><td><div>http://www.web2py.com/examples/default/download</div></td></tr></table></div></td></tr><tr><td><div><table><tr><td><div>Soporte</div></td></tr><tr><td><div>False</div></td></tr><tr><td><div>http://www.web2py.com/examples/default/support</div></td></tr></table></div></td></tr><tr><td><div><table><tr><td><div>Demostraci\xc3\xb3n</div></td></tr><tr><td><div>False</div></td></tr><tr><td><div>http://web2py.com/demo_admin</div></td></tr></table></div></td></tr><tr><td><div><table><tr><td><div>Ejemplos R\xc3\xa1pidos</div></td></tr><tr><td><div>False</div></td></tr><tr><td><div>http://web2py.com/examples/default/examples</div></td></tr></table></div></td></tr><tr><td><div><table><tr><td><div>FAQ</div></td></tr><tr><td><div>False</div></td></tr><tr><td><div>http://web2py.com/AlterEgo</div></td></tr></table></div></td></tr><tr><td><div><table><tr><td><div>V\xc3\xaddeos</div></td></tr><tr><td><div>False</div></td></tr><tr><td><div>http://www.web2py.com/examples/default/videos/</div></td></tr></table></div></td></tr><tr><td><div><table><tr><td><div>Aplicaciones Libres</div></td></tr><tr><td><div>False</div></td></tr><tr><td><div>http://web2py.com/appliances</div></td></tr></table></div></td></tr><tr><td><div><table><tr><td><div>Plugins</div></td></tr><tr><td><div>False</div></td></tr><tr><td><div>http://web2py.com/plugins</div></td></tr></table></div></td></tr><tr><td><div><table><tr><td><div>Recetas</div></td></tr><tr><td><div>False</div></td></tr><tr><td><div>http://web2pyslices.com/</div></td></tr></table></div></td></tr></table></div></td></tr></table></div></td></tr><tr><td><div><table><tr><td><div>Documentaci\xc3\xb3n</div></td></tr><tr><td><div>False</div></td></tr><tr><td><div>#</div></td></tr><tr><td><div><table><tr><td><div><table><tr><td><div>Online book</div></td></tr><tr><td><div>False</div></td></tr><tr><td><div>http://www.web2py.com/book</div></td></tr></table></div></td></tr><tr><td><div><li class="divider"></li></div></td></tr><tr><td><div><table><tr><td><div>Prefacio</div></td></tr><tr><td><div>False</div></td></tr><tr><td><div>http://www.web2py.com/book/default/chapter/00</div></td></tr></table></div></td></tr><tr><td><div><table><tr><td><div>Introducci\xc3\xb3n</div></td></tr><tr><td><div>False</div></td></tr><tr><td><div>http://www.web2py.com/book/default/chapter/01</div></td></tr></table></div></td></tr><tr><td><div><table><tr><td><div>Python</div></td></tr><tr><td><div>False</div></td></tr><tr><td><div>http://www.web2py.com/book/default/chapter/02</div></td></tr></table></div></td></tr><tr><td><div><table><tr><td><div>Resumen</div></td></tr><tr><td><div>False</div></td></tr><tr><td><div>http://www.web2py.com/book/default/chapter/03</div></td></tr></table></div></td></tr><tr><td><div><table><tr><td><div>El N\xc3\xbacleo</div></td></tr><tr><td><div>False</div></td></tr><tr><td><div>http://www.web2py.com/book/default/chapter/04</div></td></tr></table></div></td></tr><tr><td><div><table><tr><td><div>Las Vistas</div></td></tr><tr><td><div>False</div></td></tr><tr><td><div>http://www.web2py.com/book/default/chapter/05</div></td></tr></table></div></td></tr><tr><td><div><table><tr><td><div>Base de datos</div></td></tr><tr><td><div>False</div></td></tr><tr><td><div>http://www.web2py.com/book/default/chapter/06</div></td></tr></table></div></td></tr><tr><td><div><table><tr><td><div>Formularios y validadores</div></td></tr><tr><td><div>False</div></td></tr><tr><td><div>http://www.web2py.com/book/default/chapter/07</div></td></tr></table></div></td></tr><tr><td><div><table><tr><td><div>Correo electr\xc3\xb3nico y SMS</div></td></tr><tr><td><div>False</div></td></tr><tr><td><div>http://www.web2py.com/book/default/chapter/08</div></td></tr></table></div></td></tr><tr><td><div><table><tr><td><div>Control de Acceso</div></td></tr><tr><td><div>False</div></td></tr><tr><td><div>http://www.web2py.com/book/default/chapter/09</div></td></tr></table></div></td></tr><tr><td><div><table><tr><td><div>Servicios</div></td></tr><tr><td><div>False</div></td></tr><tr><td><div>http://www.web2py.com/book/default/chapter/10</div></td></tr></table></div></td></tr><tr><td><div><table><tr><td><div>Recetas AJAX</div></td></tr><tr><td><div>False</div></td></tr><tr><td><div>http://www.web2py.com/book/default/chapter/11</div></td></tr></table></div></td></tr><tr><td><div><table><tr><td><div>Componentes y Plugins</div></td></tr><tr><td><div>False</div></td></tr><tr><td><div>http://www.web2py.com/book/default/chapter/12</div></td></tr></table></div></td></tr><tr><td><div><table><tr><td><div>Recetas de despliegue</div></td></tr><tr><td><div>False</div></td></tr><tr><td><div>http://www.web2py.com/book/default/chapter/13</div></td></tr></table></div></td></tr><tr><td><div><table><tr><td><div>Otras Recetas</div></td></tr><tr><td><div>False</div></td></tr><tr><td><div>http://www.web2py.com/book/default/chapter/14</div></td></tr></table></div></td></tr><tr><td><div><table><tr><td><div>Helping web2py</div></td></tr><tr><td><div>False</div></td></tr><tr><td><div>http://www.web2py.com/book/default/chapter/15</div></td></tr></table></div></td></tr><tr><td><div><table><tr><td><div>Buy web2py\'s book</div></td></tr><tr><td><div>False</div></td></tr><tr><td><div>http://stores.lulu.com/web2py</div></td></tr></table></div></td></tr></table></div></td></tr></table></div></td></tr><tr><td><div><table><tr><td><div>Comunidad</div></td></tr><tr><td><div>False</div></td></tr><tr><td><div>None</div></td></tr><tr><td><div><table><tr><td><div><table><tr><td><div>Grupos</div></td></tr><tr><td><div>False</div></td></tr><tr><td><div>http://www.web2py.com/examples/default/usergroups</div></td></tr></table></div></td></tr><tr><td><div><table><tr><td><div>Twitter</div></td></tr><tr><td><div>False</div></td></tr><tr><td><div>http://twitter.com/web2py</div></td></tr></table></div></td></tr><tr><td><div><table><tr><td><div>Chat en vivo</div></td></tr><tr><td><div>False</div></td></tr><tr><td><div>http://webchat.freenode.net/?channels=web2py</div></td></tr></table></div></td></tr></table></div></td></tr></table></div></td></tr></table></div></td></tr><tr><td style="font-weight:bold;vertical-align:top;">meta</td><td style="vertical-align:top;">:</td><td><div><table><tr><td style="font-weight:bold;vertical-align:top;">author</td><td style="vertical-align:top;">:</td><td><div>Your Name &lt;you@example.com&gt;</div></td></tr><tr><td style="font-weight:bold;vertical-align:top;">description</td><td style="vertical-align:top;">:</td><td><div>a cool new app</div></td></tr><tr><td style="font-weight:bold;vertical-align:top;">generator</td><td style="vertical-align:top;">:</td><td><div>Web2py Web Framework</div></td></tr><tr><td style="font-weight:bold;vertical-align:top;">keywords</td><td style="vertical-align:top;">:</td><td><div><table><tr><td><div>web2py</div></td></tr><tr><td><div>python</div></td></tr><tr><td><div>framework</div></td></tr></table></div></td></tr></table></div></td></tr><tr><td style="font-weight:bold;vertical-align:top;">models_to_run</td><td style="vertical-align:top;">:</td><td><div><table><tr><td><div>^\\w+\\.py$</div></td></tr><tr><td><div>^imprimir/\\w+\\.py$</div></td></tr><tr><td><div>^imprimir/sin_antecedentes/\\w+\\.py$</div></td></tr></table></div></td></tr><tr><td style="font-weight:bold;vertical-align:top;">postprocessing</td><td style="vertical-align:top;">:</td><td><div><table></table></div></td></tr><tr><td style="font-weight:bold;vertical-align:top;">session_client</td><td style="vertical-align:top;">:</td><td><div>127.0.0.1</div></td></tr><tr><td style="font-weight:bold;vertical-align:top;">session_cookie_compression_level</td><td style="vertical-align:top;">:</td><td><div>None</div></td></tr><tr><td style="font-weight:bold;vertical-align:top;">session_cookie_expires</td><td style="vertical-align:top;">:</td><td><div>None</div></td></tr><tr><td style="font-weight:bold;vertical-align:top;">session_data_name</td><td style="vertical-align:top;">:</td><td><div>session_data_antecedentesplataforma</div></td></tr><tr><td style="font-weight:bold;vertical-align:top;">session_file</td><td style="vertical-align:top;">:</td><td><div>&lt;open file &#x27;C:\\\\Users\\\\Policia\\\\Desktop\\\\web2py\\\\applications\\\\antecedentesplataforma\\\\sessions\\\\071\\\\1b9\\\\127.0.0.1-b5cc090b-f249-4694-ae26-e044f553bdb0&#x27;, mode &#x27;rb+&#x27; at 0x07021A18&gt;</div></td></tr><tr><td style="font-weight:bold;vertical-align:top;">session_filename</td><td style="vertical-align:top;">:</td><td><div>C:\\Users\\Policia\\Desktop\\web2py\\applications\\antecedentesplataforma\\sessions\\127.0.0.1-b5cc090b-f249-4694-ae26-e044f553bdb0</div></td></tr><tr><td style="font-weight:bold;vertical-align:top;">session_hash</td><td style="vertical-align:top;">:</td><td><div>497ff448ebe9adfef606dd85711befd5</div></td></tr><tr><td style="font-weight:bold;vertical-align:top;">session_id</td><td style="vertical-align:top;">:</td><td><div>127.0.0.1-b5cc090b-f249-4694-ae26-e044f553bdb0</div></td></tr><tr><td style="font-weight:bold;vertical-align:top;">session_id_name</td><td style="vertical-align:top;">:</td><td><div>session_id_antecedentesplataforma</div></td></tr><tr><td style="font-weight:bold;vertical-align:top;">session_locked</td><td style="vertical-align:top;">:</td><td><div>True</div></td></tr><tr><td style="font-weight:bold;vertical-align:top;">session_masterapp</td><td style="vertical-align:top;">:</td><td><div>antecedentesplataforma</div></td></tr><tr><td style="font-weight:bold;vertical-align:top;">session_new</td><td style="vertical-align:top;">:</td><td><div>False</div></td></tr><tr><td style="font-weight:bold;vertical-align:top;">session_storage_type</td><td style="vertical-align:top;">:</td><td><div>file</div></td></tr><tr><td style="font-weight:bold;vertical-align:top;">status</td><td style="vertical-align:top;">:</td><td><div>200</div></td></tr><tr><td style="font-weight:bold;vertical-align:top;">subtitle</td><td style="vertical-align:top;">:</td><td><div></div></td></tr><tr><td style="font-weight:bold;vertical-align:top;">title</td><td style="vertical-align:top;">:</td><td><div>Antecedentesplataforma</div></td></tr><tr><td style="font-weight:bold;vertical-align:top;">view</td><td style="vertical-align:top;">:</td><td><div>imprimir/sin_antecedentes.html</div></td></tr></table></div>'
tRp142
sS'locals'
p143
(dp144
S'ide_padron'
p145
S"'29482'"
p146
sS'pasa'
p147
S"''"
p148
sS'nom'
p149
S"'MERCEDES DEL VALLE'"
p150
sS'civil'
p151
S"''"
p152
sS'vil'
p153
S"{'C': 'CASADO/A', 'D': 'DIVORSIADO/A', 'S': 'SOLTERO/A', 'V': 'VIUDO/A'}"
p154
sS'datetime'
p155
S"<type 'datetime.datetime'>"
p156
sS'MINYEAR'
p157
S'1'
sS'hoyfecha'
p158
S'datetime.datetime(2019, 9, 17, 11, 32, 2, 651000)'
p159
sS'ape'
p160
S"'ORTEGA,'"
p161
sS'ide_soli'
p162
S"'2'"
p163
sS'dni'
p164
S"'24954710'"
p165
sS'pa'
p166
S"<Row {'Pasaporte': '', 'DocumentoNro': '24954710...MERCEDES DEL VALLE', 'IdPais': 1L, 'id': 29482L}>"
p167
sS'valor'
p168
S"'24954710'"
p169
sS'tzinfo'
p170
S"<type 'datetime.tzinfo'>"
p171
sS'anio'
p172
S"'2019'"
p173
sS'timedelta'
p174
S"<type 'datetime.timedelta'>"
p175
sS'clase'
p176
S"'1975'"
p177
sS'DNI'
p178
S"'24954710'"
p179
sS'mes'
p180
S"'9'"
p181
sg139
S"<type 'datetime.date'>"
p182
sS'pais'
p183
S"'ARGENTINA'"
p184
sS'pesa'
p185
S'8'
sS'paises'
p186
S"<Row {'pais': 'ARGENTINA', 'id': 1L, 'padron': <Set (padron.IdPais = 1)>}>"
p187
sS'MAXYEAR'
p188
S'9999'
p189
sS'qmes'
p190
S"'SEPTIEMBRE'"
p191
sS'dia'
p192
S"'17'"
p193
sS'nacion'
p194
S'1L'
p195
sS'datetime_CAPI'
p196
S'<capsule object "datetime.datetime_CAPI">'
p197
sS'time'
p198
S"<type 'datetime.time'>"
p199
sS'meses'
p200
S"{'1': 'ENERO', '10': 'OCTUBRE', '11': 'NOVIEMBRE', '12': 'DICIEMBRE', '2': 'FEBRERO', '3': 'MARZO', '4': 'ABRIL', '5': 'MAYO', '6': 'JUNIO', '7': 'JULIO', ...}"
p201
sssS'traceback'
p202
S'Traceback (most recent call last):\n  File "C:\\Users\\Policia\\Desktop\\web2py\\gluon\\restricted.py", line 227, in restricted\n    exec ccode in environment\n  File "C:\\Users\\Policia\\Desktop\\web2py\\applications\\antecedentesplataforma\\controllers/imprimir.py", line 533, in <module>\n  File "C:\\Users\\Policia\\Desktop\\web2py\\gluon\\globals.py", line 417, in <lambda>\n    self._caller = lambda f: f()\n  File "C:\\Users\\Policia\\Desktop\\web2py\\applications\\antecedentesplataforma\\controllers/imprimir.py", line 61, in sin_antecedentes\n    e_civil=vil[civil]#reemplazo en el diccionario vil\nKeyError: \'\'\n'
p203
s.