(dp1
S'output'
p2
S"<type 'exceptions.NameError'> name 'formulario' is not defined"
p3
sS'layer'
p4
S'D:\\web2py\\applications\\antecedentesplataforma\\views\\confeccion/procesar.html'
p5
sS'code'
p6
S'response.write(\'<!DOCTYPE html>\\n<html>\\n\\n\\n<!-- Mirrored from webapplayers.com/inspinia_admin-v2.8/empty_page.html by HTTrack Website Copier/3.x [XR&CO\\\'2014], Fri, 29 Jun 2018 13:54:48 GMT -->\\n<head>\\n\\n    <meta charset="utf-8">\\n    <meta name="viewport" content="width=device-width, initial-scale=1.0">\\n\\n    <title>Polic\\xc3\\xada de Catamarca | Sistema de Confeccion</title>\\n\\n    <link href="\', escape=False)\nresponse.write(URL(\'static\', \'assets/css/bootstrap.min.css\'))\nresponse.write(\'" rel="stylesheet">\\n    <link href="\', escape=False)\nresponse.write(URL(\'static\', \'assets/font-awesome/css/font-awesome.css\' ))\nresponse.write(\'" rel="stylesheet">\\n\\n    <link href="\', escape=False)\nresponse.write(URL(\'static\', \'assets/css/plugins/dataTables/datatables.min.css\'))\nresponse.write(\'" rel="stylesheet">\\n\\n    <link href="\', escape=False)\nresponse.write(URL(\'static\', \'assets/css/animate.css\' ))\nresponse.write(\'" rel="stylesheet">\\n    <link href="\', escape=False)\nresponse.write(URL(\'static\', \'assets/css/style.css\' ))\nresponse.write(\'" rel="stylesheet">\\n\\n</head>\\n\\n<body class="">\\n\\n    <div id="wrapper">\\n\\n    <nav class="navbar-default navbar-static-side" role="navigation">\\n        <div class="sidebar-collapse">\\n            <ul class="nav metismenu" id="side-menu">\\n                <li class="nav-header">\\n                    <div class="dropdown profile-element">\\n                        <img alt="image" class="rounded-circle" src="\', escape=False)\nresponse.write(URL(\'static\', \'assets/img/user.png\'))\nresponse.write(\'"/>\\n                        <a data-toggle="dropdown" class="dropdown-toggle" href="#">\\n                            <span class="block m-t-xs font-bold"></span>\\n                            <span class="text-muted text-xs block"> \', escape=False)\nresponse.write(str.upper(auth.user.first_name))\nresponse.write(\'&nbsp;<b class="caret"></b></span>\\n                        </a>\\n                        <ul class="dropdown-menu animated fadeInRight m-t-xs">\\n                            <li><a class="dropdown-item" href="profile.html">\', escape=False)\nresponse.write(str.upper(auth.user.first_name))\nresponse.write(\'</a></li>\\n                            <li><a class="dropdown-item" href="contacts.html">Cambiar Contrase\\xc3\\xb1a</a></li>\\n                            \\n                            <li class="dropdown-divider"></li>\\n                            <li><a class="dropdown-item" href="\', escape=False)\nresponse.write(URL(\'default\', \'user\', args=(\'logout\')))\nresponse.write(\'">Salir</a></li>\\n                        </ul>\\n                    </div>\\n                    <div class="logo-element">\\n                        D4\\n                    </div>\\n                </li>\\n               \\n               \', escape=False)\nif auth.user.oficina == \'Super\' or auth.user.oficina == \'Confeccion\':\n    response.write(\' \\n                <li>\\n                        <a href="#"><i class="fa fa-plus-square-o"></i> <span class="nav-label">Sistema Confeccion </span><span class="fa arrow"></span></a>\\n                        <ul class="nav nav-second-level collapse">\\n\\n\\n                            <li>\\n                                <a href="#" id="damian"><i class="fa fa-check-square-o"></i>Mesa de entrada <span class="fa arrow"></span></a>\\n                                <ul class="nav nav-third-level">\\n                                    <li><a href="\', escape=False)\n    response.write(URL(\'entrada\', \'ingreso\'))\n    response.write(\'">Generar Solicitud</a></li>\\n                                    <li><a href="\', escape=False)\n    response.write(URL(\'entrada\', \'form_ver_estado\'))\n    response.write(\'">Ver Estado</a></li>                              \\n                                    <li><a href="\', escape=False)\n    response.write(URL(\'entrada\', \'ingreso_aso\'))\n    response.write(\'">Entregar certicado</a></li>\\n                                    \\n                                </ul>\\n                            </li>\\n                            <li><a href="#"><i class="fa fa-hand-o-up"></i>Archivo<span class="fa arrow"></span></a>\\n                                <ul class="nav nav-third-level">\\n                                    <li><a href="\', escape=False)\n    response.write(URL(\'archivo\', \'form_archivo\'))\n    response.write(\'">Archivo</a></li>\\n                                   \\n\\n                                </ul>\\n                            </li>\\n                            \\n                            <li>\\n                                <a href="#"><i class="fa fa-binoculars"></i>Confecci\\xc3\\xb2n<span class="fa arrow"></span></a>\\n                                <ul class="nav nav-third-level">\\n                                    <li><a href="\', escape=False)\n    response.write(URL(\'confeccion\', \'por_sistema\'))\n    response.write(\'">Imprimir ingresados por Sistema</a></li>\\n                                    <li><a href="\', escape=False)\n    response.write(URL(\'confeccion\', \'historial\'))\n    response.write(\'">Modificar datos del solicitante</a></li>\\n                                    <li><a href="\', escape=False)\n    response.write(URL(\'confeccion\', \'historial\'))\n    response.write(\'">Certificados Impresos</a></li>\\n                                    <li><a href="\', escape=False)\n    response.write(URL(\'confeccion\', \'historial\'))\n    response.write(\'">Configurar margenes</a></li> \\n                                    \\n\\n                                </ul>\\n                            </li>\\n                            \\n                           \\n                            <li>\\n                                <a href="#"><i class="fa fa-user-circle-o"></i>Usuarios<span class="fa arrow"></span></a>\\n                                <ul class="nav nav-third-level">\\n                                    <li><a href="\', escape=False)\n    response.write(URL(\'asesoria\', \'usuario_letrada\'))\n    response.write(\'">Listado</a></li>\\n\\n                                </ul>\\n                            </li>\\n                           \\n                        </ul>\\n                    </li>\\n                \\n                \', escape=False)\n    pass\nresponse.write(\'\\n               \\n                \', escape=False)\nif auth.user.oficina == \'Super\' or auth.user.oficina == \'Confeccion\':\n    response.write(\'\\n                <li>\\n                    <a href="#"><i class="fa fa-linode"></i> <span class="nav-label">DESPACHO J1</span><span class="fa arrow"></span></a>\\n                    <ul class="nav nav-second-level collapse">\\n                        <li><a href="typography.html">Typography</a></li>\\n                        <li><a href="icons.html">Icons</a></li>\\n                        <li><a href="draggable_panels.html">Draggable Panels</a></li> <li><a href="resizeable_panels.html">Resizeable Panels</a></li>\\n                        <li><a href="buttons.html">Buttons</a></li>\\n                        <li><a href="video.html">Video</a></li>\\n                        <li><a href="tabs_panels.html">Panels</a></li>\\n                        <li><a href="tabs.html">Tabs</a></li>\\n                        <li><a href="notifications.html">Notifications & Tooltips</a></li>\\n                        <li><a href="helper_classes.html">Helper css classes</a></li>\\n                        <li><a href="badges_labels.html">Badges, Labels, Progress</a></li>\\n                    </ul>\\n                </li>\\n                \', escape=False)\n    pass\nresponse.write(\'\\n\\n                \', escape=False)\nif auth.user.oficina == \'Super\' or auth.user.oficina == \'Confeccion\':\n    response.write(\'\\n                \\n                <li>\\n                    <a href="#"><i class="fa fa-gear"></i> <span class="nav-label">DESPACHO J2</span><span class="fa arrow"></span></a>\\n                    <ul class="nav nav-second-level collapse">\\n                        <li><a href="table_basic.html">Static Tables</a></li>\\n                        <li><a href="table_data_tables.html">Data Tables</a></li>\\n                        <li><a href="table_foo_table.html">Foo Tables</a></li>\\n                        <li><a href="jq_grid.html">jqGrid</a></li>\\n                    </ul>\\n                </li>\\n                \', escape=False)\n    pass\nresponse.write(\'      \\n            </ul>\\n\\n        </div>\\n    </nav>\\n\\n        <div id="page-wrapper" class="gray-bg">\\n        <div class="row border-bottom">\\n        <nav class="navbar navbar-static-top  " role="navigation" style="margin-bottom: 0">\\n\\n        <div class="navbar-header">\\n         <!--   <a class="navbar-minimalize minimalize-styl-2 btn btn-primary " href="#"><i class="fa fa-bars"></i> </a> -->\\n           \\n        </div> \\n\\n            <ul class="nav navbar-top-links navbar-right ">\\n              \\n\\n                <li>\\n                    <a href="\', escape=False)\nresponse.write(URL(\'default\', \'user\', args=(\'logout\')))\nresponse.write(\'">\\n                        <i class="fa fa-sign-out "></i> Cerrar Sesi\\xc3\\xb3n\\n                    </a>\\n                </li>\\n            </ul>\\n\\n        </nav>\\n        </div>\\n            <div class="row wrapper border-bottom white-bg page-heading">\\n                <div class="col-sm-12">\\n                    \', escape=False)\nresponse.write(\'\\r\\n    <h2>Asesor\\xc3\\xada Letrada - Sistema de Expedientes</h2>\\r\\n    <ol class="breadcrumb">\\r\\n      <li class="breadcrumb-item">\\r\\n        <a href="\', escape=False)\nresponse.write(URL(c=\'default\',f=\'index\'))\nresponse.write(\'">Home</a>\\r\\n      </li>\\r\\n      <li class="breadcrumb-item active">\\r\\n        <strong>Ingreso </strong>\\r\\n      </li>\\r\\n    </ol>\\r\\n\', escape=False)\nresponse.write(\'\\n\\n                   \\n                </div>\\n                \\n            </div>\\n\\n\\n            <div class="wrapper wrapper-content">\\n               \', escape=False)\nresponse.write(\'\\r\\n\\r\\n\\r\\n\\r\\n\\r\\n\\r\\n\\r\\n\', escape=False)\nresponse.write(\'\\r\\n\\r\\n\\r\\n\\r\\n\\r\\n\\r\\n<h3 class="animated fadeIn">Formulario de Consulta</h3>\\r\\n<br>\\r\\n<br>\\r\\n<br>\\r\\n<br>\\r\\n\\r\\n<br>\\r\\n\\r\\n<div class="row">\\r\\n\\t<div class="col-lg-4">\\r\\n\\r\\n\\r\\n\\t</div>\\r\\n\\t<div class="col-lg-4">\\r\\n\\t\\t<div class="ibox ">\\r\\n\\t\\t\\t<div class="ibox-title">\\r\\n\\t\\t\\t\\t<h5>Ingreso de Expediente</h5> <span class="label label-success"><i class="fa fa-hand-o-up"></i></span>\\r\\n\\t\\t\\t</div>\\r\\n\\r\\n\\t\\t\\t<div class="ibox-content">\\r\\n\\t\\t\\t\\t<br>\\r\\n\\t\\t\\t\\t\\r\\n\\t\\t\\t\\t\\t\', escape=False)\nresponse.write(formulario.custom.begin)\nresponse.write(\'\\r\\n\\r\\n\\t\\t\\t\\t    <div class="form-group">\\r\\n\\t\\t\\t\\t    \\t <label><strong>Letra</strong></label>\\r\\n\\t\\t\\t\\t        \', escape=False)\nformulario.custom.widget.letra["_style"] = "text-transform:uppercase"\nresponse.write(\'\\r\\n\\t\\t\\t\\t        \', escape=False)\nresponse.write(formulario.custom.widget.letra)\nresponse.write(\'\\r\\n\\r\\n\\t\\t\\t\\t    </div>\\r\\n\\t\\t\\t\\t    <div class="form-group">\\r\\n\\t\\t\\t\\t    \\t <label><strong>N\\xc3\\xbamero</strong></label>\\r\\n\\t\\t\\t\\t         \', escape=False)\nform.custom.widget.numero["_type"] = "number"\nresponse.write(\'\\r\\n\\t\\t\\t\\t         \', escape=False)\nresponse.write(form.custom.widget.numero)\nresponse.write(\'\\r\\n\\t\\t\\t\\t    </div>\\r\\n\\t\\t\\t\\t    <div class="form-group">\\r\\n\\t\\t\\t\\t          <label><strong>A\\xc3\\xb1o</strong></label>\\r\\n\\t\\t\\t\\t          \', escape=False)\nform.custom.widget.ano["_type"] = "number"\nresponse.write(\'\\r\\n\\t\\t\\t\\t         \', escape=False)\nresponse.write(form.custom.widget.ano)\nresponse.write(\'\\r\\n\\t\\t\\t\\t    </div>\\r\\n\\t\\t\\t\\t\\t    <button type="submit" class="btn btn-primary block full-width m-b">Acceder</button>\\r\\n\\r\\n\\t\\t\\t\\t\\t\', escape=False)\nresponse.write(form.custom.end)\nresponse.write(\'\\r\\n\\r\\n\\r\\n\\r\\n\\r\\n\\t\\t\\t</div>\\r\\n\\t\\t</div>\\r\\n\\r\\n\\t</div>\\r\\n\\t<div class="col-lg-4">\\r\\n\\t\\t\\r\\n\\t</div>\\r\\n\\r\\n</div>\\r\\n\\r\\n\\r\\n<br>\\r\\n\', escape=False)\nresponse.write(ide_soli)\nresponse.write(\'\\r\\n\', escape=False)\nresponse.write(dnpa_soli)\nresponse.write(\'\\r\\n\', escape=False)\nresponse.write(iniciales)\nresponse.write(\'\\r\\n\\r\\n\', escape=False)\nresponse.write(capital_soli)\nresponse.write(\'\\r\\n\', escape=False)\nresponse.write(soli_por_soli)\nresponse.write(\'\\r\\n\', escape=False)\nresponse.write(ide_padron)\nresponse.write(\'\\r\\n\', escape=False)\nresponse.write(dni_padron)\nresponse.write(\'\\r\\n\', escape=False)\nresponse.write(pasa_padron)\nresponse.write(\'\\r\\n\', escape=False)\nresponse.write(apellido_padron)\nresponse.write(\'\\r\\n\', escape=False)\nresponse.write(nombre_padron)\nresponse.write(\'\\r\\n\', escape=False)\nresponse.write(te)\nresponse.write(\'\\r\\n\', escape=False)\nresponse.write(num_padron)\nresponse.write(\'\\r\\n\', escape=False)\nresponse.write(domi_padron)\nresponse.write(\'\\r\\n\', escape=False)\nresponse.write(prof_padron)\nresponse.write(\'\\r\\n\', escape=False)\nresponse.write(civil_padron)\nresponse.write(\'\\r\\n\', escape=False)\nresponse.write(clase_padron)\nresponse.write(\'\\r\\n\', escape=False)\nresponse.write(pais_padron)\nresponse.write(\'\\r\\n\', escape=False)\nresponse.write(form)\nresponse.write(\'\\r\\n\\r\\n\\r\\n\', escape=False)\nresponse.write(\'\\n            </div>\\n            <div class="footer">\\n                <div class="float-right">\\n                    <strong>Copyright</strong> Div. Inform\\xc3\\xa1tica Dpto. Investigaciones Judiciales D-5 <strong>&copy;</strong> 2018\\n                </div>\\n                \\n            </div>\\n\\n        </div>\\n        </div>\\n\\n    <!-- Mainly scripts -->\\n    <script src="\', escape=False)\nresponse.write(URL(\'static\', \'assets/js/jquery-3.1.1.min.js\'))\nresponse.write(\'"></script>\\n    <script src="\', escape=False)\nresponse.write(URL(\'static\', \'assets/js/popper.min.js\'))\nresponse.write(\'"></script>\\n    <script src="\', escape=False)\nresponse.write(URL(\'static\', \'assets/js/bootstrap.js\'))\nresponse.write(\'"></script>\\n    <script src="\', escape=False)\nresponse.write(URL(\'static\', \'assets/js/plugins/metisMenu/jquery.metisMenu.js\'))\nresponse.write(\'"></script>\\n    <script src="\', escape=False)\nresponse.write(URL(\'static\', \'assets/js/plugins/slimscroll_DA_PROBLEMAS/jquery.slimscroll.min.js\'))\nresponse.write(\'"></script>\\n\\n    <script src="\', escape=False)\nresponse.write(URL(\'static\', \'assets/js/plugins/dataTables/datatables.min.js\'))\nresponse.write(\'"></script>\\n    <script src="\', escape=False)\nresponse.write(URL(\'static\', \'assets/js/plugins/dataTables/dataTables.bootstrap4.min.js\'))\nresponse.write(\'"></script>\\n\\n    <!-- Custom and plugin javascript -->\\n    <script src="\', escape=False)\nresponse.write(URL(\'static\', \'assets/js/inspinia.js\'))\nresponse.write(\'"></script>\\n    <script src="\', escape=False)\nresponse.write(URL(\'static\', \'assets/js/plugins/pace/pace.min.js\'))\nresponse.write(\'"></script>\\n\\n\\n   \\n\\n</body>\\n\\n\\n<!-- Mirrored from webapplayers.com/inspinia_admin-v2.8/empty_page.html by HTTrack Website Copier/3.x [XR&CO\\\'2014], Fri, 29 Jun 2018 13:54:48 GMT -->\\n</html>\\n\', escape=False)'
p7
sS'snapshot'
p8
(dp9
S'exception'
p10
(dp11
S'__hash__'
p12
S"<method-wrapper '__hash__' of exceptions.NameError object>"
p13
sS'__setattr__'
p14
S"<method-wrapper '__setattr__' of exceptions.NameError object>"
p15
sS'__reduce_ex__'
p16
S'<built-in method __reduce_ex__ of exceptions.NameError object>'
p17
sS'__getslice__'
p18
S"<method-wrapper '__getslice__' of exceptions.NameError object>"
p19
sS'__getitem__'
p20
S"<method-wrapper '__getitem__' of exceptions.NameError object>"
p21
sS'__setstate__'
p22
S'<built-in method __setstate__ of exceptions.NameError object>'
p23
sS'__reduce__'
p24
S'<built-in method __reduce__ of exceptions.NameError object>'
p25
sS'__str__'
p26
S"<method-wrapper '__str__' of exceptions.NameError object>"
p27
sS'__format__'
p28
S'<built-in method __format__ of exceptions.NameError object>'
p29
sS'__getattribute__'
p30
S"<method-wrapper '__getattribute__' of exceptions.NameError object>"
p31
sS'__class__'
p32
S"<type 'exceptions.NameError'>"
p33
sS'__unicode__'
p34
S'<built-in method __unicode__ of exceptions.NameError object>'
p35
sS'__delattr__'
p36
S"<method-wrapper '__delattr__' of exceptions.NameError object>"
p37
sS'__subclasshook__'
p38
S'<built-in method __subclasshook__ of type object>'
p39
sS'__repr__'
p40
S"<method-wrapper '__repr__' of exceptions.NameError object>"
p41
sS'args'
p42
S'("name \'formulario\' is not defined",)'
p43
sS'__dict__'
p44
S'{}'
p45
sS'__sizeof__'
p46
S'<built-in method __sizeof__ of exceptions.NameError object>'
p47
sS'__doc__'
p48
S"'Name not found globally.'"
p49
sS'__init__'
p50
S"<method-wrapper '__init__' of exceptions.NameError object>"
p51
sS'__new__'
p52
S'<built-in method __new__ of type object>'
p53
ssS'evalue'
p54
S"name 'formulario' is not defined"
p55
sS'request'
p56
cgluon.html
XML_unpickle
p57
(S'sF^\x00\x00<div><table><tr><td style="font-weight:bold;vertical-align:top;">ajax</td><td style="vertical-align:top;">:</td><td><div>False</div></td></tr><tr><td style="font-weight:bold;vertical-align:top;">application</td><td style="vertical-align:top;">:</td><td><div>antecedentesplataforma</div></td></tr><tr><td style="font-weight:bold;vertical-align:top;">args</td><td style="vertical-align:top;">:</td><td><div><table><tr><td><div>75</div></td></tr></table></div></td></tr><tr><td style="font-weight:bold;vertical-align:top;">cid</td><td style="vertical-align:top;">:</td><td><div>None</div></td></tr><tr><td style="font-weight:bold;vertical-align:top;">client</td><td style="vertical-align:top;">:</td><td><div>127.0.0.1</div></td></tr><tr><td style="font-weight:bold;vertical-align:top;">controller</td><td style="vertical-align:top;">:</td><td><div>confeccion</div></td></tr><tr><td style="font-weight:bold;vertical-align:top;">cookies</td><td style="vertical-align:top;">:</td><td><div><table><tr><td style="font-weight:bold;vertical-align:top;">session_id_admin</td><td style="vertical-align:top;">:</td><td><div>127.0.0.1-aa4a7f69-945f-46b0-b738-76b661b1c74f<table><tr><td style="font-weight:bold;vertical-align:top;">comment</td><td style="vertical-align:top;">:</td><td><div></div></td></tr><tr><td style="font-weight:bold;vertical-align:top;">domain</td><td style="vertical-align:top;">:</td><td><div></div></td></tr><tr><td style="font-weight:bold;vertical-align:top;">expires</td><td style="vertical-align:top;">:</td><td><div></div></td></tr><tr><td style="font-weight:bold;vertical-align:top;">httponly</td><td style="vertical-align:top;">:</td><td><div></div></td></tr><tr><td style="font-weight:bold;vertical-align:top;">max-age</td><td style="vertical-align:top;">:</td><td><div></div></td></tr><tr><td style="font-weight:bold;vertical-align:top;">path</td><td style="vertical-align:top;">:</td><td><div></div></td></tr><tr><td style="font-weight:bold;vertical-align:top;">secure</td><td style="vertical-align:top;">:</td><td><div></div></td></tr><tr><td style="font-weight:bold;vertical-align:top;">version</td><td style="vertical-align:top;">:</td><td><div></div></td></tr></table></div></td></tr><tr><td style="font-weight:bold;vertical-align:top;">session_id_antecedentesplataforma</td><td style="vertical-align:top;">:</td><td><div>127.0.0.1-46e1cdc3-5514-4cd8-8504-e5f6aa159156<table><tr><td style="font-weight:bold;vertical-align:top;">comment</td><td style="vertical-align:top;">:</td><td><div></div></td></tr><tr><td style="font-weight:bold;vertical-align:top;">domain</td><td style="vertical-align:top;">:</td><td><div></div></td></tr><tr><td style="font-weight:bold;vertical-align:top;">expires</td><td style="vertical-align:top;">:</td><td><div></div></td></tr><tr><td style="font-weight:bold;vertical-align:top;">httponly</td><td style="vertical-align:top;">:</td><td><div></div></td></tr><tr><td style="font-weight:bold;vertical-align:top;">max-age</td><td style="vertical-align:top;">:</td><td><div></div></td></tr><tr><td style="font-weight:bold;vertical-align:top;">path</td><td style="vertical-align:top;">:</td><td><div></div></td></tr><tr><td style="font-weight:bold;vertical-align:top;">secure</td><td style="vertical-align:top;">:</td><td><div></div></td></tr><tr><td style="font-weight:bold;vertical-align:top;">version</td><td style="vertical-align:top;">:</td><td><div></div></td></tr></table></div></td></tr><tr><td style="font-weight:bold;vertical-align:top;">session_id_welcome</td><td style="vertical-align:top;">:</td><td><div>127.0.0.1-a796eeec-6d15-45b7-9b37-641855f567f4<table><tr><td style="font-weight:bold;vertical-align:top;">comment</td><td style="vertical-align:top;">:</td><td><div></div></td></tr><tr><td style="font-weight:bold;vertical-align:top;">domain</td><td style="vertical-align:top;">:</td><td><div></div></td></tr><tr><td style="font-weight:bold;vertical-align:top;">expires</td><td style="vertical-align:top;">:</td><td><div></div></td></tr><tr><td style="font-weight:bold;vertical-align:top;">httponly</td><td style="vertical-align:top;">:</td><td><div></div></td></tr><tr><td style="font-weight:bold;vertical-align:top;">max-age</td><td style="vertical-align:top;">:</td><td><div></div></td></tr><tr><td style="font-weight:bold;vertical-align:top;">path</td><td style="vertical-align:top;">:</td><td><div></div></td></tr><tr><td style="font-weight:bold;vertical-align:top;">secure</td><td style="vertical-align:top;">:</td><td><div></div></td></tr><tr><td style="font-weight:bold;vertical-align:top;">version</td><td style="vertical-align:top;">:</td><td><div></div></td></tr></table></div></td></tr></table></div></td></tr><tr><td style="font-weight:bold;vertical-align:top;">env</td><td style="vertical-align:top;">:</td><td><div><table><tr><td style="font-weight:bold;vertical-align:top;">HTTP_ACCEPT</td><td style="vertical-align:top;">:</td><td><div>text/html,application/xhtml+xml,application/xml;q=0.9,image/webp,image/apng,*/*;q=0.8,application/signed-exchange;v=b3</div></td></tr><tr><td style="font-weight:bold;vertical-align:top;">HTTP_ACCEPT_ENCODING</td><td style="vertical-align:top;">:</td><td><div>gzip, deflate, br</div></td></tr><tr><td style="font-weight:bold;vertical-align:top;">HTTP_ACCEPT_LANGUAGE</td><td style="vertical-align:top;">:</td><td><div>es-ES,es;q=0.9,en;q=0.8</div></td></tr><tr><td style="font-weight:bold;vertical-align:top;">HTTP_CACHE_CONTROL</td><td style="vertical-align:top;">:</td><td><div>max-age=0</div></td></tr><tr><td style="font-weight:bold;vertical-align:top;">HTTP_CONNECTION</td><td style="vertical-align:top;">:</td><td><div>keep-alive</div></td></tr><tr><td style="font-weight:bold;vertical-align:top;">HTTP_COOKIE</td><td style="vertical-align:top;">:</td><td><div>session_id_welcome=127.0.0.1-a796eeec-6d15-45b7-9b37-641855f567f4; session_id_admin=127.0.0.1-aa4a7f69-945f-46b0-b738-76b661b1c74f; session_id_antecedentesplataforma=127.0.0.1-46e1cdc3-5514-4cd8-8504-e5f6aa159156</div></td></tr><tr><td style="font-weight:bold;vertical-align:top;">HTTP_HOST</td><td style="vertical-align:top;">:</td><td><div>127.0.0.1:8000</div></td></tr><tr><td style="font-weight:bold;vertical-align:top;">HTTP_REFERER</td><td style="vertical-align:top;">:</td><td><div>http://127.0.0.1:8000/antecedentesplataforma/confeccion/por_sistema</div></td></tr><tr><td style="font-weight:bold;vertical-align:top;">HTTP_UPGRADE_INSECURE_REQUESTS</td><td style="vertical-align:top;">:</td><td><div>1</div></td></tr><tr><td style="font-weight:bold;vertical-align:top;">HTTP_USER_AGENT</td><td style="vertical-align:top;">:</td><td><div>Mozilla/5.0 (Windows NT 6.1) AppleWebKit/537.36 (KHTML, like Gecko) Chrome/73.0.3683.103 Safari/537.36</div></td></tr><tr><td style="font-weight:bold;vertical-align:top;">PATH_INFO</td><td style="vertical-align:top;">:</td><td><div>/antecedentesplataforma/confeccion/procesar/75</div></td></tr><tr><td style="font-weight:bold;vertical-align:top;">QUERY_STRING</td><td style="vertical-align:top;">:</td><td><div></div></td></tr><tr><td style="font-weight:bold;vertical-align:top;">REMOTE_ADDR</td><td style="vertical-align:top;">:</td><td><div>127.0.0.1</div></td></tr><tr><td style="font-weight:bold;vertical-align:top;">REMOTE_PORT</td><td style="vertical-align:top;">:</td><td><div>5156</div></td></tr><tr><td style="font-weight:bold;vertical-align:top;">REQUEST_METHOD</td><td style="vertical-align:top;">:</td><td><div>GET</div></td></tr><tr><td style="font-weight:bold;vertical-align:top;">SCRIPT_NAME</td><td style="vertical-align:top;">:</td><td><div></div></td></tr><tr><td style="font-weight:bold;vertical-align:top;">SERVER_NAME</td><td style="vertical-align:top;">:</td><td><div>HaTaK3-PC</div></td></tr><tr><td style="font-weight:bold;vertical-align:top;">SERVER_PORT</td><td style="vertical-align:top;">:</td><td><div>8000</div></td></tr><tr><td style="font-weight:bold;vertical-align:top;">SERVER_PROTOCOL</td><td style="vertical-align:top;">:</td><td><div>HTTP/1.1</div></td></tr><tr><td style="font-weight:bold;vertical-align:top;">SERVER_SOFTWARE</td><td style="vertical-align:top;">:</td><td><div>Rocket 1.2.6</div></td></tr><tr><td style="font-weight:bold;vertical-align:top;">app_folders</td><td style="vertical-align:top;">:</td><td><div>set([&#x27;D:\\\\web2py\\\\applications\\\\admin\\\\&#x27;, &#x27;D:\\\\web2py\\\\applications\\\\welcome\\\\&#x27;, &#x27;D:\\\\web2py\\\\applications\\\\antecedentesplataforma\\\\&#x27;])</div></td></tr><tr><td style="font-weight:bold;vertical-align:top;">applications_parent</td><td style="vertical-align:top;">:</td><td><div>D:\\web2py</div></td></tr><tr><td style="font-weight:bold;vertical-align:top;">cmd_args</td><td style="vertical-align:top;">:</td><td><div><table></table></div></td></tr><tr><td style="font-weight:bold;vertical-align:top;">cmd_options</td><td style="vertical-align:top;">:</td><td><div>&lt;Values at 0x279dd50: {&#x27;verbose&#x27;: False, &#x27;ip&#x27;: &#x27;127.0.0.1&#x27;, &#x27;debuglevel&#x27;: 30, &#x27;with_scheduler&#x27;: False, &#x27;shutdown_timeout&#x27;: 5, &#x27;taskbar&#x27;: False, &#x27;with_coverage&#x27;: False, &#x27;pid_filename&#x27;: &#x27;httpserver.pid&#x27;, &#x27;maxthreads&#x27;: None, &#x27;softcron&#x27;: False, &#x27;server_name&#x27;: &#x27;HaTaK3-PC&#x27;, &#x27;bpython&#x27;: False, &#x27;nogui&#x27;: False, &#x27;port&#x27;: 8000, &#x27;print_errors&#x27;: False, &#x27;extcron&#x27;: False, &#x27;runcron&#x27;: False, &#x27;run_system_tests&#x27;: False, &#x27;test&#x27;: None, &#x27;folder&#x27;: &#x27;D:\\\\web2py&#x27;, &#x27;config&#x27;: &#x27;&#x27;, &#x27;minthreads&#x27;: None, &#x27;shell&#x27;: None, &#x27;run&#x27;: &#x27;&#x27;, &#x27;log_filename&#x27;: &#x27;httpserver.log&#x27;, &#x27;profiler_dir&#x27;: None, &#x27;args&#x27;: [&#x27;&#x27;], &#x27;socket_timeout&#x27;: 5, &#x27;ssl_ca_certificate&#x27;: None, &#x27;scheduler&#x27;: None, &#x27;interfaces&#x27;: None, &#x27;ssl_private_key&#x27;: &#x27;&#x27;, &#x27;gae&#x27;: None, &#x27;password&#x27;: &#x27;******&#x27;, &#x27;request_queue_size&#x27;: 5, &#x27;ssl_certificate&#x27;: &#x27;&#x27;, &#x27;cronjob&#x27;: False, &#x27;numthreads&#x27;: None, &#x27;quiet&#x27;: False, &#x27;import_models&#x27;: False, &#x27;timeout&#x27;: 10, &#x27;plain&#x27;: False, &#x27;nobanner&#x27;: False}&gt;</div></td></tr><tr><td style="font-weight:bold;vertical-align:top;">db_sessions</td><td style="vertical-align:top;">:</td><td><div>set([])</div></td></tr><tr><td style="font-weight:bold;vertical-align:top;">debugging</td><td style="vertical-align:top;">:</td><td><div>False</div></td></tr><tr><td style="font-weight:bold;vertical-align:top;">gluon_parent</td><td style="vertical-align:top;">:</td><td><div>D:\\web2py</div></td></tr><tr><td style="font-weight:bold;vertical-align:top;">http_accept</td><td style="vertical-align:top;">:</td><td><div>text/html,application/xhtml+xml,application/xml;q=0.9,image/webp,image/apng,*/*;q=0.8,application/signed-exchange;v=b3</div></td></tr><tr><td style="font-weight:bold;vertical-align:top;">http_accept_encoding</td><td style="vertical-align:top;">:</td><td><div>gzip, deflate, br</div></td></tr><tr><td style="font-weight:bold;vertical-align:top;">http_accept_language</td><td style="vertical-align:top;">:</td><td><div>es-ES,es;q=0.9,en;q=0.8</div></td></tr><tr><td style="font-weight:bold;vertical-align:top;">http_cache_control</td><td style="vertical-align:top;">:</td><td><div>max-age=0</div></td></tr><tr><td style="font-weight:bold;vertical-align:top;">http_connection</td><td style="vertical-align:top;">:</td><td><div>keep-alive</div></td></tr><tr><td style="font-weight:bold;vertical-align:top;">http_cookie</td><td style="vertical-align:top;">:</td><td><div>session_id_welcome=127.0.0.1-a796eeec-6d15-45b7-9b37-641855f567f4; session_id_admin=127.0.0.1-aa4a7f69-945f-46b0-b738-76b661b1c74f; session_id_antecedentesplataforma=127.0.0.1-46e1cdc3-5514-4cd8-8504-e5f6aa159156</div></td></tr><tr><td style="font-weight:bold;vertical-align:top;">http_host</td><td style="vertical-align:top;">:</td><td><div>127.0.0.1:8000</div></td></tr><tr><td style="font-weight:bold;vertical-align:top;">http_referer</td><td style="vertical-align:top;">:</td><td><div>http://127.0.0.1:8000/antecedentesplataforma/confeccion/por_sistema</div></td></tr><tr><td style="font-weight:bold;vertical-align:top;">http_upgrade_insecure_requests</td><td style="vertical-align:top;">:</td><td><div>1</div></td></tr><tr><td style="font-weight:bold;vertical-align:top;">http_user_agent</td><td style="vertical-align:top;">:</td><td><div>Mozilla/5.0 (Windows NT 6.1) AppleWebKit/537.36 (KHTML, like Gecko) Chrome/73.0.3683.103 Safari/537.36</div></td></tr><tr><td style="font-weight:bold;vertical-align:top;">is_jython</td><td style="vertical-align:top;">:</td><td><div>False</div></td></tr><tr><td style="font-weight:bold;vertical-align:top;">is_pypy</td><td style="vertical-align:top;">:</td><td><div>False</div></td></tr><tr><td style="font-weight:bold;vertical-align:top;">is_source</td><td style="vertical-align:top;">:</td><td><div>False</div></td></tr><tr><td style="font-weight:bold;vertical-align:top;">local_hosts</td><td style="vertical-align:top;">:</td><td><div><table><tr><td><div>HaTaK3-PC</div></td></tr><tr><td><div>::ffff:127.0.0.1</div></td></tr><tr><td><div>::1</div></td></tr><tr><td><div>fe80::65c7:8cfe:1866:2ddb%12</div></td></tr><tr><td><div>10.150.0.69</div></td></tr><tr><td><div>fe80::6de3:fa60:8d1c:59aa%11</div></td></tr><tr><td><div>127.0.0.1</div></td></tr><tr><td><div>192.168.56.1</div></td></tr></table></div></td></tr><tr><td style="font-weight:bold;vertical-align:top;">path_info</td><td style="vertical-align:top;">:</td><td><div>/antecedentesplataforma/confeccion/procesar/75</div></td></tr><tr><td style="font-weight:bold;vertical-align:top;">query_string</td><td style="vertical-align:top;">:</td><td><div></div></td></tr><tr><td style="font-weight:bold;vertical-align:top;">remote_addr</td><td style="vertical-align:top;">:</td><td><div>127.0.0.1</div></td></tr><tr><td style="font-weight:bold;vertical-align:top;">remote_port</td><td style="vertical-align:top;">:</td><td><div>5156</div></td></tr><tr><td style="font-weight:bold;vertical-align:top;">request_method</td><td style="vertical-align:top;">:</td><td><div>GET</div></td></tr><tr><td style="font-weight:bold;vertical-align:top;">request_uri</td><td style="vertical-align:top;">:</td><td><div>/antecedentesplataforma/confeccion/procesar/75</div></td></tr><tr><td style="font-weight:bold;vertical-align:top;">script_name</td><td style="vertical-align:top;">:</td><td><div></div></td></tr><tr><td style="font-weight:bold;vertical-align:top;">server_name</td><td style="vertical-align:top;">:</td><td><div>HaTaK3-PC</div></td></tr><tr><td style="font-weight:bold;vertical-align:top;">server_port</td><td style="vertical-align:top;">:</td><td><div>8000</div></td></tr><tr><td style="font-weight:bold;vertical-align:top;">server_protocol</td><td style="vertical-align:top;">:</td><td><div>HTTP/1.1</div></td></tr><tr><td style="font-weight:bold;vertical-align:top;">server_software</td><td style="vertical-align:top;">:</td><td><div>Rocket 1.2.6</div></td></tr><tr><td style="font-weight:bold;vertical-align:top;">web2py_path</td><td style="vertical-align:top;">:</td><td><div>D:\\web2py</div></td></tr><tr><td style="font-weight:bold;vertical-align:top;">web2py_version</td><td style="vertical-align:top;">:</td><td><div>2.14.6-stable+timestamp.2016.05.10.00.21.47</div></td></tr><tr><td style="font-weight:bold;vertical-align:top;">wsgi.errors</td><td style="vertical-align:top;">:</td><td><div>&lt;open file &#x27;&lt;stderr&gt;&#x27;, mode &#x27;w&#x27; at 0x0132D0D0&gt;</div></td></tr><tr><td style="font-weight:bold;vertical-align:top;">wsgi.file_wrapper</td><td style="vertical-align:top;">:</td><td><div>&lt;class wsgiref.util.FileWrapper at 0x0289E4C8&gt;</div></td></tr><tr><td style="font-weight:bold;vertical-align:top;">wsgi.input</td><td style="vertical-align:top;">:</td><td><div>&lt;socket._fileobject object at 0x08108C70&gt;</div></td></tr><tr><td style="font-weight:bold;vertical-align:top;">wsgi.multiprocess</td><td style="vertical-align:top;">:</td><td><div>False</div></td></tr><tr><td style="font-weight:bold;vertical-align:top;">wsgi.multithread</td><td style="vertical-align:top;">:</td><td><div>True</div></td></tr><tr><td style="font-weight:bold;vertical-align:top;">wsgi.run_once</td><td style="vertical-align:top;">:</td><td><div>False</div></td></tr><tr><td style="font-weight:bold;vertical-align:top;">wsgi.url_scheme</td><td style="vertical-align:top;">:</td><td><div>http</div></td></tr><tr><td style="font-weight:bold;vertical-align:top;">wsgi.version</td><td style="vertical-align:top;">:</td><td><div><table><tr><td><div>1</div></td></tr><tr><td><div>0</div></td></tr></table></div></td></tr><tr><td style="font-weight:bold;vertical-align:top;">wsgi_errors</td><td style="vertical-align:top;">:</td><td><div>&lt;open file &#x27;&lt;stderr&gt;&#x27;, mode &#x27;w&#x27; at 0x0132D0D0&gt;</div></td></tr><tr><td style="font-weight:bold;vertical-align:top;">wsgi_file_wrapper</td><td style="vertical-align:top;">:</td><td><div>&lt;class wsgiref.util.FileWrapper at 0x0289E4C8&gt;</div></td></tr><tr><td style="font-weight:bold;vertical-align:top;">wsgi_input</td><td style="vertical-align:top;">:</td><td><div>&lt;socket._fileobject object at 0x08108C70&gt;</div></td></tr><tr><td style="font-weight:bold;vertical-align:top;">wsgi_multiprocess</td><td style="vertical-align:top;">:</td><td><div>False</div></td></tr><tr><td style="font-weight:bold;vertical-align:top;">wsgi_multithread</td><td style="vertical-align:top;">:</td><td><div>True</div></td></tr><tr><td style="font-weight:bold;vertical-align:top;">wsgi_run_once</td><td style="vertical-align:top;">:</td><td><div>False</div></td></tr><tr><td style="font-weight:bold;vertical-align:top;">wsgi_url_scheme</td><td style="vertical-align:top;">:</td><td><div>http</div></td></tr><tr><td style="font-weight:bold;vertical-align:top;">wsgi_version</td><td style="vertical-align:top;">:</td><td><div><table><tr><td><div>1</div></td></tr><tr><td><div>0</div></td></tr></table></div></td></tr></table></div></td></tr><tr><td style="font-weight:bold;vertical-align:top;">extension</td><td style="vertical-align:top;">:</td><td><div>html</div></td></tr><tr><td style="font-weight:bold;vertical-align:top;">folder</td><td style="vertical-align:top;">:</td><td><div>D:\\web2py\\applications\\antecedentesplataforma\\</div></td></tr><tr><td style="font-weight:bold;vertical-align:top;">function</td><td style="vertical-align:top;">:</td><td><div>procesar</div></td></tr><tr><td style="font-weight:bold;vertical-align:top;">global_settings</td><td style="vertical-align:top;">:</td><td><div><table><tr><td style="font-weight:bold;vertical-align:top;">app_folders</td><td style="vertical-align:top;">:</td><td><div>set([&#x27;D:\\\\web2py\\\\applications\\\\admin\\\\&#x27;, &#x27;D:\\\\web2py\\\\applications\\\\welcome\\\\&#x27;, &#x27;D:\\\\web2py\\\\applications\\\\antecedentesplataforma\\\\&#x27;])</div></td></tr><tr><td style="font-weight:bold;vertical-align:top;">applications_parent</td><td style="vertical-align:top;">:</td><td><div>D:\\web2py</div></td></tr><tr><td style="font-weight:bold;vertical-align:top;">cmd_args</td><td style="vertical-align:top;">:</td><td><div><table></table></div></td></tr><tr><td style="font-weight:bold;vertical-align:top;">cmd_options</td><td style="vertical-align:top;">:</td><td><div>&lt;Values at 0x279dd50: {&#x27;verbose&#x27;: False, &#x27;ip&#x27;: &#x27;127.0.0.1&#x27;, &#x27;debuglevel&#x27;: 30, &#x27;with_scheduler&#x27;: False, &#x27;shutdown_timeout&#x27;: 5, &#x27;taskbar&#x27;: False, &#x27;with_coverage&#x27;: False, &#x27;pid_filename&#x27;: &#x27;httpserver.pid&#x27;, &#x27;maxthreads&#x27;: None, &#x27;softcron&#x27;: False, &#x27;server_name&#x27;: &#x27;HaTaK3-PC&#x27;, &#x27;bpython&#x27;: False, &#x27;nogui&#x27;: False, &#x27;port&#x27;: 8000, &#x27;print_errors&#x27;: False, &#x27;extcron&#x27;: False, &#x27;runcron&#x27;: False, &#x27;run_system_tests&#x27;: False, &#x27;test&#x27;: None, &#x27;folder&#x27;: &#x27;D:\\\\web2py&#x27;, &#x27;config&#x27;: &#x27;&#x27;, &#x27;minthreads&#x27;: None, &#x27;shell&#x27;: None, &#x27;run&#x27;: &#x27;&#x27;, &#x27;log_filename&#x27;: &#x27;httpserver.log&#x27;, &#x27;profiler_dir&#x27;: None, &#x27;args&#x27;: [&#x27;&#x27;], &#x27;socket_timeout&#x27;: 5, &#x27;ssl_ca_certificate&#x27;: None, &#x27;scheduler&#x27;: None, &#x27;interfaces&#x27;: None, &#x27;ssl_private_key&#x27;: &#x27;&#x27;, &#x27;gae&#x27;: None, &#x27;password&#x27;: &#x27;******&#x27;, &#x27;request_queue_size&#x27;: 5, &#x27;ssl_certificate&#x27;: &#x27;&#x27;, &#x27;cronjob&#x27;: False, &#x27;numthreads&#x27;: None, &#x27;quiet&#x27;: False, &#x27;import_models&#x27;: False, &#x27;timeout&#x27;: 10, &#x27;plain&#x27;: False, &#x27;nobanner&#x27;: False}&gt;</div></td></tr><tr><td style="font-weight:bold;vertical-align:top;">db_sessions</td><td style="vertical-align:top;">:</td><td><div>set([])</div></td></tr><tr><td style="font-weight:bold;vertical-align:top;">debugging</td><td style="vertical-align:top;">:</td><td><div>False</div></td></tr><tr><td style="font-weight:bold;vertical-align:top;">gluon_parent</td><td style="vertical-align:top;">:</td><td><div>D:\\web2py</div></td></tr><tr><td style="font-weight:bold;vertical-align:top;">is_jython</td><td style="vertical-align:top;">:</td><td><div>False</div></td></tr><tr><td style="font-weight:bold;vertical-align:top;">is_pypy</td><td style="vertical-align:top;">:</td><td><div>False</div></td></tr><tr><td style="font-weight:bold;vertical-align:top;">is_source</td><td style="vertical-align:top;">:</td><td><div>False</div></td></tr><tr><td style="font-weight:bold;vertical-align:top;">local_hosts</td><td style="vertical-align:top;">:</td><td><div><table><tr><td><div>HaTaK3-PC</div></td></tr><tr><td><div>::ffff:127.0.0.1</div></td></tr><tr><td><div>::1</div></td></tr><tr><td><div>fe80::65c7:8cfe:1866:2ddb%12</div></td></tr><tr><td><div>10.150.0.69</div></td></tr><tr><td><div>fe80::6de3:fa60:8d1c:59aa%11</div></td></tr><tr><td><div>127.0.0.1</div></td></tr><tr><td><div>192.168.56.1</div></td></tr></table></div></td></tr><tr><td style="font-weight:bold;vertical-align:top;">web2py_version</td><td style="vertical-align:top;">:</td><td><div>2.14.6-stable+timestamp.2016.05.10.00.21.47</div></td></tr></table></div></td></tr><tr><td style="font-weight:bold;vertical-align:top;">is_https</td><td style="vertical-align:top;">:</td><td><div>False</div></td></tr><tr><td style="font-weight:bold;vertical-align:top;">is_local</td><td style="vertical-align:top;">:</td><td><div>True</div></td></tr><tr><td style="font-weight:bold;vertical-align:top;">is_restful</td><td style="vertical-align:top;">:</td><td><div>False</div></td></tr><tr><td style="font-weight:bold;vertical-align:top;">is_scheduler</td><td style="vertical-align:top;">:</td><td><div>False</div></td></tr><tr><td style="font-weight:bold;vertical-align:top;">is_shell</td><td style="vertical-align:top;">:</td><td><div>False</div></td></tr><tr><td style="font-weight:bold;vertical-align:top;">now</td><td style="vertical-align:top;">:</td><td><div>datetime.datetime(2019, 4, 17, 9, 20, 47, 404000)</div></td></tr><tr><td style="font-weight:bold;vertical-align:top;">raw_args</td><td style="vertical-align:top;">:</td><td><div>75</div></td></tr><tr><td style="font-weight:bold;vertical-align:top;">raw_extension</td><td style="vertical-align:top;">:</td><td><div>None</div></td></tr><tr><td style="font-weight:bold;vertical-align:top;">url</td><td style="vertical-align:top;">:</td><td><div>/antecedentesplataforma/confeccion/procesar/75</div></td></tr><tr><td style="font-weight:bold;vertical-align:top;">utcnow</td><td style="vertical-align:top;">:</td><td><div>datetime.datetime(2019, 4, 17, 12, 20, 47, 404000)</div></td></tr><tr><td style="font-weight:bold;vertical-align:top;">wsgi</td><td style="vertical-align:top;">:</td><td><div>&lt;gluon.main.LazyWSGI object at 0x03D13590&gt;</div></td></tr></table></div>'
tRp58
sS'frames'
p59
(lp60
(dp61
S'file'
p62
S'D:\\web2py\\gluon\\restricted.py'
p63
sS'dump'
p64
(dp65
S'environment'
p66
S"{'A': <class 'gluon.html.A'>, 'ANY_OF': <class 'gluon.validators.ANY_OF'>, 'ASSIGNJS': <function ASSIGNJS>, 'AppConfig': <function AppConfig>, 'Auth': <class 'gluon.tools.Auth'>, 'B': <class 'gluon.html.B'>, 'BEAUTIFY': <class 'gluon.html.BEAUTIFY'>, 'BODY': <class 'gluon.html.BODY'>, 'BR': <class 'gluon.html.BR'>, 'BUTTON': <class 'gluon.html.BUTTON'>, ...}"
p67
sS'ccode'
p68
S'<code object <module> at 0325DC80, file "D:\\web2...ataforma\\views\\confeccion/procesar.html", line 1>'
p69
ssS'lnum'
p70
I227
sS'lines'
p71
(dp72
I224
S'            ccode = code'
p73
sI225
S'        else:'
p74
sI226
S'            ccode = compile2(code, layer)'
p75
sI227
S'        exec ccode in environment'
p76
sI228
S'    except HTTP:'
p77
sI229
S'        raise'
p78
sI230
S'    except RestrictedError:'
p79
sI231
S'        # do not encapsulate (obfuscate) the original RestrictedError'
p80
sI222
S'    try:'
p81
sI223
S'        if isinstance(code, types.CodeType):'
p82
ssS'call'
p83
S'(code=r"response.write(\'<!DOCTYPE html>\\n<html>\\n\\n\\n<!-... 2018 13:54:48 GMT -->\\n</html>\\n\', escape=False)", environment={\'A\': <class \'gluon.html.A\'>, \'ANY_OF\': <class \'gluon.validators.ANY_OF\'>, \'ASSIGNJS\': <function ASSIGNJS>, \'AppConfig\': <function AppConfig>, \'Auth\': <class \'gluon.tools.Auth\'>, \'B\': <class \'gluon.html.B\'>, \'BEAUTIFY\': <class \'gluon.html.BEAUTIFY\'>, \'BODY\': <class \'gluon.html.BODY\'>, \'BR\': <class \'gluon.html.BR\'>, \'BUTTON\': <class \'gluon.html.BUTTON\'>, ...}, layer=r\'D:\\web2py\\applications\\antecedentesplataforma\\views\\confeccion/procesar.html\')'
p84
sS'func'
p85
S'restricted'
p86
sa(dp87
g62
S'D:\\web2py\\applications\\antecedentesplataforma\\views\\confeccion\\procesar.html'
p88
sg64
(dp89
sg70
I58
sg71
(dp90
I64
S'form.custom.widget.numero["_type"] = "number"'
p91
sI65
S"response.write('\\r\\n\\t\\t\\t\\t         ', escape=False)"
p92
sI66
S'response.write(form.custom.widget.numero)'
p93
sI67
S'response.write(\'\\r\\n\\t\\t\\t\\t    </div>\\r\\n\\t\\t\\t\\t    <div class="form-group">\\r\\n\\t\\t\\t\\t          <label><strong>A\\xc3\\xb1o</strong></label>\\r\\n\\t\\t\\t\\t          \', escape=False)'
p94
sI68
S'form.custom.widget.ano["_type"] = "number"'
p95
sI49
S'response.write(\'      \\n            </ul>\\n\\n        </div>\\n    </nav>\\n\\n        <div id="page-wrapper" class="gray-bg">\\n        <div class="row border-bottom">\\n        <nav class="navbar navbar-static-top  " role="navigation" style="margin-bottom: 0">\\n\\n        <div class="navbar-header">\\n         <!--   <a class="navbar-minimalize minimalize-styl-2 btn btn-primary " href="#"><i class="fa fa-bars"></i> </a> -->\\n           \\n        </div> \\n\\n            <ul class="nav navbar-top-links navbar-right ">\\n              \\n\\n                <li>\\n                    <a href="\', escape=False)'
p96
sI50
S"response.write(URL('default', 'user', args=('logout')))"
p97
sI51
S'response.write(\'">\\n                        <i class="fa fa-sign-out "></i> Cerrar Sesi\\xc3\\xb3n\\n                    </a>\\n                </li>\\n            </ul>\\n\\n        </nav>\\n        </div>\\n            <div class="row wrapper border-bottom white-bg page-heading">\\n                <div class="col-sm-12">\\n                    \', escape=False)'
p98
sI52
S'response.write(\'\\r\\n    <h2>Asesor\\xc3\\xada Letrada - Sistema de Expedientes</h2>\\r\\n    <ol class="breadcrumb">\\r\\n      <li class="breadcrumb-item">\\r\\n        <a href="\', escape=False)'
p99
sI53
S"response.write(URL(c='default',f='index'))"
p100
sI54
S'response.write(\'">Home</a>\\r\\n      </li>\\r\\n      <li class="breadcrumb-item active">\\r\\n        <strong>Ingreso </strong>\\r\\n      </li>\\r\\n    </ol>\\r\\n\', escape=False)'
p101
sI55
S'response.write(\'\\n\\n                   \\n                </div>\\n                \\n            </div>\\n\\n\\n            <div class="wrapper wrapper-content">\\n               \', escape=False)'
p102
sI56
S"response.write('\\r\\n\\r\\n\\r\\n\\r\\n\\r\\n\\r\\n\\r\\n', escape=False)"
p103
sI57
S'response.write(\'\\r\\n\\r\\n\\r\\n\\r\\n\\r\\n\\r\\n<h3 class="animated fadeIn">Formulario de Consulta</h3>\\r\\n<br>\\r\\n<br>\\r\\n<br>\\r\\n<br>\\r\\n\\r\\n<br>\\r\\n\\r\\n<div class="row">\\r\\n\\t<div class="col-lg-4">\\r\\n\\r\\n\\r\\n\\t</div>\\r\\n\\t<div class="col-lg-4">\\r\\n\\t\\t<div class="ibox ">\\r\\n\\t\\t\\t<div class="ibox-title">\\r\\n\\t\\t\\t\\t<h5>Ingreso de Expediente</h5> <span class="label label-success"><i class="fa fa-hand-o-up"></i></span>\\r\\n\\t\\t\\t</div>\\r\\n\\r\\n\\t\\t\\t<div class="ibox-content">\\r\\n\\t\\t\\t\\t<br>\\r\\n\\t\\t\\t\\t\\r\\n\\t\\t\\t\\t\\t\', escape=False)'
p104
sI58
S'response.write(formulario.custom.begin)'
p105
sI59
S'response.write(\'\\r\\n\\r\\n\\t\\t\\t\\t    <div class="form-group">\\r\\n\\t\\t\\t\\t    \\t <label><strong>Letra</strong></label>\\r\\n\\t\\t\\t\\t        \', escape=False)'
p106
sI60
S'formulario.custom.widget.letra["_style"] = "text-transform:uppercase"'
p107
sI61
S"response.write('\\r\\n\\t\\t\\t\\t        ', escape=False)"
p108
sI62
S'response.write(formulario.custom.widget.letra)'
p109
sI63
S'response.write(\'\\r\\n\\r\\n\\t\\t\\t\\t    </div>\\r\\n\\t\\t\\t\\t    <div class="form-group">\\r\\n\\t\\t\\t\\t    \\t <label><strong>N\\xc3\\xbamero</strong></label>\\r\\n\\t\\t\\t\\t         \', escape=False)'
p110
ssg83
S'()'
p111
sg85
S'<module>'
p112
sasS'pyver'
p113
S'Python 2.7.9: D:\\web2py\\web2py.exe (prefix: )'
p114
sS'session'
p115
g57
(S's\xf5\n\x00\x00<div><table><tr><td style="font-weight:bold;vertical-align:top;">auth</td><td style="vertical-align:top;">:</td><td><div><table><tr><td style="font-weight:bold;vertical-align:top;">expiration</td><td style="vertical-align:top;">:</td><td><div>3600</div></td></tr><tr><td style="font-weight:bold;vertical-align:top;">hmac_key</td><td style="vertical-align:top;">:</td><td><div>b84bba78-f3e2-4be6-8ca7-2f09e9723c95</div></td></tr><tr><td style="font-weight:bold;vertical-align:top;">last_visit</td><td style="vertical-align:top;">:</td><td><div>datetime.datetime(2019, 4, 17, 9, 15, 4, 413000)</div></td></tr><tr><td style="font-weight:bold;vertical-align:top;">remember_me</td><td style="vertical-align:top;">:</td><td><div>False</div></td></tr><tr><td style="font-weight:bold;vertical-align:top;">user</td><td style="vertical-align:top;">:</td><td><div><table><tr><td style="font-weight:bold;vertical-align:top;">dni</td><td style="vertical-align:top;">:</td><td><div>29917029</div></td></tr><tr><td style="font-weight:bold;vertical-align:top;">email</td><td style="vertical-align:top;">:</td><td><div>juan@ulivar.com</div></td></tr><tr><td style="font-weight:bold;vertical-align:top;">first_name</td><td style="vertical-align:top;">:</td><td><div>juan</div></td></tr><tr><td style="font-weight:bold;vertical-align:top;">id</td><td style="vertical-align:top;">:</td><td><div>1L</div></td></tr><tr><td style="font-weight:bold;vertical-align:top;">iniciales</td><td style="vertical-align:top;">:</td><td><div>J.U</div></td></tr><tr><td style="font-weight:bold;vertical-align:top;">last_name</td><td style="vertical-align:top;">:</td><td><div>ulivar</div></td></tr><tr><td style="font-weight:bold;vertical-align:top;">oficina</td><td style="vertical-align:top;">:</td><td><div>Super</div></td></tr><tr><td style="font-weight:bold;vertical-align:top;">registration_id</td><td style="vertical-align:top;">:</td><td><div></div></td></tr><tr><td style="font-weight:bold;vertical-align:top;">registration_key</td><td style="vertical-align:top;">:</td><td><div></div></td></tr><tr><td style="font-weight:bold;vertical-align:top;">reset_password_key</td><td style="vertical-align:top;">:</td><td><div></div></td></tr><tr><td style="font-weight:bold;vertical-align:top;">username</td><td style="vertical-align:top;">:</td><td><div>uli</div></td></tr></table></div></td></tr><tr><td style="font-weight:bold;vertical-align:top;">user_groups</td><td style="vertical-align:top;">:</td><td><div><table><tr><td style="font-weight:bold;vertical-align:top;">1</td><td style="vertical-align:top;">:</td><td><div>Super</div></td></tr></table></div></td></tr></table></div></td></tr><tr><td style="font-weight:bold;vertical-align:top;">flash</td><td style="vertical-align:top;">:</td><td><div>None</div></td></tr></table></div>'
tRp116
sS'etype'
p117
S"<type 'exceptions.NameError'>"
p118
sS'date'
p119
S'Wed Apr 17 09:20:47 2019'
p120
sS'response'
p121
g57
(S's\xf5@\x00\x00<div><table><tr><td style="font-weight:bold;vertical-align:top;">body</td><td style="vertical-align:top;">:</td><td><div>&lt;cStringIO.StringO object at 0x03D134E0&gt;</div></td></tr><tr><td style="font-weight:bold;vertical-align:top;">cookies</td><td style="vertical-align:top;">:</td><td><div><table><tr><td style="font-weight:bold;vertical-align:top;">session_id_antecedentesplataforma</td><td style="vertical-align:top;">:</td><td><div>127.0.0.1-46e1cdc3-5514-4cd8-8504-e5f6aa159156<table><tr><td style="font-weight:bold;vertical-align:top;">comment</td><td style="vertical-align:top;">:</td><td><div></div></td></tr><tr><td style="font-weight:bold;vertical-align:top;">domain</td><td style="vertical-align:top;">:</td><td><div></div></td></tr><tr><td style="font-weight:bold;vertical-align:top;">expires</td><td style="vertical-align:top;">:</td><td><div></div></td></tr><tr><td style="font-weight:bold;vertical-align:top;">httponly</td><td style="vertical-align:top;">:</td><td><div></div></td></tr><tr><td style="font-weight:bold;vertical-align:top;">max-age</td><td style="vertical-align:top;">:</td><td><div></div></td></tr><tr><td style="font-weight:bold;vertical-align:top;">path</td><td style="vertical-align:top;">:</td><td><div>/</div></td></tr><tr><td style="font-weight:bold;vertical-align:top;">secure</td><td style="vertical-align:top;">:</td><td><div></div></td></tr><tr><td style="font-weight:bold;vertical-align:top;">version</td><td style="vertical-align:top;">:</td><td><div></div></td></tr></table></div></td></tr></table></div></td></tr><tr><td style="font-weight:bold;vertical-align:top;">delimiters</td><td style="vertical-align:top;">:</td><td><div><table><tr><td><div>{{</div></td></tr><tr><td><div>}}</div></td></tr></table></div></td></tr><tr><td style="font-weight:bold;vertical-align:top;">files</td><td style="vertical-align:top;">:</td><td><div><table></table></div></td></tr><tr><td style="font-weight:bold;vertical-align:top;">flash</td><td style="vertical-align:top;">:</td><td><div>por favor complete el formulario</div></td></tr><tr><td style="font-weight:bold;vertical-align:top;">form_label_separator</td><td style="vertical-align:top;">:</td><td><div></div></td></tr><tr><td style="font-weight:bold;vertical-align:top;">formstyle</td><td style="vertical-align:top;">:</td><td><div>bootstrap3_inline</div></td></tr><tr><td style="font-weight:bold;vertical-align:top;">generic_patterns</td><td style="vertical-align:top;">:</td><td><div><table><tr><td><div>*</div></td></tr></table></div></td></tr><tr><td style="font-weight:bold;vertical-align:top;">google_analytics_id</td><td style="vertical-align:top;">:</td><td><div>None</div></td></tr><tr><td style="font-weight:bold;vertical-align:top;">headers</td><td style="vertical-align:top;">:</td><td><div><table><tr><td style="font-weight:bold;vertical-align:top;">X-Powered-By</td><td style="vertical-align:top;">:</td><td><div>web2py</div></td></tr></table></div></td></tr><tr><td style="font-weight:bold;vertical-align:top;">logo</td><td style="vertical-align:top;">:</td><td><div><a class="navbar-brand" href="http://www.web2py.com/" id="web2py-logo"><b>web<span>2</span>py</b>&trade;&nbsp;</a></div></td></tr><tr><td style="font-weight:bold;vertical-align:top;">menu</td><td style="vertical-align:top;">:</td><td><div><table><tr><td><div><table><tr><td><div>Inicio</div></td></tr><tr><td><div>False</div></td></tr><tr><td><div>/antecedentesplataforma/default/index</div></td></tr><tr><td><div><table></table></div></td></tr></table></div></td></tr><tr><td><div><table><tr><td><div>Mis Sitios</div></td></tr><tr><td><div>False</div></td></tr><tr><td><div>/admin/default/site</div></td></tr></table></div></td></tr><tr><td><div><table><tr><td><div>Esta Aplicaci\xc3\xb3n</div></td></tr><tr><td><div>False</div></td></tr><tr><td><div>#</div></td></tr><tr><td><div><table><tr><td><div><table><tr><td><div>Design</div></td></tr><tr><td><div>False</div></td></tr><tr><td><div>/admin/default/design/antecedentesplataforma</div></td></tr></table></div></td></tr><tr><td><div><li class="divider"></li></div></td></tr><tr><td><div><table><tr><td><div>Controlador</div></td></tr><tr><td><div>False</div></td></tr><tr><td><div>/admin/default/edit/antecedentesplataforma/controllers/confeccion.py</div></td></tr></table></div></td></tr><tr><td><div><table><tr><td><div>Vista</div></td></tr><tr><td><div>False</div></td></tr><tr><td><div>/admin/default/edit/antecedentesplataforma/views/confeccion/procesar.html</div></td></tr></table></div></td></tr><tr><td><div><table><tr><td><div>Modelo BDD</div></td></tr><tr><td><div>False</div></td></tr><tr><td><div>/admin/default/edit/antecedentesplataforma/models/db.py</div></td></tr></table></div></td></tr><tr><td><div><table><tr><td><div>Modelo "menu"</div></td></tr><tr><td><div>False</div></td></tr><tr><td><div>/admin/default/edit/antecedentesplataforma/models/menu.py</div></td></tr></table></div></td></tr><tr><td><div><table><tr><td><div>Config.ini</div></td></tr><tr><td><div>False</div></td></tr><tr><td><div>/admin/default/edit/antecedentesplataforma/private/appconfig.ini</div></td></tr></table></div></td></tr><tr><td><div><table><tr><td><div>Dise\xc3\xb1o de p\xc3\xa1gina</div></td></tr><tr><td><div>False</div></td></tr><tr><td><div>/admin/default/edit/antecedentesplataforma/views/layout.html</div></td></tr></table></div></td></tr><tr><td><div><table><tr><td><div>Hoja de estilo</div></td></tr><tr><td><div>False</div></td></tr><tr><td><div>/admin/default/edit/antecedentesplataforma/static/css/web2py-bootstrap3.css</div></td></tr></table></div></td></tr><tr><td><div><table><tr><td><div>Base de datos</div></td></tr><tr><td><div>False</div></td></tr><tr><td><div>/antecedentesplataforma/appadmin/index</div></td></tr></table></div></td></tr><tr><td><div><table><tr><td><div>Errores</div></td></tr><tr><td><div>False</div></td></tr><tr><td><div>/admin/default/errors/antecedentesplataforma</div></td></tr></table></div></td></tr><tr><td><div><table><tr><td><div>Acerca de</div></td></tr><tr><td><div>False</div></td></tr><tr><td><div>/admin/default/about/antecedentesplataforma</div></td></tr></table></div></td></tr></table></div></td></tr></table></div></td></tr><tr><td><div><table><tr><td><div>web2py.com</div></td></tr><tr><td><div>False</div></td></tr><tr><td><div>#</div></td></tr><tr><td><div><table><tr><td><div><table><tr><td><div>Descargas</div></td></tr><tr><td><div>False</div></td></tr><tr><td><div>http://www.web2py.com/examples/default/download</div></td></tr></table></div></td></tr><tr><td><div><table><tr><td><div>Soporte</div></td></tr><tr><td><div>False</div></td></tr><tr><td><div>http://www.web2py.com/examples/default/support</div></td></tr></table></div></td></tr><tr><td><div><table><tr><td><div>Demostraci\xc3\xb3n</div></td></tr><tr><td><div>False</div></td></tr><tr><td><div>http://web2py.com/demo_admin</div></td></tr></table></div></td></tr><tr><td><div><table><tr><td><div>Ejemplos R\xc3\xa1pidos</div></td></tr><tr><td><div>False</div></td></tr><tr><td><div>http://web2py.com/examples/default/examples</div></td></tr></table></div></td></tr><tr><td><div><table><tr><td><div>FAQ</div></td></tr><tr><td><div>False</div></td></tr><tr><td><div>http://web2py.com/AlterEgo</div></td></tr></table></div></td></tr><tr><td><div><table><tr><td><div>V\xc3\xaddeos</div></td></tr><tr><td><div>False</div></td></tr><tr><td><div>http://www.web2py.com/examples/default/videos/</div></td></tr></table></div></td></tr><tr><td><div><table><tr><td><div>Aplicaciones Libres</div></td></tr><tr><td><div>False</div></td></tr><tr><td><div>http://web2py.com/appliances</div></td></tr></table></div></td></tr><tr><td><div><table><tr><td><div>Plugins</div></td></tr><tr><td><div>False</div></td></tr><tr><td><div>http://web2py.com/plugins</div></td></tr></table></div></td></tr><tr><td><div><table><tr><td><div>Recetas</div></td></tr><tr><td><div>False</div></td></tr><tr><td><div>http://web2pyslices.com/</div></td></tr></table></div></td></tr></table></div></td></tr></table></div></td></tr><tr><td><div><table><tr><td><div>Documentaci\xc3\xb3n</div></td></tr><tr><td><div>False</div></td></tr><tr><td><div>#</div></td></tr><tr><td><div><table><tr><td><div><table><tr><td><div>Online book</div></td></tr><tr><td><div>False</div></td></tr><tr><td><div>http://www.web2py.com/book</div></td></tr></table></div></td></tr><tr><td><div><li class="divider"></li></div></td></tr><tr><td><div><table><tr><td><div>Prefacio</div></td></tr><tr><td><div>False</div></td></tr><tr><td><div>http://www.web2py.com/book/default/chapter/00</div></td></tr></table></div></td></tr><tr><td><div><table><tr><td><div>Introducci\xc3\xb3n</div></td></tr><tr><td><div>False</div></td></tr><tr><td><div>http://www.web2py.com/book/default/chapter/01</div></td></tr></table></div></td></tr><tr><td><div><table><tr><td><div>Python</div></td></tr><tr><td><div>False</div></td></tr><tr><td><div>http://www.web2py.com/book/default/chapter/02</div></td></tr></table></div></td></tr><tr><td><div><table><tr><td><div>Resumen</div></td></tr><tr><td><div>False</div></td></tr><tr><td><div>http://www.web2py.com/book/default/chapter/03</div></td></tr></table></div></td></tr><tr><td><div><table><tr><td><div>El N\xc3\xbacleo</div></td></tr><tr><td><div>False</div></td></tr><tr><td><div>http://www.web2py.com/book/default/chapter/04</div></td></tr></table></div></td></tr><tr><td><div><table><tr><td><div>Las Vistas</div></td></tr><tr><td><div>False</div></td></tr><tr><td><div>http://www.web2py.com/book/default/chapter/05</div></td></tr></table></div></td></tr><tr><td><div><table><tr><td><div>Base de datos</div></td></tr><tr><td><div>False</div></td></tr><tr><td><div>http://www.web2py.com/book/default/chapter/06</div></td></tr></table></div></td></tr><tr><td><div><table><tr><td><div>Formularios y validadores</div></td></tr><tr><td><div>False</div></td></tr><tr><td><div>http://www.web2py.com/book/default/chapter/07</div></td></tr></table></div></td></tr><tr><td><div><table><tr><td><div>Correo electr\xc3\xb3nico y SMS</div></td></tr><tr><td><div>False</div></td></tr><tr><td><div>http://www.web2py.com/book/default/chapter/08</div></td></tr></table></div></td></tr><tr><td><div><table><tr><td><div>Control de Acceso</div></td></tr><tr><td><div>False</div></td></tr><tr><td><div>http://www.web2py.com/book/default/chapter/09</div></td></tr></table></div></td></tr><tr><td><div><table><tr><td><div>Servicios</div></td></tr><tr><td><div>False</div></td></tr><tr><td><div>http://www.web2py.com/book/default/chapter/10</div></td></tr></table></div></td></tr><tr><td><div><table><tr><td><div>Recetas AJAX</div></td></tr><tr><td><div>False</div></td></tr><tr><td><div>http://www.web2py.com/book/default/chapter/11</div></td></tr></table></div></td></tr><tr><td><div><table><tr><td><div>Componentes y Plugins</div></td></tr><tr><td><div>False</div></td></tr><tr><td><div>http://www.web2py.com/book/default/chapter/12</div></td></tr></table></div></td></tr><tr><td><div><table><tr><td><div>Recetas de despliegue</div></td></tr><tr><td><div>False</div></td></tr><tr><td><div>http://www.web2py.com/book/default/chapter/13</div></td></tr></table></div></td></tr><tr><td><div><table><tr><td><div>Otras Recetas</div></td></tr><tr><td><div>False</div></td></tr><tr><td><div>http://www.web2py.com/book/default/chapter/14</div></td></tr></table></div></td></tr><tr><td><div><table><tr><td><div>Helping web2py</div></td></tr><tr><td><div>False</div></td></tr><tr><td><div>http://www.web2py.com/book/default/chapter/15</div></td></tr></table></div></td></tr><tr><td><div><table><tr><td><div>Buy web2py\'s book</div></td></tr><tr><td><div>False</div></td></tr><tr><td><div>http://stores.lulu.com/web2py</div></td></tr></table></div></td></tr></table></div></td></tr></table></div></td></tr><tr><td><div><table><tr><td><div>Comunidad</div></td></tr><tr><td><div>False</div></td></tr><tr><td><div>None</div></td></tr><tr><td><div><table><tr><td><div><table><tr><td><div>Grupos</div></td></tr><tr><td><div>False</div></td></tr><tr><td><div>http://www.web2py.com/examples/default/usergroups</div></td></tr></table></div></td></tr><tr><td><div><table><tr><td><div>Twitter</div></td></tr><tr><td><div>False</div></td></tr><tr><td><div>http://twitter.com/web2py</div></td></tr></table></div></td></tr><tr><td><div><table><tr><td><div>Chat en vivo</div></td></tr><tr><td><div>False</div></td></tr><tr><td><div>http://webchat.freenode.net/?channels=web2py</div></td></tr></table></div></td></tr></table></div></td></tr></table></div></td></tr></table></div></td></tr><tr><td style="font-weight:bold;vertical-align:top;">meta</td><td style="vertical-align:top;">:</td><td><div><table><tr><td style="font-weight:bold;vertical-align:top;">author</td><td style="vertical-align:top;">:</td><td><div>Your Name &lt;you@example.com&gt;</div></td></tr><tr><td style="font-weight:bold;vertical-align:top;">description</td><td style="vertical-align:top;">:</td><td><div>a cool new app</div></td></tr><tr><td style="font-weight:bold;vertical-align:top;">generator</td><td style="vertical-align:top;">:</td><td><div>Web2py Web Framework</div></td></tr><tr><td style="font-weight:bold;vertical-align:top;">keywords</td><td style="vertical-align:top;">:</td><td><div><table><tr><td><div>web2py</div></td></tr><tr><td><div>python</div></td></tr><tr><td><div>framework</div></td></tr></table></div></td></tr></table></div></td></tr><tr><td style="font-weight:bold;vertical-align:top;">models_to_run</td><td style="vertical-align:top;">:</td><td><div><table><tr><td><div>^\\w+\\.py$</div></td></tr><tr><td><div>^confeccion/\\w+\\.py$</div></td></tr><tr><td><div>^confeccion/procesar/\\w+\\.py$</div></td></tr></table></div></td></tr><tr><td style="font-weight:bold;vertical-align:top;">postprocessing</td><td style="vertical-align:top;">:</td><td><div><table></table></div></td></tr><tr><td style="font-weight:bold;vertical-align:top;">session_client</td><td style="vertical-align:top;">:</td><td><div>127.0.0.1</div></td></tr><tr><td style="font-weight:bold;vertical-align:top;">session_cookie_compression_level</td><td style="vertical-align:top;">:</td><td><div>None</div></td></tr><tr><td style="font-weight:bold;vertical-align:top;">session_cookie_expires</td><td style="vertical-align:top;">:</td><td><div>None</div></td></tr><tr><td style="font-weight:bold;vertical-align:top;">session_data_name</td><td style="vertical-align:top;">:</td><td><div>session_data_antecedentesplataforma</div></td></tr><tr><td style="font-weight:bold;vertical-align:top;">session_file</td><td style="vertical-align:top;">:</td><td><div>&lt;open file &#x27;D:\\\\web2py\\\\applications\\\\antecedentesplataforma\\\\sessions\\\\0c6\\\\1f0\\\\127.0.0.1-46e1cdc3-5514-4cd8-8504-e5f6aa159156&#x27;, mode &#x27;rb+&#x27; at 0x033DFD30&gt;</div></td></tr><tr><td style="font-weight:bold;vertical-align:top;">session_filename</td><td style="vertical-align:top;">:</td><td><div>D:\\web2py\\applications\\antecedentesplataforma\\sessions\\127.0.0.1-46e1cdc3-5514-4cd8-8504-e5f6aa159156</div></td></tr><tr><td style="font-weight:bold;vertical-align:top;">session_hash</td><td style="vertical-align:top;">:</td><td><div>4c3d6089865648071b1c714dacb4ffc8</div></td></tr><tr><td style="font-weight:bold;vertical-align:top;">session_id</td><td style="vertical-align:top;">:</td><td><div>127.0.0.1-46e1cdc3-5514-4cd8-8504-e5f6aa159156</div></td></tr><tr><td style="font-weight:bold;vertical-align:top;">session_id_name</td><td style="vertical-align:top;">:</td><td><div>session_id_antecedentesplataforma</div></td></tr><tr><td style="font-weight:bold;vertical-align:top;">session_locked</td><td style="vertical-align:top;">:</td><td><div>True</div></td></tr><tr><td style="font-weight:bold;vertical-align:top;">session_masterapp</td><td style="vertical-align:top;">:</td><td><div>antecedentesplataforma</div></td></tr><tr><td style="font-weight:bold;vertical-align:top;">session_new</td><td style="vertical-align:top;">:</td><td><div>False</div></td></tr><tr><td style="font-weight:bold;vertical-align:top;">session_storage_type</td><td style="vertical-align:top;">:</td><td><div>file</div></td></tr><tr><td style="font-weight:bold;vertical-align:top;">status</td><td style="vertical-align:top;">:</td><td><div>200</div></td></tr><tr><td style="font-weight:bold;vertical-align:top;">subtitle</td><td style="vertical-align:top;">:</td><td><div></div></td></tr><tr><td style="font-weight:bold;vertical-align:top;">title</td><td style="vertical-align:top;">:</td><td><div>Antecedentesplataforma</div></td></tr><tr><td style="font-weight:bold;vertical-align:top;">view</td><td style="vertical-align:top;">:</td><td><div>confeccion/procesar.html</div></td></tr></table></div>'
tRp122
sS'locals'
p123
(dp124
S'dni_padron'
p125
S"'18235149'"
p126
sS'Service'
p127
S"<class 'gluon.tools.Service'>"
p128
sS'OBJECT'
p129
S"<class 'gluon.html.OBJECT'>"
p130
sS'SQLDB'
p131
S"<class 'pydal.base.DAL'>"
p132
sg115
S"<Storage {'_auth_next': None, 'flash': None, '_f...gin]': ['0701b96a-13ac-498f-b623-0e1597185ba3']}>"
p133
sS'LINK'
p134
S"<class 'gluon.html.LINK'>"
p135
sS'BR'
p136
S"<class 'gluon.html.BR'>"
p137
sS'local_import'
p138
S'<function <lambda>>'
p139
sS'OPTGROUP'
p140
S"<class 'gluon.html.OPTGROUP'>"
p141
sS'__package__'
p142
S'None'
p143
sS'PRE'
p144
S"<class 'gluon.html.PRE'>"
p145
sS'IS_INT_IN_RANGE'
p146
S"<class 'gluon.validators.IS_INT_IN_RANGE'>"
p147
sS'IS_LOWER'
p148
S"<class 'gluon.validators.IS_LOWER'>"
p149
sS'IS_STRONG'
p150
S"<class 'gluon.validators.IS_STRONG'>"
p151
sS'cache'
p152
S'<gluon.cache.Cache object>'
p153
sS'IS_IN_DB'
p154
S"<class 'gluon.validators.IS_IN_DB'>"
p155
sS'TAG'
p156
S'<gluon.html.__TAG__ object>'
p157
sS'SQLField'
p158
S"<class 'pydal.objects.Field'>"
p159
sS'mail'
p160
S'<gluon.tools.Mail object>'
p161
sS'te'
p162
S'1L'
p163
sS'BODY'
p164
S"<class 'gluon.html.BODY'>"
p165
sS'IS_DATE_IN_RANGE'
p166
S"<class 'gluon.validators.IS_DATE_IN_RANGE'>"
p167
sS'civil_padron'
p168
S"'S'"
p169
sS'IFRAME'
p170
S"<class 'gluon.html.IFRAME'>"
p171
sS'URL'
p172
S'<function URL>'
p173
sS'__file__'
p174
S"r'D:\\web2py\\applications\\antecedentesplataforma\\views\\confeccion/procesar.html'"
p175
sS'db'
p176
S'<DAL uri="sqlite://storage.sqlite">'
p177
sS'auth'
p178
S'<gluon.tools.Auth object>'
p179
sS'P'
S"<class 'gluon.html.P'>"
p180
sS'TFOOT'
p181
S"<class 'gluon.html.TFOOT'>"
p182
sS'XHTML'
p183
S"<class 'gluon.html.XHTML'>"
p184
sS'ON'
p185
S'True'
p186
sS'OL'
p187
S"<class 'gluon.html.OL'>"
p188
sS'TEXTAREA'
p189
S"<class 'gluon.html.TEXTAREA'>"
p190
sS'MENU'
p191
S"<class 'gluon.html.MENU'>"
p192
sS'clase_padron'
p193
S"'1967'"
p194
sS'IS_IMAGE'
p195
S"<class 'gluon.validators.IS_IMAGE'>"
p196
sS'EM'
p197
S"<class 'gluon.html.EM'>"
p198
sS'CODE'
p199
S"<class 'gluon.html.CODE'>"
p200
sS'HTTP'
p201
S"<class 'gluon.http.HTTP'>"
p202
sS'HR'
p203
S"<class 'gluon.html.HR'>"
p204
sS'IS_DATETIME'
p205
S"<class 'gluon.validators.IS_DATETIME'>"
p206
sS'STYLE'
p207
S"<class 'gluon.html.STYLE'>"
p208
sS'LABEL'
p209
S"<class 'gluon.html.LABEL'>"
p210
sS'CLEANUP'
p211
S"<class 'gluon.validators.CLEANUP'>"
p212
sS'plugins'
p213
S'<gluon.tools.PluginManager object>'
p214
sS'SELECT'
p215
S"<class 'gluon.html.SELECT'>"
p216
sS'CENTER'
p217
S"<class 'gluon.html.CENTER'>"
p218
sS'num_padron'
p219
S"'204885'"
p220
sS'Auth'
p221
S"<class 'gluon.tools.Auth'>"
p222
sS'DEVELOPMENT_MENU'
p223
g186
sS'__builtins__'
p224
S"{'ArithmeticError': <type 'exceptions.ArithmeticError'>, 'AssertionError': <type 'exceptions.AssertionError'>, 'AttributeError': <type 'exceptions.AttributeError'>, 'BaseException': <type 'exceptions.BaseException'>, 'BufferError': <type 'exceptions.BufferError'>, 'BytesWarning': <type 'exceptions.BytesWarning'>, 'DeprecationWarning': <type 'exceptions.DeprecationWarning'>, 'EOFError': <type 'exceptions.EOFError'>, 'Ellipsis': Ellipsis, 'EnvironmentError': <type 'exceptions.EnvironmentError'>, ...}"
p225
sS'HTML'
p226
S"<class 'gluon.html.HTML'>"
p227
sS'SQLFORM'
p228
S"<class 'gluon.sqlhtml.SQLFORM'>"
p229
sS'LOAD'
p230
S'<function LOAD>'
p231
sS'redirect'
p232
S'<function redirect>'
p233
sS'FIELDSET'
p234
S"<class 'gluon.html.FIELDSET'>"
p235
sS'IS_EQUAL_TO'
p236
S"<class 'gluon.validators.IS_EQUAL_TO'>"
p237
sS'embed64'
p238
S'<function embed64>'
p239
sS'IS_LIST_OF'
p240
S"<class 'gluon.validators.IS_LIST_OF'>"
p241
sS'INPUT'
p242
S"<class 'gluon.html.INPUT'>"
p243
sS'EMBED'
p244
S"<class 'gluon.html.EMBED'>"
p245
sS'_'
S'<function _>'
p246
sS'myconf'
p247
S"{'forms': {'formstyle': 'bootstrap3_inline', 'se...': {'names': 'localhost:*, 127.0.0.1:*, *:*, *'}}"
p248
sS'H2'
p249
S"<class 'gluon.html.H2'>"
p250
sS'H3'
p251
S"<class 'gluon.html.H3'>"
p252
sS'AppConfig'
p253
S'<function AppConfig>'
p254
sS'H1'
p255
S"<class 'gluon.html.H1'>"
p256
sS'H6'
p257
S"<class 'gluon.html.H6'>"
p258
sS'H4'
p259
S"<class 'gluon.html.H4'>"
p260
sS'H5'
p261
S"<class 'gluon.html.H5'>"
p262
sS'UL'
p263
S"<class 'gluon.html.UL'>"
p264
sS'prof_padron'
p265
S"'AMA DE CASA'"
p266
sS'IS_UPPER'
p267
S"<class 'gluon.validators.IS_UPPER'>"
p268
sS'xmlescape'
p269
S'<function xmlescape>'
p270
sS'IS_TIME'
p271
S"<class 'gluon.validators.IS_TIME'>"
p272
sS'OPTION'
p273
S"<class 'gluon.html.OPTION'>"
p274
sS'TITLE'
p275
S"<class 'gluon.html.TITLE'>"
p276
sS'CRYPT'
p277
S"<class 'gluon.validators.CRYPT'>"
p278
sS'IS_EMPTY_OR'
p279
S"<class 'gluon.validators.IS_EMPTY_OR'>"
p280
sS'MARKMIN'
p281
S"<class 'gluon.html.MARKMIN'>"
p282
sS'nombre_padron'
p283
S"'ANDREA VIVIANA'"
p284
sS'__name__'
p285
S"'__restricted__'"
p286
sS'STRONG'
p287
S"<class 'gluon.html.STRONG'>"
p288
sS'COL'
p289
S"<class 'gluon.html.COL'>"
p290
sS'service'
p291
S'<gluon.tools.Service object>'
p292
sS'SCRIPT'
p293
S"<class 'gluon.html.SCRIPT'>"
p294
sS'iniciales'
p295
S"'J.U'"
p296
sS'TABLE'
p297
S"<class 'gluon.html.TABLE'>"
p298
sS'IS_IPV4'
p299
S"<class 'gluon.validators.IS_IPV4'>"
p300
sS'IS_LENGTH'
p301
S"<class 'gluon.validators.IS_LENGTH'>"
p302
sS'IS_IPV6'
p303
S"<class 'gluon.validators.IS_IPV6'>"
p304
sS'XML'
p305
S"<class 'gluon.html.XML'>"
p306
sS'B'
S"<class 'gluon.html.B'>"
p307
sS'IMG'
p308
S"<class 'gluon.html.IMG'>"
p309
sS'SQLTABLE'
p310
S"<class 'gluon.sqlhtml.SQLTABLE'>"
p311
sS'IS_MATCH'
p312
S"<class 'gluon.validators.IS_MATCH'>"
p313
sS'IS_ALPHANUMERIC'
p314
S"<class 'gluon.validators.IS_ALPHANUMERIC'>"
p315
sS'pais_padron'
p316
S'1L'
p317
sS'soli_por_soli'
p318
S"'ANTE LAS AUTORIDADES QUE LO REQUIERAN.'"
p319
sS'SPAN'
p320
S"<class 'gluon.html.SPAN'>"
p321
sS'IS_JSON'
p322
S"<class 'gluon.validators.IS_JSON'>"
p323
sS'IS_IPADDRESS'
p324
S"<class 'gluon.validators.IS_IPADDRESS'>"
p325
sS'domi_padron'
p326
S"'B\\xc2\\xba 90 VDAS. C/N\\xc2\\xba 54- DPTO. ANDALGALA- CTCA.'"
p327
sS'IS_SLUG'
p328
S"<class 'gluon.validators.IS_SLUG'>"
p329
sS'BEAUTIFY'
p330
S"<class 'gluon.html.BEAUTIFY'>"
p331
sS'META'
p332
S"<class 'gluon.html.META'>"
p333
sS'BUTTON'
p334
S"<class 'gluon.html.BUTTON'>"
p335
sS'ide_padron'
p336
S'96230L'
p337
sS'IS_DATE'
p338
S"<class 'gluon.validators.IS_DATE'>"
p339
sS'IS_EMAIL'
p340
S"<class 'gluon.validators.IS_EMAIL'>"
p341
sS'IS_NOT_EMPTY'
p342
S"<class 'gluon.validators.IS_NOT_EMPTY'>"
p343
sS'IS_FLOAT_IN_RANGE'
p344
S"<class 'gluon.validators.IS_FLOAT_IN_RANGE'>"
p345
sS'TBODY'
p346
S"<class 'gluon.html.TBODY'>"
p347
sS'CAT'
p348
S"<class 'gluon.html.CAT'>"
p349
sS'Field'
p350
S"<class 'pydal.objects.Field'>"
p351
sS'IS_LIST_OF_EMAILS'
p352
S"<class 'gluon.validators.IS_LIST_OF_EMAILS'>"
p353
sS'apellido_padron'
p354
S"'STELLA'"
p355
sS'DIV'
p356
S"<class 'gluon.html.DIV'>"
p357
sS'LEGEND'
p358
S"<class 'gluon.html.LEGEND'>"
p359
sS'ide_soli'
p360
S'75'
p361
sS'form'
p362
S'<gluon.sqlhtml.SQLFORM object>'
p363
sS'COLGROUP'
p364
S"<class 'gluon.html.COLGROUP'>"
p365
sS'DAL'
p366
S"<class 'pydal.base.DAL'>"
p367
sS'ASSIGNJS'
p368
S'<function ASSIGNJS>'
p369
sS'TR'
p370
S"<class 'gluon.html.TR'>"
p371
sS'LI'
p372
S"<class 'gluon.html.LI'>"
p373
sS'TH'
p374
S"<class 'gluon.html.TH'>"
p375
sS'TD'
p376
S"<class 'gluon.html.TD'>"
p377
sS'PluginManager'
p378
S"<class 'gluon.tools.PluginManager'>"
p379
sS'IS_URL'
p380
S"<class 'gluon.validators.IS_URL'>"
p381
sS'pasa_padron'
p382
S"''"
p383
sS'A'
S"<class 'gluon.html.A'>"
p384
sS'HEAD'
p385
S"<class 'gluon.html.HEAD'>"
p386
sS'IS_DATETIME_IN_RANGE'
p387
S"<class 'gluon.validators.IS_DATETIME_IN_RANGE'>"
p388
sS'FORM'
p389
S"<class 'gluon.html.FORM'>"
p390
sS'I'
S"<class 'gluon.html.I'>"
p391
sS'IS_NOT_IN_DB'
p392
S"<class 'gluon.validators.IS_NOT_IN_DB'>"
p393
sg121
S"<Storage {'body': <cStringIO.StringO object at 0...0x031E1470>, 'view': 'confeccion/procesar.html'}>"
p394
sS'THEAD'
p395
S"<class 'gluon.html.THEAD'>"
p396
sS'ANY_OF'
p397
S"<class 'gluon.validators.ANY_OF'>"
p398
sS'IS_NULL_OR'
p399
S"<class 'gluon.validators.IS_EMPTY_OR'>"
p400
sg56
S"<Storage {'_vars': None, 'function': 'procesar',...web2py\\\\applications\\\\antecedentesplataforma\\\\'}>"
p401
sS'IS_EXPR'
p402
S"<class 'gluon.validators.IS_EXPR'>"
p403
sS'T'
S'<gluon.languages.translator object>'
p404
sS'dnpa_soli'
p405
S"'18235149'"
p406
sS'IS_IN_SET'
p407
S"<class 'gluon.validators.IS_IN_SET'>"
p408
sS'IS_UPLOAD_FILENAME'
p409
S"<class 'gluon.validators.IS_UPLOAD_FILENAME'>"
p410
sS'capital_soli'
p411
S"''"
p412
sS'TT'
p413
S"<class 'gluon.html.TT'>"
p414
sS'IS_DECIMAL_IN_RANGE'
p415
S"<class 'gluon.validators.IS_DECIMAL_IN_RANGE'>"
p416
sssS'traceback'
p417
S'Traceback (most recent call last):\n  File "D:\\web2py\\gluon\\restricted.py", line 227, in restricted\n    exec ccode in environment\n  File "D:\\web2py\\applications\\antecedentesplataforma\\views\\confeccion/procesar.html", line 58, in <module>\n    </div>\nNameError: name \'formulario\' is not defined\n'
p418
s.